
stm32_water_tank-main.elf:     file format elf32-littlearm

Sections:
Idx Name          Size      VMA       LMA       File off  Algn
  0 .isr_vector   0000010c  08000000  08000000  00001000  2**0
                  CONTENTS, ALLOC, LOAD, READONLY, DATA
  1 .text         0000820c  0800010c  0800010c  0000110c  2**2
                  CONTENTS, ALLOC, LOAD, READONLY, CODE
  2 .rodata       0000056c  08008318  08008318  00009318  2**2
                  CONTENTS, ALLOC, LOAD, READONLY, DATA
  3 .ARM.extab    00000000  08008884  08008884  0000a0c4  2**0
                  CONTENTS, READONLY
  4 .ARM          00000008  08008884  08008884  00009884  2**2
                  CONTENTS, ALLOC, LOAD, READONLY, DATA
  5 .preinit_array 00000000  0800888c  0800888c  0000a0c4  2**0
                  CONTENTS, ALLOC, LOAD, DATA
  6 .init_array   00000004  0800888c  0800888c  0000988c  2**2
                  CONTENTS, ALLOC, LOAD, READONLY, DATA
  7 .fini_array   00000004  08008890  08008890  00009890  2**2
                  CONTENTS, ALLOC, LOAD, READONLY, DATA
  8 .data         000000c4  20000000  08008894  0000a000  2**2
                  CONTENTS, ALLOC, LOAD, DATA
  9 .bss          000004f4  200000c4  08008958  0000a0c4  2**2
                  ALLOC
 10 ._user_heap_stack 00000600  200005b8  08008958  0000a5b8  2**0
                  ALLOC
 11 .ARM.attributes 00000029  00000000  00000000  0000a0c4  2**0
                  CONTENTS, READONLY
 12 .debug_info   000132f1  00000000  00000000  0000a0ed  2**0
                  CONTENTS, READONLY, DEBUGGING, OCTETS
 13 .debug_abbrev 00003987  00000000  00000000  0001d3de  2**0
                  CONTENTS, READONLY, DEBUGGING, OCTETS
 14 .debug_aranges 00001208  00000000  00000000  00020d68  2**3
                  CONTENTS, READONLY, DEBUGGING, OCTETS
 15 .debug_rnglists 00000e13  00000000  00000000  00021f70  2**0
                  CONTENTS, READONLY, DEBUGGING, OCTETS
 16 .debug_macro  0001a711  00000000  00000000  00022d83  2**0
                  CONTENTS, READONLY, DEBUGGING, OCTETS
 17 .debug_line   0001804c  00000000  00000000  0003d494  2**0
                  CONTENTS, READONLY, DEBUGGING, OCTETS
 18 .debug_str    0008f31e  00000000  00000000  000554e0  2**0
                  CONTENTS, READONLY, DEBUGGING, OCTETS
 19 .comment      00000043  00000000  00000000  000e47fe  2**0
                  CONTENTS, READONLY
 20 .debug_frame  0000504c  00000000  00000000  000e4844  2**2
                  CONTENTS, READONLY, DEBUGGING, OCTETS
 21 .debug_line_str 0000006b  00000000  00000000  000e9890  2**0
                  CONTENTS, READONLY, DEBUGGING, OCTETS

Disassembly of section .text:

0800010c <__do_global_dtors_aux>:
 800010c:	b510      	push	{r4, lr}
 800010e:	4c05      	ldr	r4, [pc, #20]	@ (8000124 <__do_global_dtors_aux+0x18>)
 8000110:	7823      	ldrb	r3, [r4, #0]
 8000112:	b933      	cbnz	r3, 8000122 <__do_global_dtors_aux+0x16>
 8000114:	4b04      	ldr	r3, [pc, #16]	@ (8000128 <__do_global_dtors_aux+0x1c>)
 8000116:	b113      	cbz	r3, 800011e <__do_global_dtors_aux+0x12>
 8000118:	4804      	ldr	r0, [pc, #16]	@ (800012c <__do_global_dtors_aux+0x20>)
 800011a:	f3af 8000 	nop.w
 800011e:	2301      	movs	r3, #1
 8000120:	7023      	strb	r3, [r4, #0]
 8000122:	bd10      	pop	{r4, pc}
 8000124:	200000c4 	.word	0x200000c4
 8000128:	00000000 	.word	0x00000000
 800012c:	08008300 	.word	0x08008300

08000130 <frame_dummy>:
 8000130:	b508      	push	{r3, lr}
 8000132:	4b03      	ldr	r3, [pc, #12]	@ (8000140 <frame_dummy+0x10>)
 8000134:	b11b      	cbz	r3, 800013e <frame_dummy+0xe>
 8000136:	4903      	ldr	r1, [pc, #12]	@ (8000144 <frame_dummy+0x14>)
 8000138:	4803      	ldr	r0, [pc, #12]	@ (8000148 <frame_dummy+0x18>)
 800013a:	f3af 8000 	nop.w
 800013e:	bd08      	pop	{r3, pc}
 8000140:	00000000 	.word	0x00000000
 8000144:	200000c8 	.word	0x200000c8
 8000148:	08008300 	.word	0x08008300

0800014c <strcmp>:
 800014c:	f810 2b01 	ldrb.w	r2, [r0], #1
 8000150:	f811 3b01 	ldrb.w	r3, [r1], #1
 8000154:	2a01      	cmp	r2, #1
 8000156:	bf28      	it	cs
 8000158:	429a      	cmpcs	r2, r3
 800015a:	d0f7      	beq.n	800014c <strcmp>
 800015c:	1ad0      	subs	r0, r2, r3
 800015e:	4770      	bx	lr

08000160 <strlen>:
 8000160:	4603      	mov	r3, r0
 8000162:	f813 2b01 	ldrb.w	r2, [r3], #1
 8000166:	2a00      	cmp	r2, #0
 8000168:	d1fb      	bne.n	8000162 <strlen+0x2>
 800016a:	1a18      	subs	r0, r3, r0
 800016c:	3801      	subs	r0, #1
 800016e:	4770      	bx	lr

08000170 <__aeabi_frsub>:
 8000170:	f080 4000 	eor.w	r0, r0, #2147483648	@ 0x80000000
 8000174:	e002      	b.n	800017c <__addsf3>
 8000176:	bf00      	nop

08000178 <__aeabi_fsub>:
 8000178:	f081 4100 	eor.w	r1, r1, #2147483648	@ 0x80000000

0800017c <__addsf3>:
 800017c:	0042      	lsls	r2, r0, #1
 800017e:	bf1f      	itttt	ne
 8000180:	ea5f 0341 	movsne.w	r3, r1, lsl #1
 8000184:	ea92 0f03 	teqne	r2, r3
 8000188:	ea7f 6c22 	mvnsne.w	ip, r2, asr #24
 800018c:	ea7f 6c23 	mvnsne.w	ip, r3, asr #24
 8000190:	d06a      	beq.n	8000268 <__addsf3+0xec>
 8000192:	ea4f 6212 	mov.w	r2, r2, lsr #24
 8000196:	ebd2 6313 	rsbs	r3, r2, r3, lsr #24
 800019a:	bfc1      	itttt	gt
 800019c:	18d2      	addgt	r2, r2, r3
 800019e:	4041      	eorgt	r1, r0
 80001a0:	4048      	eorgt	r0, r1
 80001a2:	4041      	eorgt	r1, r0
 80001a4:	bfb8      	it	lt
 80001a6:	425b      	neglt	r3, r3
 80001a8:	2b19      	cmp	r3, #25
 80001aa:	bf88      	it	hi
 80001ac:	4770      	bxhi	lr
 80001ae:	f010 4f00 	tst.w	r0, #2147483648	@ 0x80000000
 80001b2:	f440 0000 	orr.w	r0, r0, #8388608	@ 0x800000
 80001b6:	f020 407f 	bic.w	r0, r0, #4278190080	@ 0xff000000
 80001ba:	bf18      	it	ne
 80001bc:	4240      	negne	r0, r0
 80001be:	f011 4f00 	tst.w	r1, #2147483648	@ 0x80000000
 80001c2:	f441 0100 	orr.w	r1, r1, #8388608	@ 0x800000
 80001c6:	f021 417f 	bic.w	r1, r1, #4278190080	@ 0xff000000
 80001ca:	bf18      	it	ne
 80001cc:	4249      	negne	r1, r1
 80001ce:	ea92 0f03 	teq	r2, r3
 80001d2:	d03f      	beq.n	8000254 <__addsf3+0xd8>
 80001d4:	f1a2 0201 	sub.w	r2, r2, #1
 80001d8:	fa41 fc03 	asr.w	ip, r1, r3
 80001dc:	eb10 000c 	adds.w	r0, r0, ip
 80001e0:	f1c3 0320 	rsb	r3, r3, #32
 80001e4:	fa01 f103 	lsl.w	r1, r1, r3
 80001e8:	f000 4300 	and.w	r3, r0, #2147483648	@ 0x80000000
 80001ec:	d502      	bpl.n	80001f4 <__addsf3+0x78>
 80001ee:	4249      	negs	r1, r1
 80001f0:	eb60 0040 	sbc.w	r0, r0, r0, lsl #1
 80001f4:	f5b0 0f00 	cmp.w	r0, #8388608	@ 0x800000
 80001f8:	d313      	bcc.n	8000222 <__addsf3+0xa6>
 80001fa:	f1b0 7f80 	cmp.w	r0, #16777216	@ 0x1000000
 80001fe:	d306      	bcc.n	800020e <__addsf3+0x92>
 8000200:	0840      	lsrs	r0, r0, #1
 8000202:	ea4f 0131 	mov.w	r1, r1, rrx
 8000206:	f102 0201 	add.w	r2, r2, #1
 800020a:	2afe      	cmp	r2, #254	@ 0xfe
 800020c:	d251      	bcs.n	80002b2 <__addsf3+0x136>
 800020e:	f1b1 4f00 	cmp.w	r1, #2147483648	@ 0x80000000
 8000212:	eb40 50c2 	adc.w	r0, r0, r2, lsl #23
 8000216:	bf08      	it	eq
 8000218:	f020 0001 	biceq.w	r0, r0, #1
 800021c:	ea40 0003 	orr.w	r0, r0, r3
 8000220:	4770      	bx	lr
 8000222:	0049      	lsls	r1, r1, #1
 8000224:	eb40 0000 	adc.w	r0, r0, r0
 8000228:	3a01      	subs	r2, #1
 800022a:	bf28      	it	cs
 800022c:	f5b0 0f00 	cmpcs.w	r0, #8388608	@ 0x800000
 8000230:	d2ed      	bcs.n	800020e <__addsf3+0x92>
 8000232:	fab0 fc80 	clz	ip, r0
 8000236:	f1ac 0c08 	sub.w	ip, ip, #8
 800023a:	ebb2 020c 	subs.w	r2, r2, ip
 800023e:	fa00 f00c 	lsl.w	r0, r0, ip
 8000242:	bfaa      	itet	ge
 8000244:	eb00 50c2 	addge.w	r0, r0, r2, lsl #23
 8000248:	4252      	neglt	r2, r2
 800024a:	4318      	orrge	r0, r3
 800024c:	bfbc      	itt	lt
 800024e:	40d0      	lsrlt	r0, r2
 8000250:	4318      	orrlt	r0, r3
 8000252:	4770      	bx	lr
 8000254:	f092 0f00 	teq	r2, #0
 8000258:	f481 0100 	eor.w	r1, r1, #8388608	@ 0x800000
 800025c:	bf06      	itte	eq
 800025e:	f480 0000 	eoreq.w	r0, r0, #8388608	@ 0x800000
 8000262:	3201      	addeq	r2, #1
 8000264:	3b01      	subne	r3, #1
 8000266:	e7b5      	b.n	80001d4 <__addsf3+0x58>
 8000268:	ea4f 0341 	mov.w	r3, r1, lsl #1
 800026c:	ea7f 6c22 	mvns.w	ip, r2, asr #24
 8000270:	bf18      	it	ne
 8000272:	ea7f 6c23 	mvnsne.w	ip, r3, asr #24
 8000276:	d021      	beq.n	80002bc <__addsf3+0x140>
 8000278:	ea92 0f03 	teq	r2, r3
 800027c:	d004      	beq.n	8000288 <__addsf3+0x10c>
 800027e:	f092 0f00 	teq	r2, #0
 8000282:	bf08      	it	eq
 8000284:	4608      	moveq	r0, r1
 8000286:	4770      	bx	lr
 8000288:	ea90 0f01 	teq	r0, r1
 800028c:	bf1c      	itt	ne
 800028e:	2000      	movne	r0, #0
 8000290:	4770      	bxne	lr
 8000292:	f012 4f7f 	tst.w	r2, #4278190080	@ 0xff000000
 8000296:	d104      	bne.n	80002a2 <__addsf3+0x126>
 8000298:	0040      	lsls	r0, r0, #1
 800029a:	bf28      	it	cs
 800029c:	f040 4000 	orrcs.w	r0, r0, #2147483648	@ 0x80000000
 80002a0:	4770      	bx	lr
 80002a2:	f112 7200 	adds.w	r2, r2, #33554432	@ 0x2000000
 80002a6:	bf3c      	itt	cc
 80002a8:	f500 0000 	addcc.w	r0, r0, #8388608	@ 0x800000
 80002ac:	4770      	bxcc	lr
 80002ae:	f000 4300 	and.w	r3, r0, #2147483648	@ 0x80000000
 80002b2:	f043 40fe 	orr.w	r0, r3, #2130706432	@ 0x7f000000
 80002b6:	f440 0000 	orr.w	r0, r0, #8388608	@ 0x800000
 80002ba:	4770      	bx	lr
 80002bc:	ea7f 6222 	mvns.w	r2, r2, asr #24
 80002c0:	bf16      	itet	ne
 80002c2:	4608      	movne	r0, r1
 80002c4:	ea7f 6323 	mvnseq.w	r3, r3, asr #24
 80002c8:	4601      	movne	r1, r0
 80002ca:	0242      	lsls	r2, r0, #9
 80002cc:	bf06      	itte	eq
 80002ce:	ea5f 2341 	movseq.w	r3, r1, lsl #9
 80002d2:	ea90 0f01 	teqeq	r0, r1
 80002d6:	f440 0080 	orrne.w	r0, r0, #4194304	@ 0x400000
 80002da:	4770      	bx	lr

080002dc <__aeabi_ui2f>:
 80002dc:	f04f 0300 	mov.w	r3, #0
 80002e0:	e004      	b.n	80002ec <__aeabi_i2f+0x8>
 80002e2:	bf00      	nop

080002e4 <__aeabi_i2f>:
 80002e4:	f010 4300 	ands.w	r3, r0, #2147483648	@ 0x80000000
 80002e8:	bf48      	it	mi
 80002ea:	4240      	negmi	r0, r0
 80002ec:	ea5f 0c00 	movs.w	ip, r0
 80002f0:	bf08      	it	eq
 80002f2:	4770      	bxeq	lr
 80002f4:	f043 4396 	orr.w	r3, r3, #1258291200	@ 0x4b000000
 80002f8:	4601      	mov	r1, r0
 80002fa:	f04f 0000 	mov.w	r0, #0
 80002fe:	e01c      	b.n	800033a <__aeabi_l2f+0x2a>

08000300 <__aeabi_ul2f>:
 8000300:	ea50 0201 	orrs.w	r2, r0, r1
 8000304:	bf08      	it	eq
 8000306:	4770      	bxeq	lr
 8000308:	f04f 0300 	mov.w	r3, #0
 800030c:	e00a      	b.n	8000324 <__aeabi_l2f+0x14>
 800030e:	bf00      	nop

08000310 <__aeabi_l2f>:
 8000310:	ea50 0201 	orrs.w	r2, r0, r1
 8000314:	bf08      	it	eq
 8000316:	4770      	bxeq	lr
 8000318:	f011 4300 	ands.w	r3, r1, #2147483648	@ 0x80000000
 800031c:	d502      	bpl.n	8000324 <__aeabi_l2f+0x14>
 800031e:	4240      	negs	r0, r0
 8000320:	eb61 0141 	sbc.w	r1, r1, r1, lsl #1
 8000324:	ea5f 0c01 	movs.w	ip, r1
 8000328:	bf02      	ittt	eq
 800032a:	4684      	moveq	ip, r0
 800032c:	4601      	moveq	r1, r0
 800032e:	2000      	moveq	r0, #0
 8000330:	f043 43b6 	orr.w	r3, r3, #1526726656	@ 0x5b000000
 8000334:	bf08      	it	eq
 8000336:	f1a3 5380 	subeq.w	r3, r3, #268435456	@ 0x10000000
 800033a:	f5a3 0300 	sub.w	r3, r3, #8388608	@ 0x800000
 800033e:	fabc f28c 	clz	r2, ip
 8000342:	3a08      	subs	r2, #8
 8000344:	eba3 53c2 	sub.w	r3, r3, r2, lsl #23
 8000348:	db10      	blt.n	800036c <__aeabi_l2f+0x5c>
 800034a:	fa01 fc02 	lsl.w	ip, r1, r2
 800034e:	4463      	add	r3, ip
 8000350:	fa00 fc02 	lsl.w	ip, r0, r2
 8000354:	f1c2 0220 	rsb	r2, r2, #32
 8000358:	f1bc 4f00 	cmp.w	ip, #2147483648	@ 0x80000000
 800035c:	fa20 f202 	lsr.w	r2, r0, r2
 8000360:	eb43 0002 	adc.w	r0, r3, r2
 8000364:	bf08      	it	eq
 8000366:	f020 0001 	biceq.w	r0, r0, #1
 800036a:	4770      	bx	lr
 800036c:	f102 0220 	add.w	r2, r2, #32
 8000370:	fa01 fc02 	lsl.w	ip, r1, r2
 8000374:	f1c2 0220 	rsb	r2, r2, #32
 8000378:	ea50 004c 	orrs.w	r0, r0, ip, lsl #1
 800037c:	fa21 f202 	lsr.w	r2, r1, r2
 8000380:	eb43 0002 	adc.w	r0, r3, r2
 8000384:	bf08      	it	eq
 8000386:	ea20 70dc 	biceq.w	r0, r0, ip, lsr #31
 800038a:	4770      	bx	lr

0800038c <__aeabi_fmul>:
 800038c:	f04f 0cff 	mov.w	ip, #255	@ 0xff
 8000390:	ea1c 52d0 	ands.w	r2, ip, r0, lsr #23
 8000394:	bf1e      	ittt	ne
 8000396:	ea1c 53d1 	andsne.w	r3, ip, r1, lsr #23
 800039a:	ea92 0f0c 	teqne	r2, ip
 800039e:	ea93 0f0c 	teqne	r3, ip
 80003a2:	d06f      	beq.n	8000484 <__aeabi_fmul+0xf8>
 80003a4:	441a      	add	r2, r3
 80003a6:	ea80 0c01 	eor.w	ip, r0, r1
 80003aa:	0240      	lsls	r0, r0, #9
 80003ac:	bf18      	it	ne
 80003ae:	ea5f 2141 	movsne.w	r1, r1, lsl #9
 80003b2:	d01e      	beq.n	80003f2 <__aeabi_fmul+0x66>
 80003b4:	f04f 6300 	mov.w	r3, #134217728	@ 0x8000000
 80003b8:	ea43 1050 	orr.w	r0, r3, r0, lsr #5
 80003bc:	ea43 1151 	orr.w	r1, r3, r1, lsr #5
 80003c0:	fba0 3101 	umull	r3, r1, r0, r1
 80003c4:	f00c 4000 	and.w	r0, ip, #2147483648	@ 0x80000000
 80003c8:	f5b1 0f00 	cmp.w	r1, #8388608	@ 0x800000
 80003cc:	bf3e      	ittt	cc
 80003ce:	0049      	lslcc	r1, r1, #1
 80003d0:	ea41 71d3 	orrcc.w	r1, r1, r3, lsr #31
 80003d4:	005b      	lslcc	r3, r3, #1
 80003d6:	ea40 0001 	orr.w	r0, r0, r1
 80003da:	f162 027f 	sbc.w	r2, r2, #127	@ 0x7f
 80003de:	2afd      	cmp	r2, #253	@ 0xfd
 80003e0:	d81d      	bhi.n	800041e <__aeabi_fmul+0x92>
 80003e2:	f1b3 4f00 	cmp.w	r3, #2147483648	@ 0x80000000
 80003e6:	eb40 50c2 	adc.w	r0, r0, r2, lsl #23
 80003ea:	bf08      	it	eq
 80003ec:	f020 0001 	biceq.w	r0, r0, #1
 80003f0:	4770      	bx	lr
 80003f2:	f090 0f00 	teq	r0, #0
 80003f6:	f00c 4c00 	and.w	ip, ip, #2147483648	@ 0x80000000
 80003fa:	bf08      	it	eq
 80003fc:	0249      	lsleq	r1, r1, #9
 80003fe:	ea4c 2050 	orr.w	r0, ip, r0, lsr #9
 8000402:	ea40 2051 	orr.w	r0, r0, r1, lsr #9
 8000406:	3a7f      	subs	r2, #127	@ 0x7f
 8000408:	bfc2      	ittt	gt
 800040a:	f1d2 03ff 	rsbsgt	r3, r2, #255	@ 0xff
 800040e:	ea40 50c2 	orrgt.w	r0, r0, r2, lsl #23
 8000412:	4770      	bxgt	lr
 8000414:	f440 0000 	orr.w	r0, r0, #8388608	@ 0x800000
 8000418:	f04f 0300 	mov.w	r3, #0
 800041c:	3a01      	subs	r2, #1
 800041e:	dc5d      	bgt.n	80004dc <__aeabi_fmul+0x150>
 8000420:	f112 0f19 	cmn.w	r2, #25
 8000424:	bfdc      	itt	le
 8000426:	f000 4000 	andle.w	r0, r0, #2147483648	@ 0x80000000
 800042a:	4770      	bxle	lr
 800042c:	f1c2 0200 	rsb	r2, r2, #0
 8000430:	0041      	lsls	r1, r0, #1
 8000432:	fa21 f102 	lsr.w	r1, r1, r2
 8000436:	f1c2 0220 	rsb	r2, r2, #32
 800043a:	fa00 fc02 	lsl.w	ip, r0, r2
 800043e:	ea5f 0031 	movs.w	r0, r1, rrx
 8000442:	f140 0000 	adc.w	r0, r0, #0
 8000446:	ea53 034c 	orrs.w	r3, r3, ip, lsl #1
 800044a:	bf08      	it	eq
 800044c:	ea20 70dc 	biceq.w	r0, r0, ip, lsr #31
 8000450:	4770      	bx	lr
 8000452:	f092 0f00 	teq	r2, #0
 8000456:	f000 4c00 	and.w	ip, r0, #2147483648	@ 0x80000000
 800045a:	bf02      	ittt	eq
 800045c:	0040      	lsleq	r0, r0, #1
 800045e:	f410 0f00 	tsteq.w	r0, #8388608	@ 0x800000
 8000462:	3a01      	subeq	r2, #1
 8000464:	d0f9      	beq.n	800045a <__aeabi_fmul+0xce>
 8000466:	ea40 000c 	orr.w	r0, r0, ip
 800046a:	f093 0f00 	teq	r3, #0
 800046e:	f001 4c00 	and.w	ip, r1, #2147483648	@ 0x80000000
 8000472:	bf02      	ittt	eq
 8000474:	0049      	lsleq	r1, r1, #1
 8000476:	f411 0f00 	tsteq.w	r1, #8388608	@ 0x800000
 800047a:	3b01      	subeq	r3, #1
 800047c:	d0f9      	beq.n	8000472 <__aeabi_fmul+0xe6>
 800047e:	ea41 010c 	orr.w	r1, r1, ip
 8000482:	e78f      	b.n	80003a4 <__aeabi_fmul+0x18>
 8000484:	ea0c 53d1 	and.w	r3, ip, r1, lsr #23
 8000488:	ea92 0f0c 	teq	r2, ip
 800048c:	bf18      	it	ne
 800048e:	ea93 0f0c 	teqne	r3, ip
 8000492:	d00a      	beq.n	80004aa <__aeabi_fmul+0x11e>
 8000494:	f030 4c00 	bics.w	ip, r0, #2147483648	@ 0x80000000
 8000498:	bf18      	it	ne
 800049a:	f031 4c00 	bicsne.w	ip, r1, #2147483648	@ 0x80000000
 800049e:	d1d8      	bne.n	8000452 <__aeabi_fmul+0xc6>
 80004a0:	ea80 0001 	eor.w	r0, r0, r1
 80004a4:	f000 4000 	and.w	r0, r0, #2147483648	@ 0x80000000
 80004a8:	4770      	bx	lr
 80004aa:	f090 0f00 	teq	r0, #0
 80004ae:	bf17      	itett	ne
 80004b0:	f090 4f00 	teqne	r0, #2147483648	@ 0x80000000
 80004b4:	4608      	moveq	r0, r1
 80004b6:	f091 0f00 	teqne	r1, #0
 80004ba:	f091 4f00 	teqne	r1, #2147483648	@ 0x80000000
 80004be:	d014      	beq.n	80004ea <__aeabi_fmul+0x15e>
 80004c0:	ea92 0f0c 	teq	r2, ip
 80004c4:	d101      	bne.n	80004ca <__aeabi_fmul+0x13e>
 80004c6:	0242      	lsls	r2, r0, #9
 80004c8:	d10f      	bne.n	80004ea <__aeabi_fmul+0x15e>
 80004ca:	ea93 0f0c 	teq	r3, ip
 80004ce:	d103      	bne.n	80004d8 <__aeabi_fmul+0x14c>
 80004d0:	024b      	lsls	r3, r1, #9
 80004d2:	bf18      	it	ne
 80004d4:	4608      	movne	r0, r1
 80004d6:	d108      	bne.n	80004ea <__aeabi_fmul+0x15e>
 80004d8:	ea80 0001 	eor.w	r0, r0, r1
 80004dc:	f000 4000 	and.w	r0, r0, #2147483648	@ 0x80000000
 80004e0:	f040 40fe 	orr.w	r0, r0, #2130706432	@ 0x7f000000
 80004e4:	f440 0000 	orr.w	r0, r0, #8388608	@ 0x800000
 80004e8:	4770      	bx	lr
 80004ea:	f040 40fe 	orr.w	r0, r0, #2130706432	@ 0x7f000000
 80004ee:	f440 0040 	orr.w	r0, r0, #12582912	@ 0xc00000
 80004f2:	4770      	bx	lr

080004f4 <__aeabi_fdiv>:
 80004f4:	f04f 0cff 	mov.w	ip, #255	@ 0xff
 80004f8:	ea1c 52d0 	ands.w	r2, ip, r0, lsr #23
 80004fc:	bf1e      	ittt	ne
 80004fe:	ea1c 53d1 	andsne.w	r3, ip, r1, lsr #23
 8000502:	ea92 0f0c 	teqne	r2, ip
 8000506:	ea93 0f0c 	teqne	r3, ip
 800050a:	d069      	beq.n	80005e0 <__aeabi_fdiv+0xec>
 800050c:	eba2 0203 	sub.w	r2, r2, r3
 8000510:	ea80 0c01 	eor.w	ip, r0, r1
 8000514:	0249      	lsls	r1, r1, #9
 8000516:	ea4f 2040 	mov.w	r0, r0, lsl #9
 800051a:	d037      	beq.n	800058c <__aeabi_fdiv+0x98>
 800051c:	f04f 5380 	mov.w	r3, #268435456	@ 0x10000000
 8000520:	ea43 1111 	orr.w	r1, r3, r1, lsr #4
 8000524:	ea43 1310 	orr.w	r3, r3, r0, lsr #4
 8000528:	f00c 4000 	and.w	r0, ip, #2147483648	@ 0x80000000
 800052c:	428b      	cmp	r3, r1
 800052e:	bf38      	it	cc
 8000530:	005b      	lslcc	r3, r3, #1
 8000532:	f142 027d 	adc.w	r2, r2, #125	@ 0x7d
 8000536:	f44f 0c00 	mov.w	ip, #8388608	@ 0x800000
 800053a:	428b      	cmp	r3, r1
 800053c:	bf24      	itt	cs
 800053e:	1a5b      	subcs	r3, r3, r1
 8000540:	ea40 000c 	orrcs.w	r0, r0, ip
 8000544:	ebb3 0f51 	cmp.w	r3, r1, lsr #1
 8000548:	bf24      	itt	cs
 800054a:	eba3 0351 	subcs.w	r3, r3, r1, lsr #1
 800054e:	ea40 005c 	orrcs.w	r0, r0, ip, lsr #1
 8000552:	ebb3 0f91 	cmp.w	r3, r1, lsr #2
 8000556:	bf24      	itt	cs
 8000558:	eba3 0391 	subcs.w	r3, r3, r1, lsr #2
 800055c:	ea40 009c 	orrcs.w	r0, r0, ip, lsr #2
 8000560:	ebb3 0fd1 	cmp.w	r3, r1, lsr #3
 8000564:	bf24      	itt	cs
 8000566:	eba3 03d1 	subcs.w	r3, r3, r1, lsr #3
 800056a:	ea40 00dc 	orrcs.w	r0, r0, ip, lsr #3
 800056e:	011b      	lsls	r3, r3, #4
 8000570:	bf18      	it	ne
 8000572:	ea5f 1c1c 	movsne.w	ip, ip, lsr #4
 8000576:	d1e0      	bne.n	800053a <__aeabi_fdiv+0x46>
 8000578:	2afd      	cmp	r2, #253	@ 0xfd
 800057a:	f63f af50 	bhi.w	800041e <__aeabi_fmul+0x92>
 800057e:	428b      	cmp	r3, r1
 8000580:	eb40 50c2 	adc.w	r0, r0, r2, lsl #23
 8000584:	bf08      	it	eq
 8000586:	f020 0001 	biceq.w	r0, r0, #1
 800058a:	4770      	bx	lr
 800058c:	f00c 4c00 	and.w	ip, ip, #2147483648	@ 0x80000000
 8000590:	ea4c 2050 	orr.w	r0, ip, r0, lsr #9
 8000594:	327f      	adds	r2, #127	@ 0x7f
 8000596:	bfc2      	ittt	gt
 8000598:	f1d2 03ff 	rsbsgt	r3, r2, #255	@ 0xff
 800059c:	ea40 50c2 	orrgt.w	r0, r0, r2, lsl #23
 80005a0:	4770      	bxgt	lr
 80005a2:	f440 0000 	orr.w	r0, r0, #8388608	@ 0x800000
 80005a6:	f04f 0300 	mov.w	r3, #0
 80005aa:	3a01      	subs	r2, #1
 80005ac:	e737      	b.n	800041e <__aeabi_fmul+0x92>
 80005ae:	f092 0f00 	teq	r2, #0
 80005b2:	f000 4c00 	and.w	ip, r0, #2147483648	@ 0x80000000
 80005b6:	bf02      	ittt	eq
 80005b8:	0040      	lsleq	r0, r0, #1
 80005ba:	f410 0f00 	tsteq.w	r0, #8388608	@ 0x800000
 80005be:	3a01      	subeq	r2, #1
 80005c0:	d0f9      	beq.n	80005b6 <__aeabi_fdiv+0xc2>
 80005c2:	ea40 000c 	orr.w	r0, r0, ip
 80005c6:	f093 0f00 	teq	r3, #0
 80005ca:	f001 4c00 	and.w	ip, r1, #2147483648	@ 0x80000000
 80005ce:	bf02      	ittt	eq
 80005d0:	0049      	lsleq	r1, r1, #1
 80005d2:	f411 0f00 	tsteq.w	r1, #8388608	@ 0x800000
 80005d6:	3b01      	subeq	r3, #1
 80005d8:	d0f9      	beq.n	80005ce <__aeabi_fdiv+0xda>
 80005da:	ea41 010c 	orr.w	r1, r1, ip
 80005de:	e795      	b.n	800050c <__aeabi_fdiv+0x18>
 80005e0:	ea0c 53d1 	and.w	r3, ip, r1, lsr #23
 80005e4:	ea92 0f0c 	teq	r2, ip
 80005e8:	d108      	bne.n	80005fc <__aeabi_fdiv+0x108>
 80005ea:	0242      	lsls	r2, r0, #9
 80005ec:	f47f af7d 	bne.w	80004ea <__aeabi_fmul+0x15e>
 80005f0:	ea93 0f0c 	teq	r3, ip
 80005f4:	f47f af70 	bne.w	80004d8 <__aeabi_fmul+0x14c>
 80005f8:	4608      	mov	r0, r1
 80005fa:	e776      	b.n	80004ea <__aeabi_fmul+0x15e>
 80005fc:	ea93 0f0c 	teq	r3, ip
 8000600:	d104      	bne.n	800060c <__aeabi_fdiv+0x118>
 8000602:	024b      	lsls	r3, r1, #9
 8000604:	f43f af4c 	beq.w	80004a0 <__aeabi_fmul+0x114>
 8000608:	4608      	mov	r0, r1
 800060a:	e76e      	b.n	80004ea <__aeabi_fmul+0x15e>
 800060c:	f030 4c00 	bics.w	ip, r0, #2147483648	@ 0x80000000
 8000610:	bf18      	it	ne
 8000612:	f031 4c00 	bicsne.w	ip, r1, #2147483648	@ 0x80000000
 8000616:	d1ca      	bne.n	80005ae <__aeabi_fdiv+0xba>
 8000618:	f030 4200 	bics.w	r2, r0, #2147483648	@ 0x80000000
 800061c:	f47f af5c 	bne.w	80004d8 <__aeabi_fmul+0x14c>
 8000620:	f031 4300 	bics.w	r3, r1, #2147483648	@ 0x80000000
 8000624:	f47f af3c 	bne.w	80004a0 <__aeabi_fmul+0x114>
 8000628:	e75f      	b.n	80004ea <__aeabi_fmul+0x15e>
 800062a:	bf00      	nop

0800062c <__gesf2>:
 800062c:	f04f 3cff 	mov.w	ip, #4294967295
 8000630:	e006      	b.n	8000640 <__cmpsf2+0x4>
 8000632:	bf00      	nop

08000634 <__lesf2>:
 8000634:	f04f 0c01 	mov.w	ip, #1
 8000638:	e002      	b.n	8000640 <__cmpsf2+0x4>
 800063a:	bf00      	nop

0800063c <__cmpsf2>:
 800063c:	f04f 0c01 	mov.w	ip, #1
 8000640:	f84d cd04 	str.w	ip, [sp, #-4]!
 8000644:	ea4f 0240 	mov.w	r2, r0, lsl #1
 8000648:	ea4f 0341 	mov.w	r3, r1, lsl #1
 800064c:	ea7f 6c22 	mvns.w	ip, r2, asr #24
 8000650:	bf18      	it	ne
 8000652:	ea7f 6c23 	mvnsne.w	ip, r3, asr #24
 8000656:	d011      	beq.n	800067c <__cmpsf2+0x40>
 8000658:	b001      	add	sp, #4
 800065a:	ea52 0c53 	orrs.w	ip, r2, r3, lsr #1
 800065e:	bf18      	it	ne
 8000660:	ea90 0f01 	teqne	r0, r1
 8000664:	bf58      	it	pl
 8000666:	ebb2 0003 	subspl.w	r0, r2, r3
 800066a:	bf88      	it	hi
 800066c:	17c8      	asrhi	r0, r1, #31
 800066e:	bf38      	it	cc
 8000670:	ea6f 70e1 	mvncc.w	r0, r1, asr #31
 8000674:	bf18      	it	ne
 8000676:	f040 0001 	orrne.w	r0, r0, #1
 800067a:	4770      	bx	lr
 800067c:	ea7f 6c22 	mvns.w	ip, r2, asr #24
 8000680:	d102      	bne.n	8000688 <__cmpsf2+0x4c>
 8000682:	ea5f 2c40 	movs.w	ip, r0, lsl #9
 8000686:	d105      	bne.n	8000694 <__cmpsf2+0x58>
 8000688:	ea7f 6c23 	mvns.w	ip, r3, asr #24
 800068c:	d1e4      	bne.n	8000658 <__cmpsf2+0x1c>
 800068e:	ea5f 2c41 	movs.w	ip, r1, lsl #9
 8000692:	d0e1      	beq.n	8000658 <__cmpsf2+0x1c>
 8000694:	f85d 0b04 	ldr.w	r0, [sp], #4
 8000698:	4770      	bx	lr
 800069a:	bf00      	nop

0800069c <__aeabi_cfrcmple>:
 800069c:	4684      	mov	ip, r0
 800069e:	4608      	mov	r0, r1
 80006a0:	4661      	mov	r1, ip
 80006a2:	e7ff      	b.n	80006a4 <__aeabi_cfcmpeq>

080006a4 <__aeabi_cfcmpeq>:
 80006a4:	b50f      	push	{r0, r1, r2, r3, lr}
 80006a6:	f7ff ffc9 	bl	800063c <__cmpsf2>
 80006aa:	2800      	cmp	r0, #0
 80006ac:	bf48      	it	mi
 80006ae:	f110 0f00 	cmnmi.w	r0, #0
 80006b2:	bd0f      	pop	{r0, r1, r2, r3, pc}

080006b4 <__aeabi_fcmpeq>:
 80006b4:	f84d ed08 	str.w	lr, [sp, #-8]!
 80006b8:	f7ff fff4 	bl	80006a4 <__aeabi_cfcmpeq>
 80006bc:	bf0c      	ite	eq
 80006be:	2001      	moveq	r0, #1
 80006c0:	2000      	movne	r0, #0
 80006c2:	f85d fb08 	ldr.w	pc, [sp], #8
 80006c6:	bf00      	nop

080006c8 <__aeabi_fcmplt>:
 80006c8:	f84d ed08 	str.w	lr, [sp, #-8]!
 80006cc:	f7ff ffea 	bl	80006a4 <__aeabi_cfcmpeq>
 80006d0:	bf34      	ite	cc
 80006d2:	2001      	movcc	r0, #1
 80006d4:	2000      	movcs	r0, #0
 80006d6:	f85d fb08 	ldr.w	pc, [sp], #8
 80006da:	bf00      	nop

080006dc <__aeabi_fcmple>:
 80006dc:	f84d ed08 	str.w	lr, [sp, #-8]!
 80006e0:	f7ff ffe0 	bl	80006a4 <__aeabi_cfcmpeq>
 80006e4:	bf94      	ite	ls
 80006e6:	2001      	movls	r0, #1
 80006e8:	2000      	movhi	r0, #0
 80006ea:	f85d fb08 	ldr.w	pc, [sp], #8
 80006ee:	bf00      	nop

080006f0 <__aeabi_fcmpge>:
 80006f0:	f84d ed08 	str.w	lr, [sp, #-8]!
 80006f4:	f7ff ffd2 	bl	800069c <__aeabi_cfrcmple>
 80006f8:	bf94      	ite	ls
 80006fa:	2001      	movls	r0, #1
 80006fc:	2000      	movhi	r0, #0
 80006fe:	f85d fb08 	ldr.w	pc, [sp], #8
 8000702:	bf00      	nop

08000704 <__aeabi_fcmpgt>:
 8000704:	f84d ed08 	str.w	lr, [sp, #-8]!
 8000708:	f7ff ffc8 	bl	800069c <__aeabi_cfrcmple>
 800070c:	bf34      	ite	cc
 800070e:	2001      	movcc	r0, #1
 8000710:	2000      	movcs	r0, #0
 8000712:	f85d fb08 	ldr.w	pc, [sp], #8
 8000716:	bf00      	nop

08000718 <__aeabi_f2uiz>:
 8000718:	0042      	lsls	r2, r0, #1
 800071a:	d20e      	bcs.n	800073a <__aeabi_f2uiz+0x22>
 800071c:	f1b2 4ffe 	cmp.w	r2, #2130706432	@ 0x7f000000
 8000720:	d30b      	bcc.n	800073a <__aeabi_f2uiz+0x22>
 8000722:	f04f 039e 	mov.w	r3, #158	@ 0x9e
 8000726:	ebb3 6212 	subs.w	r2, r3, r2, lsr #24
 800072a:	d409      	bmi.n	8000740 <__aeabi_f2uiz+0x28>
 800072c:	ea4f 2300 	mov.w	r3, r0, lsl #8
 8000730:	f043 4300 	orr.w	r3, r3, #2147483648	@ 0x80000000
 8000734:	fa23 f002 	lsr.w	r0, r3, r2
 8000738:	4770      	bx	lr
 800073a:	f04f 0000 	mov.w	r0, #0
 800073e:	4770      	bx	lr
 8000740:	f112 0f61 	cmn.w	r2, #97	@ 0x61
 8000744:	d101      	bne.n	800074a <__aeabi_f2uiz+0x32>
 8000746:	0242      	lsls	r2, r0, #9
 8000748:	d102      	bne.n	8000750 <__aeabi_f2uiz+0x38>
 800074a:	f04f 30ff 	mov.w	r0, #4294967295
 800074e:	4770      	bx	lr
 8000750:	f04f 0000 	mov.w	r0, #0
 8000754:	4770      	bx	lr
 8000756:	bf00      	nop

08000758 <__aeabi_uldivmod>:
 8000758:	b953      	cbnz	r3, 8000770 <__aeabi_uldivmod+0x18>
 800075a:	b94a      	cbnz	r2, 8000770 <__aeabi_uldivmod+0x18>
 800075c:	2900      	cmp	r1, #0
 800075e:	bf08      	it	eq
 8000760:	2800      	cmpeq	r0, #0
 8000762:	bf1c      	itt	ne
 8000764:	f04f 31ff 	movne.w	r1, #4294967295
 8000768:	f04f 30ff 	movne.w	r0, #4294967295
 800076c:	f000 b98c 	b.w	8000a88 <__aeabi_idiv0>
 8000770:	f1ad 0c08 	sub.w	ip, sp, #8
 8000774:	e96d ce04 	strd	ip, lr, [sp, #-16]!
 8000778:	f000 f806 	bl	8000788 <__udivmoddi4>
 800077c:	f8dd e004 	ldr.w	lr, [sp, #4]
 8000780:	e9dd 2302 	ldrd	r2, r3, [sp, #8]
 8000784:	b004      	add	sp, #16
 8000786:	4770      	bx	lr

08000788 <__udivmoddi4>:
 8000788:	e92d 47f0 	stmdb	sp!, {r4, r5, r6, r7, r8, r9, sl, lr}
 800078c:	9d08      	ldr	r5, [sp, #32]
 800078e:	468e      	mov	lr, r1
 8000790:	4604      	mov	r4, r0
 8000792:	4688      	mov	r8, r1
 8000794:	2b00      	cmp	r3, #0
 8000796:	d14a      	bne.n	800082e <__udivmoddi4+0xa6>
 8000798:	428a      	cmp	r2, r1
 800079a:	4617      	mov	r7, r2
 800079c:	d962      	bls.n	8000864 <__udivmoddi4+0xdc>
 800079e:	fab2 f682 	clz	r6, r2
 80007a2:	b14e      	cbz	r6, 80007b8 <__udivmoddi4+0x30>
 80007a4:	f1c6 0320 	rsb	r3, r6, #32
 80007a8:	fa01 f806 	lsl.w	r8, r1, r6
 80007ac:	fa20 f303 	lsr.w	r3, r0, r3
 80007b0:	40b7      	lsls	r7, r6
 80007b2:	ea43 0808 	orr.w	r8, r3, r8
 80007b6:	40b4      	lsls	r4, r6
 80007b8:	ea4f 4e17 	mov.w	lr, r7, lsr #16
 80007bc:	fbb8 f1fe 	udiv	r1, r8, lr
 80007c0:	fa1f fc87 	uxth.w	ip, r7
 80007c4:	fb0e 8811 	mls	r8, lr, r1, r8
 80007c8:	fb01 f20c 	mul.w	r2, r1, ip
 80007cc:	0c23      	lsrs	r3, r4, #16
 80007ce:	ea43 4308 	orr.w	r3, r3, r8, lsl #16
 80007d2:	429a      	cmp	r2, r3
 80007d4:	d909      	bls.n	80007ea <__udivmoddi4+0x62>
 80007d6:	18fb      	adds	r3, r7, r3
 80007d8:	f101 30ff 	add.w	r0, r1, #4294967295
 80007dc:	f080 80eb 	bcs.w	80009b6 <__udivmoddi4+0x22e>
 80007e0:	429a      	cmp	r2, r3
 80007e2:	f240 80e8 	bls.w	80009b6 <__udivmoddi4+0x22e>
 80007e6:	3902      	subs	r1, #2
 80007e8:	443b      	add	r3, r7
 80007ea:	1a9a      	subs	r2, r3, r2
 80007ec:	fbb2 f0fe 	udiv	r0, r2, lr
 80007f0:	fb0e 2210 	mls	r2, lr, r0, r2
 80007f4:	fb00 fc0c 	mul.w	ip, r0, ip
 80007f8:	b2a3      	uxth	r3, r4
 80007fa:	ea43 4302 	orr.w	r3, r3, r2, lsl #16
 80007fe:	459c      	cmp	ip, r3
 8000800:	d909      	bls.n	8000816 <__udivmoddi4+0x8e>
 8000802:	18fb      	adds	r3, r7, r3
 8000804:	f100 32ff 	add.w	r2, r0, #4294967295
 8000808:	f080 80d7 	bcs.w	80009ba <__udivmoddi4+0x232>
 800080c:	459c      	cmp	ip, r3
 800080e:	f240 80d4 	bls.w	80009ba <__udivmoddi4+0x232>
 8000812:	443b      	add	r3, r7
 8000814:	3802      	subs	r0, #2
 8000816:	ea40 4001 	orr.w	r0, r0, r1, lsl #16
 800081a:	2100      	movs	r1, #0
 800081c:	eba3 030c 	sub.w	r3, r3, ip
 8000820:	b11d      	cbz	r5, 800082a <__udivmoddi4+0xa2>
 8000822:	2200      	movs	r2, #0
 8000824:	40f3      	lsrs	r3, r6
 8000826:	e9c5 3200 	strd	r3, r2, [r5]
 800082a:	e8bd 87f0 	ldmia.w	sp!, {r4, r5, r6, r7, r8, r9, sl, pc}
 800082e:	428b      	cmp	r3, r1
 8000830:	d905      	bls.n	800083e <__udivmoddi4+0xb6>
 8000832:	b10d      	cbz	r5, 8000838 <__udivmoddi4+0xb0>
 8000834:	e9c5 0100 	strd	r0, r1, [r5]
 8000838:	2100      	movs	r1, #0
 800083a:	4608      	mov	r0, r1
 800083c:	e7f5      	b.n	800082a <__udivmoddi4+0xa2>
 800083e:	fab3 f183 	clz	r1, r3
 8000842:	2900      	cmp	r1, #0
 8000844:	d146      	bne.n	80008d4 <__udivmoddi4+0x14c>
 8000846:	4573      	cmp	r3, lr
 8000848:	d302      	bcc.n	8000850 <__udivmoddi4+0xc8>
 800084a:	4282      	cmp	r2, r0
 800084c:	f200 8108 	bhi.w	8000a60 <__udivmoddi4+0x2d8>
 8000850:	1a84      	subs	r4, r0, r2
 8000852:	eb6e 0203 	sbc.w	r2, lr, r3
 8000856:	2001      	movs	r0, #1
 8000858:	4690      	mov	r8, r2
 800085a:	2d00      	cmp	r5, #0
 800085c:	d0e5      	beq.n	800082a <__udivmoddi4+0xa2>
 800085e:	e9c5 4800 	strd	r4, r8, [r5]
 8000862:	e7e2      	b.n	800082a <__udivmoddi4+0xa2>
 8000864:	2a00      	cmp	r2, #0
 8000866:	f000 8091 	beq.w	800098c <__udivmoddi4+0x204>
 800086a:	fab2 f682 	clz	r6, r2
 800086e:	2e00      	cmp	r6, #0
 8000870:	f040 80a5 	bne.w	80009be <__udivmoddi4+0x236>
 8000874:	1a8a      	subs	r2, r1, r2
 8000876:	2101      	movs	r1, #1
 8000878:	0c03      	lsrs	r3, r0, #16
 800087a:	ea4f 4e17 	mov.w	lr, r7, lsr #16
 800087e:	b280      	uxth	r0, r0
 8000880:	b2bc      	uxth	r4, r7
 8000882:	fbb2 fcfe 	udiv	ip, r2, lr
 8000886:	fb0e 221c 	mls	r2, lr, ip, r2
 800088a:	ea43 4302 	orr.w	r3, r3, r2, lsl #16
 800088e:	fb04 f20c 	mul.w	r2, r4, ip
 8000892:	429a      	cmp	r2, r3
 8000894:	d907      	bls.n	80008a6 <__udivmoddi4+0x11e>
 8000896:	18fb      	adds	r3, r7, r3
 8000898:	f10c 38ff 	add.w	r8, ip, #4294967295
 800089c:	d202      	bcs.n	80008a4 <__udivmoddi4+0x11c>
 800089e:	429a      	cmp	r2, r3
 80008a0:	f200 80e3 	bhi.w	8000a6a <__udivmoddi4+0x2e2>
 80008a4:	46c4      	mov	ip, r8
 80008a6:	1a9b      	subs	r3, r3, r2
 80008a8:	fbb3 f2fe 	udiv	r2, r3, lr
 80008ac:	fb0e 3312 	mls	r3, lr, r2, r3
 80008b0:	fb02 f404 	mul.w	r4, r2, r4
 80008b4:	ea40 4303 	orr.w	r3, r0, r3, lsl #16
 80008b8:	429c      	cmp	r4, r3
 80008ba:	d907      	bls.n	80008cc <__udivmoddi4+0x144>
 80008bc:	18fb      	adds	r3, r7, r3
 80008be:	f102 30ff 	add.w	r0, r2, #4294967295
 80008c2:	d202      	bcs.n	80008ca <__udivmoddi4+0x142>
 80008c4:	429c      	cmp	r4, r3
 80008c6:	f200 80cd 	bhi.w	8000a64 <__udivmoddi4+0x2dc>
 80008ca:	4602      	mov	r2, r0
 80008cc:	1b1b      	subs	r3, r3, r4
 80008ce:	ea42 400c 	orr.w	r0, r2, ip, lsl #16
 80008d2:	e7a5      	b.n	8000820 <__udivmoddi4+0x98>
 80008d4:	f1c1 0620 	rsb	r6, r1, #32
 80008d8:	408b      	lsls	r3, r1
 80008da:	fa22 f706 	lsr.w	r7, r2, r6
 80008de:	431f      	orrs	r7, r3
 80008e0:	fa2e fa06 	lsr.w	sl, lr, r6
 80008e4:	ea4f 4917 	mov.w	r9, r7, lsr #16
 80008e8:	fbba f8f9 	udiv	r8, sl, r9
 80008ec:	fa0e fe01 	lsl.w	lr, lr, r1
 80008f0:	fa20 f306 	lsr.w	r3, r0, r6
 80008f4:	fb09 aa18 	mls	sl, r9, r8, sl
 80008f8:	fa1f fc87 	uxth.w	ip, r7
 80008fc:	ea43 030e 	orr.w	r3, r3, lr
 8000900:	fa00 fe01 	lsl.w	lr, r0, r1
 8000904:	fb08 f00c 	mul.w	r0, r8, ip
 8000908:	0c1c      	lsrs	r4, r3, #16
 800090a:	ea44 440a 	orr.w	r4, r4, sl, lsl #16
 800090e:	42a0      	cmp	r0, r4
 8000910:	fa02 f201 	lsl.w	r2, r2, r1
 8000914:	d90a      	bls.n	800092c <__udivmoddi4+0x1a4>
 8000916:	193c      	adds	r4, r7, r4
 8000918:	f108 3aff 	add.w	sl, r8, #4294967295
 800091c:	f080 809e 	bcs.w	8000a5c <__udivmoddi4+0x2d4>
 8000920:	42a0      	cmp	r0, r4
 8000922:	f240 809b 	bls.w	8000a5c <__udivmoddi4+0x2d4>
 8000926:	f1a8 0802 	sub.w	r8, r8, #2
 800092a:	443c      	add	r4, r7
 800092c:	1a24      	subs	r4, r4, r0
 800092e:	b298      	uxth	r0, r3
 8000930:	fbb4 f3f9 	udiv	r3, r4, r9
 8000934:	fb09 4413 	mls	r4, r9, r3, r4
 8000938:	fb03 fc0c 	mul.w	ip, r3, ip
 800093c:	ea40 4404 	orr.w	r4, r0, r4, lsl #16
 8000940:	45a4      	cmp	ip, r4
 8000942:	d909      	bls.n	8000958 <__udivmoddi4+0x1d0>
 8000944:	193c      	adds	r4, r7, r4
 8000946:	f103 30ff 	add.w	r0, r3, #4294967295
 800094a:	f080 8085 	bcs.w	8000a58 <__udivmoddi4+0x2d0>
 800094e:	45a4      	cmp	ip, r4
 8000950:	f240 8082 	bls.w	8000a58 <__udivmoddi4+0x2d0>
 8000954:	3b02      	subs	r3, #2
 8000956:	443c      	add	r4, r7
 8000958:	ea43 4008 	orr.w	r0, r3, r8, lsl #16
 800095c:	eba4 040c 	sub.w	r4, r4, ip
 8000960:	fba0 8c02 	umull	r8, ip, r0, r2
 8000964:	4564      	cmp	r4, ip
 8000966:	4643      	mov	r3, r8
 8000968:	46e1      	mov	r9, ip
 800096a:	d364      	bcc.n	8000a36 <__udivmoddi4+0x2ae>
 800096c:	d061      	beq.n	8000a32 <__udivmoddi4+0x2aa>
 800096e:	b15d      	cbz	r5, 8000988 <__udivmoddi4+0x200>
 8000970:	ebbe 0203 	subs.w	r2, lr, r3
 8000974:	eb64 0409 	sbc.w	r4, r4, r9
 8000978:	fa04 f606 	lsl.w	r6, r4, r6
 800097c:	fa22 f301 	lsr.w	r3, r2, r1
 8000980:	431e      	orrs	r6, r3
 8000982:	40cc      	lsrs	r4, r1
 8000984:	e9c5 6400 	strd	r6, r4, [r5]
 8000988:	2100      	movs	r1, #0
 800098a:	e74e      	b.n	800082a <__udivmoddi4+0xa2>
 800098c:	fbb1 fcf2 	udiv	ip, r1, r2
 8000990:	0c01      	lsrs	r1, r0, #16
 8000992:	ea41 410e 	orr.w	r1, r1, lr, lsl #16
 8000996:	b280      	uxth	r0, r0
 8000998:	ea40 4201 	orr.w	r2, r0, r1, lsl #16
 800099c:	463b      	mov	r3, r7
 800099e:	fbb1 f1f7 	udiv	r1, r1, r7
 80009a2:	4638      	mov	r0, r7
 80009a4:	463c      	mov	r4, r7
 80009a6:	46b8      	mov	r8, r7
 80009a8:	46be      	mov	lr, r7
 80009aa:	2620      	movs	r6, #32
 80009ac:	eba2 0208 	sub.w	r2, r2, r8
 80009b0:	ea41 410c 	orr.w	r1, r1, ip, lsl #16
 80009b4:	e765      	b.n	8000882 <__udivmoddi4+0xfa>
 80009b6:	4601      	mov	r1, r0
 80009b8:	e717      	b.n	80007ea <__udivmoddi4+0x62>
 80009ba:	4610      	mov	r0, r2
 80009bc:	e72b      	b.n	8000816 <__udivmoddi4+0x8e>
 80009be:	f1c6 0120 	rsb	r1, r6, #32
 80009c2:	fa2e fc01 	lsr.w	ip, lr, r1
 80009c6:	40b7      	lsls	r7, r6
 80009c8:	fa0e fe06 	lsl.w	lr, lr, r6
 80009cc:	fa20 f101 	lsr.w	r1, r0, r1
 80009d0:	ea41 010e 	orr.w	r1, r1, lr
 80009d4:	ea4f 4e17 	mov.w	lr, r7, lsr #16
 80009d8:	fbbc f8fe 	udiv	r8, ip, lr
 80009dc:	b2bc      	uxth	r4, r7
 80009de:	fb0e cc18 	mls	ip, lr, r8, ip
 80009e2:	fb08 f904 	mul.w	r9, r8, r4
 80009e6:	0c0a      	lsrs	r2, r1, #16
 80009e8:	ea42 420c 	orr.w	r2, r2, ip, lsl #16
 80009ec:	40b0      	lsls	r0, r6
 80009ee:	4591      	cmp	r9, r2
 80009f0:	ea4f 4310 	mov.w	r3, r0, lsr #16
 80009f4:	b280      	uxth	r0, r0
 80009f6:	d93e      	bls.n	8000a76 <__udivmoddi4+0x2ee>
 80009f8:	18ba      	adds	r2, r7, r2
 80009fa:	f108 3cff 	add.w	ip, r8, #4294967295
 80009fe:	d201      	bcs.n	8000a04 <__udivmoddi4+0x27c>
 8000a00:	4591      	cmp	r9, r2
 8000a02:	d81f      	bhi.n	8000a44 <__udivmoddi4+0x2bc>
 8000a04:	eba2 0209 	sub.w	r2, r2, r9
 8000a08:	fbb2 f9fe 	udiv	r9, r2, lr
 8000a0c:	fb09 f804 	mul.w	r8, r9, r4
 8000a10:	fb0e 2a19 	mls	sl, lr, r9, r2
 8000a14:	b28a      	uxth	r2, r1
 8000a16:	ea42 420a 	orr.w	r2, r2, sl, lsl #16
 8000a1a:	4542      	cmp	r2, r8
 8000a1c:	d229      	bcs.n	8000a72 <__udivmoddi4+0x2ea>
 8000a1e:	18ba      	adds	r2, r7, r2
 8000a20:	f109 31ff 	add.w	r1, r9, #4294967295
 8000a24:	d2c2      	bcs.n	80009ac <__udivmoddi4+0x224>
 8000a26:	4542      	cmp	r2, r8
 8000a28:	d2c0      	bcs.n	80009ac <__udivmoddi4+0x224>
 8000a2a:	f1a9 0102 	sub.w	r1, r9, #2
 8000a2e:	443a      	add	r2, r7
 8000a30:	e7bc      	b.n	80009ac <__udivmoddi4+0x224>
 8000a32:	45c6      	cmp	lr, r8
 8000a34:	d29b      	bcs.n	800096e <__udivmoddi4+0x1e6>
 8000a36:	ebb8 0302 	subs.w	r3, r8, r2
 8000a3a:	eb6c 0c07 	sbc.w	ip, ip, r7
 8000a3e:	3801      	subs	r0, #1
 8000a40:	46e1      	mov	r9, ip
 8000a42:	e794      	b.n	800096e <__udivmoddi4+0x1e6>
 8000a44:	eba7 0909 	sub.w	r9, r7, r9
 8000a48:	444a      	add	r2, r9
 8000a4a:	fbb2 f9fe 	udiv	r9, r2, lr
 8000a4e:	f1a8 0c02 	sub.w	ip, r8, #2
 8000a52:	fb09 f804 	mul.w	r8, r9, r4
 8000a56:	e7db      	b.n	8000a10 <__udivmoddi4+0x288>
 8000a58:	4603      	mov	r3, r0
 8000a5a:	e77d      	b.n	8000958 <__udivmoddi4+0x1d0>
 8000a5c:	46d0      	mov	r8, sl
 8000a5e:	e765      	b.n	800092c <__udivmoddi4+0x1a4>
 8000a60:	4608      	mov	r0, r1
 8000a62:	e6fa      	b.n	800085a <__udivmoddi4+0xd2>
 8000a64:	443b      	add	r3, r7
 8000a66:	3a02      	subs	r2, #2
 8000a68:	e730      	b.n	80008cc <__udivmoddi4+0x144>
 8000a6a:	f1ac 0c02 	sub.w	ip, ip, #2
 8000a6e:	443b      	add	r3, r7
 8000a70:	e719      	b.n	80008a6 <__udivmoddi4+0x11e>
 8000a72:	4649      	mov	r1, r9
 8000a74:	e79a      	b.n	80009ac <__udivmoddi4+0x224>
 8000a76:	eba2 0209 	sub.w	r2, r2, r9
 8000a7a:	fbb2 f9fe 	udiv	r9, r2, lr
 8000a7e:	46c4      	mov	ip, r8
 8000a80:	fb09 f804 	mul.w	r8, r9, r4
 8000a84:	e7c4      	b.n	8000a10 <__udivmoddi4+0x288>
 8000a86:	bf00      	nop

08000a88 <__aeabi_idiv0>:
 8000a88:	4770      	bx	lr
 8000a8a:	bf00      	nop

08000a8c <readChannelVoltage>:

static char dataPacketTx[16];

/* --- helper: sample one channel --- */
static float readChannelVoltage(ADC_HandleTypeDef *hadc, uint32_t channel)
{
 8000a8c:	b580      	push	{r7, lr}
 8000a8e:	b088      	sub	sp, #32
 8000a90:	af00      	add	r7, sp, #0
 8000a92:	6078      	str	r0, [r7, #4]
 8000a94:	6039      	str	r1, [r7, #0]
    ADC_ChannelConfTypeDef sConfig = {0};
 8000a96:	f107 030c 	add.w	r3, r7, #12
 8000a9a:	2200      	movs	r2, #0
 8000a9c:	601a      	str	r2, [r3, #0]
 8000a9e:	605a      	str	r2, [r3, #4]
 8000aa0:	609a      	str	r2, [r3, #8]
    sConfig.Channel = channel;
 8000aa2:	683b      	ldr	r3, [r7, #0]
 8000aa4:	60fb      	str	r3, [r7, #12]
    sConfig.Rank = 1;
 8000aa6:	2301      	movs	r3, #1
 8000aa8:	613b      	str	r3, [r7, #16]
    sConfig.SamplingTime = ADC_SAMPLETIME_71CYCLES_5;
 8000aaa:	2306      	movs	r3, #6
 8000aac:	617b      	str	r3, [r7, #20]

    if (HAL_ADC_ConfigChannel(hadc, &sConfig) != HAL_OK)
 8000aae:	f107 030c 	add.w	r3, r7, #12
 8000ab2:	4619      	mov	r1, r3
 8000ab4:	6878      	ldr	r0, [r7, #4]
 8000ab6:	f003 fc0d 	bl	80042d4 <HAL_ADC_ConfigChannel>
 8000aba:	4603      	mov	r3, r0
 8000abc:	2b00      	cmp	r3, #0
 8000abe:	d002      	beq.n	8000ac6 <readChannelVoltage+0x3a>
        return 0.0f;
 8000ac0:	f04f 0300 	mov.w	r3, #0
 8000ac4:	e029      	b.n	8000b1a <readChannelVoltage+0x8e>
    if (HAL_ADC_Start(hadc) != HAL_OK)
 8000ac6:	6878      	ldr	r0, [r7, #4]
 8000ac8:	f003 fa18 	bl	8003efc <HAL_ADC_Start>
 8000acc:	4603      	mov	r3, r0
 8000ace:	2b00      	cmp	r3, #0
 8000ad0:	d002      	beq.n	8000ad8 <readChannelVoltage+0x4c>
        return 0.0f;
 8000ad2:	f04f 0300 	mov.w	r3, #0
 8000ad6:	e020      	b.n	8000b1a <readChannelVoltage+0x8e>

    float v = 0.0f;
 8000ad8:	f04f 0300 	mov.w	r3, #0
 8000adc:	61fb      	str	r3, [r7, #28]
    if (HAL_ADC_PollForConversion(hadc, 10) == HAL_OK)
 8000ade:	210a      	movs	r1, #10
 8000ae0:	6878      	ldr	r0, [r7, #4]
 8000ae2:	f003 fae5 	bl	80040b0 <HAL_ADC_PollForConversion>
 8000ae6:	4603      	mov	r3, r0
 8000ae8:	2b00      	cmp	r3, #0
 8000aea:	d112      	bne.n	8000b12 <readChannelVoltage+0x86>
    {
        uint32_t raw = HAL_ADC_GetValue(hadc);
 8000aec:	6878      	ldr	r0, [r7, #4]
 8000aee:	f003 fbe5 	bl	80042bc <HAL_ADC_GetValue>
 8000af2:	61b8      	str	r0, [r7, #24]
        v = (raw * 3.3f) / 4095.0f;
 8000af4:	69b8      	ldr	r0, [r7, #24]
 8000af6:	f7ff fbf1 	bl	80002dc <__aeabi_ui2f>
 8000afa:	4603      	mov	r3, r0
 8000afc:	4909      	ldr	r1, [pc, #36]	@ (8000b24 <readChannelVoltage+0x98>)
 8000afe:	4618      	mov	r0, r3
 8000b00:	f7ff fc44 	bl	800038c <__aeabi_fmul>
 8000b04:	4603      	mov	r3, r0
 8000b06:	4908      	ldr	r1, [pc, #32]	@ (8000b28 <readChannelVoltage+0x9c>)
 8000b08:	4618      	mov	r0, r3
 8000b0a:	f7ff fcf3 	bl	80004f4 <__aeabi_fdiv>
 8000b0e:	4603      	mov	r3, r0
 8000b10:	61fb      	str	r3, [r7, #28]
    }
    HAL_ADC_Stop(hadc);
 8000b12:	6878      	ldr	r0, [r7, #4]
 8000b14:	f003 faa0 	bl	8004058 <HAL_ADC_Stop>
    return v;
 8000b18:	69fb      	ldr	r3, [r7, #28]
}
 8000b1a:	4618      	mov	r0, r3
 8000b1c:	3720      	adds	r7, #32
 8000b1e:	46bd      	mov	sp, r7
 8000b20:	bd80      	pop	{r7, pc}
 8000b22:	bf00      	nop
 8000b24:	40533333 	.word	0x40533333
 8000b28:	457ff000 	.word	0x457ff000

08000b2c <ADC_Init>:

/* --- Public API --- */
void ADC_Init(ADC_HandleTypeDef* hadc)
{
 8000b2c:	b580      	push	{r7, lr}
 8000b2e:	b082      	sub	sp, #8
 8000b30:	af00      	add	r7, sp, #0
 8000b32:	6078      	str	r0, [r7, #4]
    if (HAL_ADCEx_Calibration_Start(hadc) != HAL_OK)
 8000b34:	6878      	ldr	r0, [r7, #4]
 8000b36:	f003 fd61 	bl	80045fc <HAL_ADCEx_Calibration_Start>
 8000b3a:	4603      	mov	r3, r0
 8000b3c:	2b00      	cmp	r3, #0
 8000b3e:	d001      	beq.n	8000b44 <ADC_Init+0x18>
    {
        Error_Handler();
 8000b40:	f001 f93e 	bl	8001dc0 <Error_Handler>
    }
}
 8000b44:	bf00      	nop
 8000b46:	3708      	adds	r7, #8
 8000b48:	46bd      	mov	sp, r7
 8000b4a:	bd80      	pop	{r7, pc}

08000b4c <ADC_ReadAllChannels>:

void ADC_ReadAllChannels(ADC_HandleTypeDef* hadc, ADC_Data* data)
{
 8000b4c:	b5b0      	push	{r4, r5, r7, lr}
 8000b4e:	b0a6      	sub	sp, #152	@ 0x98
 8000b50:	af00      	add	r7, sp, #0
 8000b52:	6078      	str	r0, [r7, #4]
 8000b54:	6039      	str	r1, [r7, #0]
    bool changed = false;
 8000b56:	2300      	movs	r3, #0
 8000b58:	f887 3097 	strb.w	r3, [r7, #151]	@ 0x97

    for (uint8_t i = 0; i < ADC_CHANNEL_COUNT; i++)
 8000b5c:	2300      	movs	r3, #0
 8000b5e:	f887 3096 	strb.w	r3, [r7, #150]	@ 0x96
 8000b62:	e147      	b.n	8000df4 <ADC_ReadAllChannels+0x2a8>
    {
        float v = readChannelVoltage(hadc, adcChannels[i]);
 8000b64:	f897 3096 	ldrb.w	r3, [r7, #150]	@ 0x96
 8000b68:	4aba      	ldr	r2, [pc, #744]	@ (8000e54 <ADC_ReadAllChannels+0x308>)
 8000b6a:	f852 3023 	ldr.w	r3, [r2, r3, lsl #2]
 8000b6e:	4619      	mov	r1, r3
 8000b70:	6878      	ldr	r0, [r7, #4]
 8000b72:	f7ff ff8b 	bl	8000a8c <readChannelVoltage>
 8000b76:	f8c7 0090 	str.w	r0, [r7, #144]	@ 0x90

        if (s_filtered[i] == 0.0f)
 8000b7a:	f897 3096 	ldrb.w	r3, [r7, #150]	@ 0x96
 8000b7e:	4ab6      	ldr	r2, [pc, #728]	@ (8000e58 <ADC_ReadAllChannels+0x30c>)
 8000b80:	f852 3023 	ldr.w	r3, [r2, r3, lsl #2]
 8000b84:	f04f 0100 	mov.w	r1, #0
 8000b88:	4618      	mov	r0, r3
 8000b8a:	f7ff fd93 	bl	80006b4 <__aeabi_fcmpeq>
 8000b8e:	4603      	mov	r3, r0
 8000b90:	2b00      	cmp	r3, #0
 8000b92:	d007      	beq.n	8000ba4 <ADC_ReadAllChannels+0x58>
            s_filtered[i] = v;
 8000b94:	f897 3096 	ldrb.w	r3, [r7, #150]	@ 0x96
 8000b98:	49af      	ldr	r1, [pc, #700]	@ (8000e58 <ADC_ReadAllChannels+0x30c>)
 8000b9a:	f8d7 2090 	ldr.w	r2, [r7, #144]	@ 0x90
 8000b9e:	f841 2023 	str.w	r2, [r1, r3, lsl #2]
 8000ba2:	e01b      	b.n	8000bdc <ADC_ReadAllChannels+0x90>
        else
            s_filtered[i] = EMA_ALPHA * v + (1 - EMA_ALPHA) * s_filtered[i];
 8000ba4:	49ad      	ldr	r1, [pc, #692]	@ (8000e5c <ADC_ReadAllChannels+0x310>)
 8000ba6:	f8d7 0090 	ldr.w	r0, [r7, #144]	@ 0x90
 8000baa:	f7ff fbef 	bl	800038c <__aeabi_fmul>
 8000bae:	4603      	mov	r3, r0
 8000bb0:	461d      	mov	r5, r3
 8000bb2:	f897 3096 	ldrb.w	r3, [r7, #150]	@ 0x96
 8000bb6:	4aa8      	ldr	r2, [pc, #672]	@ (8000e58 <ADC_ReadAllChannels+0x30c>)
 8000bb8:	f852 3023 	ldr.w	r3, [r2, r3, lsl #2]
 8000bbc:	49a8      	ldr	r1, [pc, #672]	@ (8000e60 <ADC_ReadAllChannels+0x314>)
 8000bbe:	4618      	mov	r0, r3
 8000bc0:	f7ff fbe4 	bl	800038c <__aeabi_fmul>
 8000bc4:	4603      	mov	r3, r0
 8000bc6:	f897 4096 	ldrb.w	r4, [r7, #150]	@ 0x96
 8000bca:	4619      	mov	r1, r3
 8000bcc:	4628      	mov	r0, r5
 8000bce:	f7ff fad5 	bl	800017c <__addsf3>
 8000bd2:	4603      	mov	r3, r0
 8000bd4:	461a      	mov	r2, r3
 8000bd6:	4ba0      	ldr	r3, [pc, #640]	@ (8000e58 <ADC_ReadAllChannels+0x30c>)
 8000bd8:	f843 2024 	str.w	r2, [r3, r4, lsl #2]

        v = s_filtered[i];
 8000bdc:	f897 3096 	ldrb.w	r3, [r7, #150]	@ 0x96
 8000be0:	4a9d      	ldr	r2, [pc, #628]	@ (8000e58 <ADC_ReadAllChannels+0x30c>)
 8000be2:	f852 3023 	ldr.w	r3, [r2, r3, lsl #2]
 8000be6:	f8c7 3090 	str.w	r3, [r7, #144]	@ 0x90

        if (v < GROUND_THRESHOLD)
 8000bea:	f04f 517c 	mov.w	r1, #1056964608	@ 0x3f000000
 8000bee:	f8d7 0090 	ldr.w	r0, [r7, #144]	@ 0x90
 8000bf2:	f7ff fd69 	bl	80006c8 <__aeabi_fcmplt>
 8000bf6:	4603      	mov	r3, r0
 8000bf8:	2b00      	cmp	r3, #0
 8000bfa:	d003      	beq.n	8000c04 <ADC_ReadAllChannels+0xb8>
            v = 0.0f;
 8000bfc:	f04f 0300 	mov.w	r3, #0
 8000c00:	f8c7 3090 	str.w	r3, [r7, #144]	@ 0x90

        data->voltages[i] = v;
 8000c04:	f897 3096 	ldrb.w	r3, [r7, #150]	@ 0x96
 8000c08:	683a      	ldr	r2, [r7, #0]
 8000c0a:	3302      	adds	r3, #2
 8000c0c:	009b      	lsls	r3, r3, #2
 8000c0e:	4413      	add	r3, r2
 8000c10:	f8d7 2090 	ldr.w	r2, [r7, #144]	@ 0x90
 8000c14:	605a      	str	r2, [r3, #4]
        data->rawValues[i] = (uint16_t)((v * 4095.0f) / 3.3f);
 8000c16:	4993      	ldr	r1, [pc, #588]	@ (8000e64 <ADC_ReadAllChannels+0x318>)
 8000c18:	f8d7 0090 	ldr.w	r0, [r7, #144]	@ 0x90
 8000c1c:	f7ff fbb6 	bl	800038c <__aeabi_fmul>
 8000c20:	4603      	mov	r3, r0
 8000c22:	4991      	ldr	r1, [pc, #580]	@ (8000e68 <ADC_ReadAllChannels+0x31c>)
 8000c24:	4618      	mov	r0, r3
 8000c26:	f7ff fc65 	bl	80004f4 <__aeabi_fdiv>
 8000c2a:	4603      	mov	r3, r0
 8000c2c:	f897 4096 	ldrb.w	r4, [r7, #150]	@ 0x96
 8000c30:	4618      	mov	r0, r3
 8000c32:	f7ff fd71 	bl	8000718 <__aeabi_f2uiz>
 8000c36:	4603      	mov	r3, r0
 8000c38:	b29a      	uxth	r2, r3
 8000c3a:	683b      	ldr	r3, [r7, #0]
 8000c3c:	f823 2014 	strh.w	r2, [r3, r4, lsl #1]
        data->maxReached[i] = (v >= 3.2f);
 8000c40:	2301      	movs	r3, #1
 8000c42:	461c      	mov	r4, r3
 8000c44:	4989      	ldr	r1, [pc, #548]	@ (8000e6c <ADC_ReadAllChannels+0x320>)
 8000c46:	f8d7 0090 	ldr.w	r0, [r7, #144]	@ 0x90
 8000c4a:	f7ff fd51 	bl	80006f0 <__aeabi_fcmpge>
 8000c4e:	4603      	mov	r3, r0
 8000c50:	2b00      	cmp	r3, #0
 8000c52:	d101      	bne.n	8000c58 <ADC_ReadAllChannels+0x10c>
 8000c54:	2300      	movs	r3, #0
 8000c56:	461c      	mov	r4, r3
 8000c58:	b2e2      	uxtb	r2, r4
 8000c5a:	f897 3096 	ldrb.w	r3, [r7, #150]	@ 0x96
 8000c5e:	4611      	mov	r1, r2
 8000c60:	683a      	ldr	r2, [r7, #0]
 8000c62:	4413      	add	r3, r2
 8000c64:	460a      	mov	r2, r1
 8000c66:	f883 2024 	strb.w	r2, [r3, #36]	@ 0x24

        // ✅ NEW: export to debugger live
        g_adcVoltages[i] = v;
 8000c6a:	f897 3096 	ldrb.w	r3, [r7, #150]	@ 0x96
 8000c6e:	4980      	ldr	r1, [pc, #512]	@ (8000e70 <ADC_ReadAllChannels+0x324>)
 8000c70:	f8d7 2090 	ldr.w	r2, [r7, #144]	@ 0x90
 8000c74:	f841 2023 	str.w	r2, [r1, r3, lsl #2]

        if (fabsf(v - s_prev_volt[i]) > PRINT_DELTA) {
 8000c78:	f897 3096 	ldrb.w	r3, [r7, #150]	@ 0x96
 8000c7c:	4a7d      	ldr	r2, [pc, #500]	@ (8000e74 <ADC_ReadAllChannels+0x328>)
 8000c7e:	f852 3023 	ldr.w	r3, [r2, r3, lsl #2]
 8000c82:	4619      	mov	r1, r3
 8000c84:	f8d7 0090 	ldr.w	r0, [r7, #144]	@ 0x90
 8000c88:	f7ff fa76 	bl	8000178 <__aeabi_fsub>
 8000c8c:	4603      	mov	r3, r0
 8000c8e:	f023 4300 	bic.w	r3, r3, #2147483648	@ 0x80000000
 8000c92:	4979      	ldr	r1, [pc, #484]	@ (8000e78 <ADC_ReadAllChannels+0x32c>)
 8000c94:	4618      	mov	r0, r3
 8000c96:	f7ff fd35 	bl	8000704 <__aeabi_fcmpgt>
 8000c9a:	4603      	mov	r3, r0
 8000c9c:	2b00      	cmp	r3, #0
 8000c9e:	d009      	beq.n	8000cb4 <ADC_ReadAllChannels+0x168>
            changed = true;
 8000ca0:	2301      	movs	r3, #1
 8000ca2:	f887 3097 	strb.w	r3, [r7, #151]	@ 0x97
            s_prev_volt[i] = v;
 8000ca6:	f897 3096 	ldrb.w	r3, [r7, #150]	@ 0x96
 8000caa:	4972      	ldr	r1, [pc, #456]	@ (8000e74 <ADC_ReadAllChannels+0x328>)
 8000cac:	f8d7 2090 	ldr.w	r2, [r7, #144]	@ 0x90
 8000cb0:	f841 2023 	str.w	r2, [r1, r3, lsl #2]
        }

        /* --- threshold and debounce logic --- */
        if (!s_level_flags[i] && v >= THR)
 8000cb4:	f897 3096 	ldrb.w	r3, [r7, #150]	@ 0x96
 8000cb8:	4a70      	ldr	r2, [pc, #448]	@ (8000e7c <ADC_ReadAllChannels+0x330>)
 8000cba:	5cd3      	ldrb	r3, [r2, r3]
 8000cbc:	2b00      	cmp	r3, #0
 8000cbe:	d152      	bne.n	8000d66 <ADC_ReadAllChannels+0x21a>
 8000cc0:	f04f 517e 	mov.w	r1, #1065353216	@ 0x3f800000
 8000cc4:	f8d7 0090 	ldr.w	r0, [r7, #144]	@ 0x90
 8000cc8:	f7ff fd12 	bl	80006f0 <__aeabi_fcmpge>
 8000ccc:	4603      	mov	r3, r0
 8000cce:	2b00      	cmp	r3, #0
 8000cd0:	d049      	beq.n	8000d66 <ADC_ReadAllChannels+0x21a>
        {
            s_level_flags[i] = 1;
 8000cd2:	f897 3096 	ldrb.w	r3, [r7, #150]	@ 0x96
 8000cd6:	4a69      	ldr	r2, [pc, #420]	@ (8000e7c <ADC_ReadAllChannels+0x330>)
 8000cd8:	2101      	movs	r1, #1
 8000cda:	54d1      	strb	r1, [r2, r3]
            switch (i)
 8000cdc:	f897 3096 	ldrb.w	r3, [r7, #150]	@ 0x96
 8000ce0:	2b04      	cmp	r3, #4
 8000ce2:	d82b      	bhi.n	8000d3c <ADC_ReadAllChannels+0x1f0>
 8000ce4:	a201      	add	r2, pc, #4	@ (adr r2, 8000cec <ADC_ReadAllChannels+0x1a0>)
 8000ce6:	f852 f023 	ldr.w	pc, [r2, r3, lsl #2]
 8000cea:	bf00      	nop
 8000cec:	08000d01 	.word	0x08000d01
 8000cf0:	08000d0d 	.word	0x08000d0d
 8000cf4:	08000d19 	.word	0x08000d19
 8000cf8:	08000d25 	.word	0x08000d25
 8000cfc:	08000d31 	.word	0x08000d31
            {
                case 0: snprintf(dataPacketTx, sizeof(dataPacketTx), "@10W#"); break;
 8000d00:	4a5f      	ldr	r2, [pc, #380]	@ (8000e80 <ADC_ReadAllChannels+0x334>)
 8000d02:	2110      	movs	r1, #16
 8000d04:	485f      	ldr	r0, [pc, #380]	@ (8000e84 <ADC_ReadAllChannels+0x338>)
 8000d06:	f006 fe01 	bl	800790c <sniprintf>
 8000d0a:	e01b      	b.n	8000d44 <ADC_ReadAllChannels+0x1f8>
                case 1: snprintf(dataPacketTx, sizeof(dataPacketTx), "@30W#"); break;
 8000d0c:	4a5e      	ldr	r2, [pc, #376]	@ (8000e88 <ADC_ReadAllChannels+0x33c>)
 8000d0e:	2110      	movs	r1, #16
 8000d10:	485c      	ldr	r0, [pc, #368]	@ (8000e84 <ADC_ReadAllChannels+0x338>)
 8000d12:	f006 fdfb 	bl	800790c <sniprintf>
 8000d16:	e015      	b.n	8000d44 <ADC_ReadAllChannels+0x1f8>
                case 2: snprintf(dataPacketTx, sizeof(dataPacketTx), "@70W#"); break;
 8000d18:	4a5c      	ldr	r2, [pc, #368]	@ (8000e8c <ADC_ReadAllChannels+0x340>)
 8000d1a:	2110      	movs	r1, #16
 8000d1c:	4859      	ldr	r0, [pc, #356]	@ (8000e84 <ADC_ReadAllChannels+0x338>)
 8000d1e:	f006 fdf5 	bl	800790c <sniprintf>
 8000d22:	e00f      	b.n	8000d44 <ADC_ReadAllChannels+0x1f8>
                case 3: snprintf(dataPacketTx, sizeof(dataPacketTx), "@1:W#"); break;
 8000d24:	4a5a      	ldr	r2, [pc, #360]	@ (8000e90 <ADC_ReadAllChannels+0x344>)
 8000d26:	2110      	movs	r1, #16
 8000d28:	4856      	ldr	r0, [pc, #344]	@ (8000e84 <ADC_ReadAllChannels+0x338>)
 8000d2a:	f006 fdef 	bl	800790c <sniprintf>
 8000d2e:	e009      	b.n	8000d44 <ADC_ReadAllChannels+0x1f8>
                case 4: snprintf(dataPacketTx, sizeof(dataPacketTx), "@DRY#"); break;
 8000d30:	4a58      	ldr	r2, [pc, #352]	@ (8000e94 <ADC_ReadAllChannels+0x348>)
 8000d32:	2110      	movs	r1, #16
 8000d34:	4853      	ldr	r0, [pc, #332]	@ (8000e84 <ADC_ReadAllChannels+0x338>)
 8000d36:	f006 fde9 	bl	800790c <sniprintf>
 8000d3a:	e003      	b.n	8000d44 <ADC_ReadAllChannels+0x1f8>
                default: dataPacketTx[0] = '\0'; break;
 8000d3c:	4b51      	ldr	r3, [pc, #324]	@ (8000e84 <ADC_ReadAllChannels+0x338>)
 8000d3e:	2200      	movs	r2, #0
 8000d40:	701a      	strb	r2, [r3, #0]
 8000d42:	bf00      	nop
            }
            if (dataPacketTx[0])
 8000d44:	4b4f      	ldr	r3, [pc, #316]	@ (8000e84 <ADC_ReadAllChannels+0x338>)
 8000d46:	781b      	ldrb	r3, [r3, #0]
 8000d48:	2b00      	cmp	r3, #0
 8000d4a:	d003      	beq.n	8000d54 <ADC_ReadAllChannels+0x208>
                UART_TransmitString(&huart1, dataPacketTx);
 8000d4c:	494d      	ldr	r1, [pc, #308]	@ (8000e84 <ADC_ReadAllChannels+0x338>)
 8000d4e:	4852      	ldr	r0, [pc, #328]	@ (8000e98 <ADC_ReadAllChannels+0x34c>)
 8000d50:	f002 fefa 	bl	8003b48 <UART_TransmitString>

            motorStatus = 1;
 8000d54:	4b51      	ldr	r3, [pc, #324]	@ (8000e9c <ADC_ReadAllChannels+0x350>)
 8000d56:	2201      	movs	r2, #1
 8000d58:	701a      	strb	r2, [r3, #0]
            s_low_counts[i] = 0;
 8000d5a:	f897 3096 	ldrb.w	r3, [r7, #150]	@ 0x96
 8000d5e:	4a50      	ldr	r2, [pc, #320]	@ (8000ea0 <ADC_ReadAllChannels+0x354>)
 8000d60:	2100      	movs	r1, #0
 8000d62:	54d1      	strb	r1, [r2, r3]
 8000d64:	e012      	b.n	8000d8c <ADC_ReadAllChannels+0x240>
        }
        else if (s_level_flags[i] && v < (THR - HYST_DELTA))
 8000d66:	f897 3096 	ldrb.w	r3, [r7, #150]	@ 0x96
 8000d6a:	4a44      	ldr	r2, [pc, #272]	@ (8000e7c <ADC_ReadAllChannels+0x330>)
 8000d6c:	5cd3      	ldrb	r3, [r2, r3]
 8000d6e:	2b00      	cmp	r3, #0
 8000d70:	d00c      	beq.n	8000d8c <ADC_ReadAllChannels+0x240>
 8000d72:	494c      	ldr	r1, [pc, #304]	@ (8000ea4 <ADC_ReadAllChannels+0x358>)
 8000d74:	f8d7 0090 	ldr.w	r0, [r7, #144]	@ 0x90
 8000d78:	f7ff fca6 	bl	80006c8 <__aeabi_fcmplt>
 8000d7c:	4603      	mov	r3, r0
 8000d7e:	2b00      	cmp	r3, #0
 8000d80:	d004      	beq.n	8000d8c <ADC_ReadAllChannels+0x240>
        {
            s_level_flags[i] = 0;
 8000d82:	f897 3096 	ldrb.w	r3, [r7, #150]	@ 0x96
 8000d86:	4a3d      	ldr	r2, [pc, #244]	@ (8000e7c <ADC_ReadAllChannels+0x330>)
 8000d88:	2100      	movs	r1, #0
 8000d8a:	54d1      	strb	r1, [r2, r3]
        }

        if (v < DRY_VOLTAGE_THRESHOLD)
 8000d8c:	493a      	ldr	r1, [pc, #232]	@ (8000e78 <ADC_ReadAllChannels+0x32c>)
 8000d8e:	f8d7 0090 	ldr.w	r0, [r7, #144]	@ 0x90
 8000d92:	f7ff fc99 	bl	80006c8 <__aeabi_fcmplt>
 8000d96:	4603      	mov	r3, r0
 8000d98:	2b00      	cmp	r3, #0
 8000d9a:	d00e      	beq.n	8000dba <ADC_ReadAllChannels+0x26e>
        {
            if (s_low_counts[i] < 0xFF) s_low_counts[i]++;
 8000d9c:	f897 3096 	ldrb.w	r3, [r7, #150]	@ 0x96
 8000da0:	4a3f      	ldr	r2, [pc, #252]	@ (8000ea0 <ADC_ReadAllChannels+0x354>)
 8000da2:	5cd3      	ldrb	r3, [r2, r3]
 8000da4:	2bff      	cmp	r3, #255	@ 0xff
 8000da6:	d00d      	beq.n	8000dc4 <ADC_ReadAllChannels+0x278>
 8000da8:	f897 3096 	ldrb.w	r3, [r7, #150]	@ 0x96
 8000dac:	4a3c      	ldr	r2, [pc, #240]	@ (8000ea0 <ADC_ReadAllChannels+0x354>)
 8000dae:	5cd2      	ldrb	r2, [r2, r3]
 8000db0:	3201      	adds	r2, #1
 8000db2:	b2d1      	uxtb	r1, r2
 8000db4:	4a3a      	ldr	r2, [pc, #232]	@ (8000ea0 <ADC_ReadAllChannels+0x354>)
 8000db6:	54d1      	strb	r1, [r2, r3]
 8000db8:	e004      	b.n	8000dc4 <ADC_ReadAllChannels+0x278>
        }
        else
        {
            s_low_counts[i] = 0;
 8000dba:	f897 3096 	ldrb.w	r3, [r7, #150]	@ 0x96
 8000dbe:	4a38      	ldr	r2, [pc, #224]	@ (8000ea0 <ADC_ReadAllChannels+0x354>)
 8000dc0:	2100      	movs	r1, #0
 8000dc2:	54d1      	strb	r1, [r2, r3]
        }

        if (motorStatus == 1 && s_low_counts[i] >= DRY_COUNT_THRESHOLD)
 8000dc4:	4b35      	ldr	r3, [pc, #212]	@ (8000e9c <ADC_ReadAllChannels+0x350>)
 8000dc6:	781b      	ldrb	r3, [r3, #0]
 8000dc8:	b2db      	uxtb	r3, r3
 8000dca:	2b01      	cmp	r3, #1
 8000dcc:	d10d      	bne.n	8000dea <ADC_ReadAllChannels+0x29e>
 8000dce:	f897 3096 	ldrb.w	r3, [r7, #150]	@ 0x96
 8000dd2:	4a33      	ldr	r2, [pc, #204]	@ (8000ea0 <ADC_ReadAllChannels+0x354>)
 8000dd4:	5cd3      	ldrb	r3, [r2, r3]
 8000dd6:	2b02      	cmp	r3, #2
 8000dd8:	d907      	bls.n	8000dea <ADC_ReadAllChannels+0x29e>
        {
            motorStatus = 0;
 8000dda:	4b30      	ldr	r3, [pc, #192]	@ (8000e9c <ADC_ReadAllChannels+0x350>)
 8000ddc:	2200      	movs	r2, #0
 8000dde:	701a      	strb	r2, [r3, #0]
            memset(s_low_counts, 0, sizeof(s_low_counts));
 8000de0:	2206      	movs	r2, #6
 8000de2:	2100      	movs	r1, #0
 8000de4:	482e      	ldr	r0, [pc, #184]	@ (8000ea0 <ADC_ReadAllChannels+0x354>)
 8000de6:	f006 fde9 	bl	80079bc <memset>
    for (uint8_t i = 0; i < ADC_CHANNEL_COUNT; i++)
 8000dea:	f897 3096 	ldrb.w	r3, [r7, #150]	@ 0x96
 8000dee:	3301      	adds	r3, #1
 8000df0:	f887 3096 	strb.w	r3, [r7, #150]	@ 0x96
 8000df4:	f897 3096 	ldrb.w	r3, [r7, #150]	@ 0x96
 8000df8:	2b05      	cmp	r3, #5
 8000dfa:	f67f aeb3 	bls.w	8000b64 <ADC_ReadAllChannels+0x18>
        }
    }

    /* print only if changed */
    if (changed)
 8000dfe:	f897 3097 	ldrb.w	r3, [r7, #151]	@ 0x97
 8000e02:	2b00      	cmp	r3, #0
 8000e04:	d022      	beq.n	8000e4c <ADC_ReadAllChannels+0x300>
    {
        char dbg[128];
        int pos = snprintf(dbg, sizeof(dbg), "[ADC] ");
 8000e06:	f107 0308 	add.w	r3, r7, #8
 8000e0a:	4a27      	ldr	r2, [pc, #156]	@ (8000ea8 <ADC_ReadAllChannels+0x35c>)
 8000e0c:	2180      	movs	r1, #128	@ 0x80
 8000e0e:	4618      	mov	r0, r3
 8000e10:	f006 fd7c 	bl	800790c <sniprintf>
 8000e14:	f8c7 0088 	str.w	r0, [r7, #136]	@ 0x88
        for (uint8_t i = 0; i < ADC_CHANNEL_COUNT; i++)
 8000e18:	2300      	movs	r3, #0
 8000e1a:	f887 308f 	strb.w	r3, [r7, #143]	@ 0x8f
 8000e1e:	e004      	b.n	8000e2a <ADC_ReadAllChannels+0x2de>
 8000e20:	f897 308f 	ldrb.w	r3, [r7, #143]	@ 0x8f
 8000e24:	3301      	adds	r3, #1
 8000e26:	f887 308f 	strb.w	r3, [r7, #143]	@ 0x8f
 8000e2a:	f897 308f 	ldrb.w	r3, [r7, #143]	@ 0x8f
 8000e2e:	2b05      	cmp	r3, #5
 8000e30:	d9f6      	bls.n	8000e20 <ADC_ReadAllChannels+0x2d4>
//                            i,
//                            data->rawValues[i],
//                            data->voltages[i],
//                            data->maxReached[i] ? "!" : "");
        }
        dbg[sizeof(dbg)-1] = '\0';
 8000e32:	2300      	movs	r3, #0
 8000e34:	f887 3087 	strb.w	r3, [r7, #135]	@ 0x87
        UART_TransmitString(&huart1, dbg);
 8000e38:	f107 0308 	add.w	r3, r7, #8
 8000e3c:	4619      	mov	r1, r3
 8000e3e:	4816      	ldr	r0, [pc, #88]	@ (8000e98 <ADC_ReadAllChannels+0x34c>)
 8000e40:	f002 fe82 	bl	8003b48 <UART_TransmitString>
        UART_TransmitString(&huart1, "\r\n");
 8000e44:	4919      	ldr	r1, [pc, #100]	@ (8000eac <ADC_ReadAllChannels+0x360>)
 8000e46:	4814      	ldr	r0, [pc, #80]	@ (8000e98 <ADC_ReadAllChannels+0x34c>)
 8000e48:	f002 fe7e 	bl	8003b48 <UART_TransmitString>
    }
}
 8000e4c:	bf00      	nop
 8000e4e:	3798      	adds	r7, #152	@ 0x98
 8000e50:	46bd      	mov	sp, r7
 8000e52:	bdb0      	pop	{r4, r5, r7, pc}
 8000e54:	080087ac 	.word	0x080087ac
 8000e58:	200000f8 	.word	0x200000f8
 8000e5c:	3e99999a 	.word	0x3e99999a
 8000e60:	3f333333 	.word	0x3f333333
 8000e64:	457ff000 	.word	0x457ff000
 8000e68:	40533333 	.word	0x40533333
 8000e6c:	404ccccd 	.word	0x404ccccd
 8000e70:	200000e0 	.word	0x200000e0
 8000e74:	20000120 	.word	0x20000120
 8000e78:	3d4ccccd 	.word	0x3d4ccccd
 8000e7c:	20000110 	.word	0x20000110
 8000e80:	08008318 	.word	0x08008318
 8000e84:	20000138 	.word	0x20000138
 8000e88:	08008320 	.word	0x08008320
 8000e8c:	08008328 	.word	0x08008328
 8000e90:	08008330 	.word	0x08008330
 8000e94:	08008338 	.word	0x08008338
 8000e98:	200002a4 	.word	0x200002a4
 8000e9c:	20000358 	.word	0x20000358
 8000ea0:	20000118 	.word	0x20000118
 8000ea4:	3f666666 	.word	0x3f666666
 8000ea8:	08008340 	.word	0x08008340
 8000eac:	08008348 	.word	0x08008348

08000eb0 <map_nibble_ctrl>:
   Build a PCF8574 byte from a 4-bit data nibble and RS/EN flags according to LCD_PINMAP.
*/

static inline uint8_t map_nibble_ctrl(uint8_t nibble /*D7..D4 or D4..D7 per map*/,
                                      uint8_t rs, uint8_t en, uint8_t bl_on)
{
 8000eb0:	b490      	push	{r4, r7}
 8000eb2:	b084      	sub	sp, #16
 8000eb4:	af00      	add	r7, sp, #0
 8000eb6:	4604      	mov	r4, r0
 8000eb8:	4608      	mov	r0, r1
 8000eba:	4611      	mov	r1, r2
 8000ebc:	461a      	mov	r2, r3
 8000ebe:	4623      	mov	r3, r4
 8000ec0:	71fb      	strb	r3, [r7, #7]
 8000ec2:	4603      	mov	r3, r0
 8000ec4:	71bb      	strb	r3, [r7, #6]
 8000ec6:	460b      	mov	r3, r1
 8000ec8:	717b      	strb	r3, [r7, #5]
 8000eca:	4613      	mov	r3, r2
 8000ecc:	713b      	strb	r3, [r7, #4]
#if (LCD_PINMAP == LCD_PINMAP_A)
    /* Map A: D7..D4 -> P7..P4, EN=P2, RW=P1(0), RS=P0, BL=P3
       Byte: [D7 D6 D5 D4 BL EN RW RS] */
    uint8_t b = 0;
 8000ece:	2300      	movs	r3, #0
 8000ed0:	73fb      	strb	r3, [r7, #15]
    b |= (nibble & 0xF0);           // D7..D4 already in high nibble
 8000ed2:	f997 3007 	ldrsb.w	r3, [r7, #7]
 8000ed6:	f023 030f 	bic.w	r3, r3, #15
 8000eda:	b25a      	sxtb	r2, r3
 8000edc:	f997 300f 	ldrsb.w	r3, [r7, #15]
 8000ee0:	4313      	orrs	r3, r2
 8000ee2:	b25b      	sxtb	r3, r3
 8000ee4:	73fb      	strb	r3, [r7, #15]
    b |= (bl_on ? 0x08 : 0x00);     // BL=P3
 8000ee6:	793b      	ldrb	r3, [r7, #4]
 8000ee8:	2b00      	cmp	r3, #0
 8000eea:	d001      	beq.n	8000ef0 <map_nibble_ctrl+0x40>
 8000eec:	2208      	movs	r2, #8
 8000eee:	e000      	b.n	8000ef2 <map_nibble_ctrl+0x42>
 8000ef0:	2200      	movs	r2, #0
 8000ef2:	f997 300f 	ldrsb.w	r3, [r7, #15]
 8000ef6:	4313      	orrs	r3, r2
 8000ef8:	b25b      	sxtb	r3, r3
 8000efa:	73fb      	strb	r3, [r7, #15]
    b |= (en ? 0x04 : 0x00);        // EN=P2
 8000efc:	797b      	ldrb	r3, [r7, #5]
 8000efe:	2b00      	cmp	r3, #0
 8000f00:	d001      	beq.n	8000f06 <map_nibble_ctrl+0x56>
 8000f02:	2204      	movs	r2, #4
 8000f04:	e000      	b.n	8000f08 <map_nibble_ctrl+0x58>
 8000f06:	2200      	movs	r2, #0
 8000f08:	f997 300f 	ldrsb.w	r3, [r7, #15]
 8000f0c:	4313      	orrs	r3, r2
 8000f0e:	b25b      	sxtb	r3, r3
 8000f10:	73fb      	strb	r3, [r7, #15]
    b |= 0x00;                      // RW=P1 forced 0 (write)
    b |= (rs ? 0x01 : 0x00);        // RS=P0
 8000f12:	79bb      	ldrb	r3, [r7, #6]
 8000f14:	2b00      	cmp	r3, #0
 8000f16:	bf14      	ite	ne
 8000f18:	2301      	movne	r3, #1
 8000f1a:	2300      	moveq	r3, #0
 8000f1c:	b2db      	uxtb	r3, r3
 8000f1e:	b25a      	sxtb	r2, r3
 8000f20:	f997 300f 	ldrsb.w	r3, [r7, #15]
 8000f24:	4313      	orrs	r3, r2
 8000f26:	b25b      	sxtb	r3, r3
 8000f28:	73fb      	strb	r3, [r7, #15]
    return b;
 8000f2a:	7bfb      	ldrb	r3, [r7, #15]
    b |= (bl_on ? 0x80 : 0x00);           // BL=P7
    return b;
#else
# error "Unsupported LCD_PINMAP selection"
#endif
}
 8000f2c:	4618      	mov	r0, r3
 8000f2e:	3710      	adds	r7, #16
 8000f30:	46bd      	mov	sp, r7
 8000f32:	bc90      	pop	{r4, r7}
 8000f34:	4770      	bx	lr
	...

08000f38 <expander_write>:

static void expander_write(uint8_t data)
{
 8000f38:	b580      	push	{r7, lr}
 8000f3a:	b084      	sub	sp, #16
 8000f3c:	af02      	add	r7, sp, #8
 8000f3e:	4603      	mov	r3, r0
 8000f40:	71fb      	strb	r3, [r7, #7]
    HAL_I2C_Master_Transmit(&hi2c2, SLAVE_ADDRESS_LCD, &data, 1, 100);
 8000f42:	1dfa      	adds	r2, r7, #7
 8000f44:	2364      	movs	r3, #100	@ 0x64
 8000f46:	9300      	str	r3, [sp, #0]
 8000f48:	2301      	movs	r3, #1
 8000f4a:	214e      	movs	r1, #78	@ 0x4e
 8000f4c:	4803      	ldr	r0, [pc, #12]	@ (8000f5c <expander_write+0x24>)
 8000f4e:	f003 fff7 	bl	8004f40 <HAL_I2C_Master_Transmit>
}
 8000f52:	bf00      	nop
 8000f54:	3708      	adds	r7, #8
 8000f56:	46bd      	mov	sp, r7
 8000f58:	bd80      	pop	{r7, pc}
 8000f5a:	bf00      	nop
 8000f5c:	200001e4 	.word	0x200001e4

08000f60 <pulse_enable>:

static void pulse_enable(uint8_t data)
{
 8000f60:	b580      	push	{r7, lr}
 8000f62:	b082      	sub	sp, #8
 8000f64:	af00      	add	r7, sp, #0
 8000f66:	4603      	mov	r3, r0
 8000f68:	71fb      	strb	r3, [r7, #7]
#if (LCD_PINMAP == LCD_PINMAP_A)
    expander_write(data | 0x04);  // EN=1
 8000f6a:	79fb      	ldrb	r3, [r7, #7]
 8000f6c:	f043 0304 	orr.w	r3, r3, #4
 8000f70:	b2db      	uxtb	r3, r3
 8000f72:	4618      	mov	r0, r3
 8000f74:	f7ff ffe0 	bl	8000f38 <expander_write>
    HAL_Delay(1);
 8000f78:	2001      	movs	r0, #1
 8000f7a:	f002 fec3 	bl	8003d04 <HAL_Delay>
    expander_write(data & ~0x04); // EN=0
 8000f7e:	79fb      	ldrb	r3, [r7, #7]
 8000f80:	f023 0304 	bic.w	r3, r3, #4
 8000f84:	b2db      	uxtb	r3, r3
 8000f86:	4618      	mov	r0, r3
 8000f88:	f7ff ffd6 	bl	8000f38 <expander_write>
#elif (LCD_PINMAP == LCD_PINMAP_B)
    expander_write(data | 0x10);  // EN=1
    HAL_Delay(1);
    expander_write(data & ~0x10); // EN=0
#endif
    HAL_Delay(1);
 8000f8c:	2001      	movs	r0, #1
 8000f8e:	f002 feb9 	bl	8003d04 <HAL_Delay>
}
 8000f92:	bf00      	nop
 8000f94:	3708      	adds	r7, #8
 8000f96:	46bd      	mov	sp, r7
 8000f98:	bd80      	pop	{r7, pc}

08000f9a <write4bits>:

static void write4bits(uint8_t nibble /*D7..D4 in high nibble*/, uint8_t rs, uint8_t bl_on)
{
 8000f9a:	b580      	push	{r7, lr}
 8000f9c:	b084      	sub	sp, #16
 8000f9e:	af00      	add	r7, sp, #0
 8000fa0:	4603      	mov	r3, r0
 8000fa2:	71fb      	strb	r3, [r7, #7]
 8000fa4:	460b      	mov	r3, r1
 8000fa6:	71bb      	strb	r3, [r7, #6]
 8000fa8:	4613      	mov	r3, r2
 8000faa:	717b      	strb	r3, [r7, #5]
    uint8_t x = map_nibble_ctrl(nibble, rs, 1 /*en edge*/, bl_on);
 8000fac:	797b      	ldrb	r3, [r7, #5]
 8000fae:	79b9      	ldrb	r1, [r7, #6]
 8000fb0:	79f8      	ldrb	r0, [r7, #7]
 8000fb2:	2201      	movs	r2, #1
 8000fb4:	f7ff ff7c 	bl	8000eb0 <map_nibble_ctrl>
 8000fb8:	4603      	mov	r3, r0
 8000fba:	73fb      	strb	r3, [r7, #15]
    expander_write(x);
 8000fbc:	7bfb      	ldrb	r3, [r7, #15]
 8000fbe:	4618      	mov	r0, r3
 8000fc0:	f7ff ffba 	bl	8000f38 <expander_write>
    pulse_enable(x);
 8000fc4:	7bfb      	ldrb	r3, [r7, #15]
 8000fc6:	4618      	mov	r0, r3
 8000fc8:	f7ff ffca 	bl	8000f60 <pulse_enable>
}
 8000fcc:	bf00      	nop
 8000fce:	3710      	adds	r7, #16
 8000fd0:	46bd      	mov	sp, r7
 8000fd2:	bd80      	pop	{r7, pc}

08000fd4 <lcd_backlight_on>:

/* -------- Public API -------- */

void lcd_backlight_on(void)
{
 8000fd4:	b580      	push	{r7, lr}
 8000fd6:	b082      	sub	sp, #8
 8000fd8:	af00      	add	r7, sp, #0
#if (LCD_PINMAP == LCD_PINMAP_A)
    uint8_t b = 0x08; // BL=1, others 0
 8000fda:	2308      	movs	r3, #8
 8000fdc:	71fb      	strb	r3, [r7, #7]
#elif (LCD_PINMAP == LCD_PINMAP_B)
    uint8_t b = 0x80; // BL=1, others 0
#endif
    expander_write(b);
 8000fde:	79fb      	ldrb	r3, [r7, #7]
 8000fe0:	4618      	mov	r0, r3
 8000fe2:	f7ff ffa9 	bl	8000f38 <expander_write>
}
 8000fe6:	bf00      	nop
 8000fe8:	3708      	adds	r7, #8
 8000fea:	46bd      	mov	sp, r7
 8000fec:	bd80      	pop	{r7, pc}

08000fee <lcd_send_cmd>:
    uint8_t b = 0x00;
    expander_write(b);
}

void lcd_send_cmd(uint8_t cmd)
{
 8000fee:	b580      	push	{r7, lr}
 8000ff0:	b082      	sub	sp, #8
 8000ff2:	af00      	add	r7, sp, #0
 8000ff4:	4603      	mov	r3, r0
 8000ff6:	71fb      	strb	r3, [r7, #7]
    /* high then low nibble, RS=0 */
    write4bits(cmd & 0xF0, 0, 1);
 8000ff8:	79fb      	ldrb	r3, [r7, #7]
 8000ffa:	f023 030f 	bic.w	r3, r3, #15
 8000ffe:	b2db      	uxtb	r3, r3
 8001000:	2201      	movs	r2, #1
 8001002:	2100      	movs	r1, #0
 8001004:	4618      	mov	r0, r3
 8001006:	f7ff ffc8 	bl	8000f9a <write4bits>
    write4bits((cmd << 4) & 0xF0, 0, 1);
 800100a:	79fb      	ldrb	r3, [r7, #7]
 800100c:	011b      	lsls	r3, r3, #4
 800100e:	b2db      	uxtb	r3, r3
 8001010:	2201      	movs	r2, #1
 8001012:	2100      	movs	r1, #0
 8001014:	4618      	mov	r0, r3
 8001016:	f7ff ffc0 	bl	8000f9a <write4bits>
}
 800101a:	bf00      	nop
 800101c:	3708      	adds	r7, #8
 800101e:	46bd      	mov	sp, r7
 8001020:	bd80      	pop	{r7, pc}

08001022 <lcd_send_data>:

void lcd_send_data(uint8_t data)
{
 8001022:	b580      	push	{r7, lr}
 8001024:	b082      	sub	sp, #8
 8001026:	af00      	add	r7, sp, #0
 8001028:	4603      	mov	r3, r0
 800102a:	71fb      	strb	r3, [r7, #7]
    /* high then low nibble, RS=1 */
    write4bits(data & 0xF0, 1, 1);
 800102c:	79fb      	ldrb	r3, [r7, #7]
 800102e:	f023 030f 	bic.w	r3, r3, #15
 8001032:	b2db      	uxtb	r3, r3
 8001034:	2201      	movs	r2, #1
 8001036:	2101      	movs	r1, #1
 8001038:	4618      	mov	r0, r3
 800103a:	f7ff ffae 	bl	8000f9a <write4bits>
    write4bits((data << 4) & 0xF0, 1, 1);
 800103e:	79fb      	ldrb	r3, [r7, #7]
 8001040:	011b      	lsls	r3, r3, #4
 8001042:	b2db      	uxtb	r3, r3
 8001044:	2201      	movs	r2, #1
 8001046:	2101      	movs	r1, #1
 8001048:	4618      	mov	r0, r3
 800104a:	f7ff ffa6 	bl	8000f9a <write4bits>
}
 800104e:	bf00      	nop
 8001050:	3708      	adds	r7, #8
 8001052:	46bd      	mov	sp, r7
 8001054:	bd80      	pop	{r7, pc}

08001056 <lcd_clear>:

void lcd_clear(void)
{
 8001056:	b580      	push	{r7, lr}
 8001058:	af00      	add	r7, sp, #0
    lcd_send_cmd(0x01);
 800105a:	2001      	movs	r0, #1
 800105c:	f7ff ffc7 	bl	8000fee <lcd_send_cmd>
    HAL_Delay(2);
 8001060:	2002      	movs	r0, #2
 8001062:	f002 fe4f 	bl	8003d04 <HAL_Delay>
    lcd_send_cmd(0x80);
 8001066:	2080      	movs	r0, #128	@ 0x80
 8001068:	f7ff ffc1 	bl	8000fee <lcd_send_cmd>
}
 800106c:	bf00      	nop
 800106e:	bd80      	pop	{r7, pc}

08001070 <lcd_put_cur>:

void lcd_put_cur(uint8_t row, uint8_t col)
{
 8001070:	b580      	push	{r7, lr}
 8001072:	b082      	sub	sp, #8
 8001074:	af00      	add	r7, sp, #0
 8001076:	4603      	mov	r3, r0
 8001078:	460a      	mov	r2, r1
 800107a:	71fb      	strb	r3, [r7, #7]
 800107c:	4613      	mov	r3, r2
 800107e:	71bb      	strb	r3, [r7, #6]
    static const uint8_t row_offsets[] = {0x00, 0x40};
    if (row > 1) row = 1;
 8001080:	79fb      	ldrb	r3, [r7, #7]
 8001082:	2b01      	cmp	r3, #1
 8001084:	d901      	bls.n	800108a <lcd_put_cur+0x1a>
 8001086:	2301      	movs	r3, #1
 8001088:	71fb      	strb	r3, [r7, #7]
    lcd_send_cmd(0x80 | (row_offsets[row] + col));
 800108a:	79fb      	ldrb	r3, [r7, #7]
 800108c:	4a08      	ldr	r2, [pc, #32]	@ (80010b0 <lcd_put_cur+0x40>)
 800108e:	5cd2      	ldrb	r2, [r2, r3]
 8001090:	79bb      	ldrb	r3, [r7, #6]
 8001092:	4413      	add	r3, r2
 8001094:	b2db      	uxtb	r3, r3
 8001096:	b25b      	sxtb	r3, r3
 8001098:	f063 037f 	orn	r3, r3, #127	@ 0x7f
 800109c:	b25b      	sxtb	r3, r3
 800109e:	b2db      	uxtb	r3, r3
 80010a0:	4618      	mov	r0, r3
 80010a2:	f7ff ffa4 	bl	8000fee <lcd_send_cmd>
}
 80010a6:	bf00      	nop
 80010a8:	3708      	adds	r7, #8
 80010aa:	46bd      	mov	sp, r7
 80010ac:	bd80      	pop	{r7, pc}
 80010ae:	bf00      	nop
 80010b0:	080087c4 	.word	0x080087c4

080010b4 <lcd_send_string>:

void lcd_send_string(char *str)
{
 80010b4:	b580      	push	{r7, lr}
 80010b6:	b082      	sub	sp, #8
 80010b8:	af00      	add	r7, sp, #0
 80010ba:	6078      	str	r0, [r7, #4]
    while (*str) lcd_send_data((uint8_t)*str++);
 80010bc:	e006      	b.n	80010cc <lcd_send_string+0x18>
 80010be:	687b      	ldr	r3, [r7, #4]
 80010c0:	1c5a      	adds	r2, r3, #1
 80010c2:	607a      	str	r2, [r7, #4]
 80010c4:	781b      	ldrb	r3, [r3, #0]
 80010c6:	4618      	mov	r0, r3
 80010c8:	f7ff ffab 	bl	8001022 <lcd_send_data>
 80010cc:	687b      	ldr	r3, [r7, #4]
 80010ce:	781b      	ldrb	r3, [r3, #0]
 80010d0:	2b00      	cmp	r3, #0
 80010d2:	d1f4      	bne.n	80010be <lcd_send_string+0xa>
}
 80010d4:	bf00      	nop
 80010d6:	bf00      	nop
 80010d8:	3708      	adds	r7, #8
 80010da:	46bd      	mov	sp, r7
 80010dc:	bd80      	pop	{r7, pc}

080010de <lcd_init>:

void lcd_init(void)
{
 80010de:	b580      	push	{r7, lr}
 80010e0:	af00      	add	r7, sp, #0
    HAL_Delay(50);
 80010e2:	2032      	movs	r0, #50	@ 0x32
 80010e4:	f002 fe0e 	bl	8003d04 <HAL_Delay>
    lcd_backlight_on();
 80010e8:	f7ff ff74 	bl	8000fd4 <lcd_backlight_on>

    /* Force 8-bit mode (send only high-nibble pattern) */
    write4bits(0x30, 0, 1); HAL_Delay(5);
 80010ec:	2201      	movs	r2, #1
 80010ee:	2100      	movs	r1, #0
 80010f0:	2030      	movs	r0, #48	@ 0x30
 80010f2:	f7ff ff52 	bl	8000f9a <write4bits>
 80010f6:	2005      	movs	r0, #5
 80010f8:	f002 fe04 	bl	8003d04 <HAL_Delay>
    write4bits(0x30, 0, 1); HAL_Delay(1);
 80010fc:	2201      	movs	r2, #1
 80010fe:	2100      	movs	r1, #0
 8001100:	2030      	movs	r0, #48	@ 0x30
 8001102:	f7ff ff4a 	bl	8000f9a <write4bits>
 8001106:	2001      	movs	r0, #1
 8001108:	f002 fdfc 	bl	8003d04 <HAL_Delay>
    write4bits(0x30, 0, 1); HAL_Delay(1);
 800110c:	2201      	movs	r2, #1
 800110e:	2100      	movs	r1, #0
 8001110:	2030      	movs	r0, #48	@ 0x30
 8001112:	f7ff ff42 	bl	8000f9a <write4bits>
 8001116:	2001      	movs	r0, #1
 8001118:	f002 fdf4 	bl	8003d04 <HAL_Delay>

    /* Switch to 4-bit mode */
    write4bits(0x20, 0, 1); HAL_Delay(1);
 800111c:	2201      	movs	r2, #1
 800111e:	2100      	movs	r1, #0
 8001120:	2020      	movs	r0, #32
 8001122:	f7ff ff3a 	bl	8000f9a <write4bits>
 8001126:	2001      	movs	r0, #1
 8001128:	f002 fdec 	bl	8003d04 <HAL_Delay>

    /* Function set: 4-bit, 2 lines, 5x8 */
    lcd_send_cmd(0x28); HAL_Delay(1);
 800112c:	2028      	movs	r0, #40	@ 0x28
 800112e:	f7ff ff5e 	bl	8000fee <lcd_send_cmd>
 8001132:	2001      	movs	r0, #1
 8001134:	f002 fde6 	bl	8003d04 <HAL_Delay>
    /* Display off */
    lcd_send_cmd(0x08); HAL_Delay(1);
 8001138:	2008      	movs	r0, #8
 800113a:	f7ff ff58 	bl	8000fee <lcd_send_cmd>
 800113e:	2001      	movs	r0, #1
 8001140:	f002 fde0 	bl	8003d04 <HAL_Delay>
    /* Clear */
    lcd_clear();        HAL_Delay(2);
 8001144:	f7ff ff87 	bl	8001056 <lcd_clear>
 8001148:	2002      	movs	r0, #2
 800114a:	f002 fddb 	bl	8003d04 <HAL_Delay>
    /* Entry mode: increment, no shift */
    lcd_send_cmd(0x06); HAL_Delay(1);
 800114e:	2006      	movs	r0, #6
 8001150:	f7ff ff4d 	bl	8000fee <lcd_send_cmd>
 8001154:	2001      	movs	r0, #1
 8001156:	f002 fdd5 	bl	8003d04 <HAL_Delay>
    /* Display on, cursor off, blink off */
    lcd_send_cmd(0x0C); HAL_Delay(1);
 800115a:	200c      	movs	r0, #12
 800115c:	f7ff ff47 	bl	8000fee <lcd_send_cmd>
 8001160:	2001      	movs	r0, #1
 8001162:	f002 fdcf 	bl	8003d04 <HAL_Delay>
}
 8001166:	bf00      	nop
 8001168:	bd80      	pop	{r7, pc}

0800116a <now_ms>:

static LedIntent s_intent[LED_COLOR_COUNT];
static uint8_t   s_activeBlink[LED_COLOR_COUNT];
static uint32_t  s_nextToggleAt[LED_COLOR_COUNT];

static inline uint32_t now_ms(void) { return HAL_GetTick(); }
 800116a:	b580      	push	{r7, lr}
 800116c:	af00      	add	r7, sp, #0
 800116e:	f002 fdbf 	bl	8003cf0 <HAL_GetTick>
 8001172:	4603      	mov	r3, r0
 8001174:	4618      	mov	r0, r3
 8001176:	bd80      	pop	{r7, pc}

08001178 <led_write>:

static void led_write(LedColor c, GPIO_PinState st) {
 8001178:	b580      	push	{r7, lr}
 800117a:	b082      	sub	sp, #8
 800117c:	af00      	add	r7, sp, #0
 800117e:	4603      	mov	r3, r0
 8001180:	460a      	mov	r2, r1
 8001182:	71fb      	strb	r3, [r7, #7]
 8001184:	4613      	mov	r3, r2
 8001186:	71bb      	strb	r3, [r7, #6]
    HAL_GPIO_WritePin(LED_PORTS[c], LED_PINS[c], st);
 8001188:	79fb      	ldrb	r3, [r7, #7]
 800118a:	4a07      	ldr	r2, [pc, #28]	@ (80011a8 <led_write+0x30>)
 800118c:	f852 0023 	ldr.w	r0, [r2, r3, lsl #2]
 8001190:	79fb      	ldrb	r3, [r7, #7]
 8001192:	4a06      	ldr	r2, [pc, #24]	@ (80011ac <led_write+0x34>)
 8001194:	f832 3013 	ldrh.w	r3, [r2, r3, lsl #1]
 8001198:	79ba      	ldrb	r2, [r7, #6]
 800119a:	4619      	mov	r1, r3
 800119c:	f003 fd5b 	bl	8004c56 <HAL_GPIO_WritePin>
}
 80011a0:	bf00      	nop
 80011a2:	3708      	adds	r7, #8
 80011a4:	46bd      	mov	sp, r7
 80011a6:	bd80      	pop	{r7, pc}
 80011a8:	20000000 	.word	0x20000000
 80011ac:	20000010 	.word	0x20000010

080011b0 <led_on>:
static void led_on(LedColor c)  { led_write(c, GPIO_PIN_SET); }
 80011b0:	b580      	push	{r7, lr}
 80011b2:	b082      	sub	sp, #8
 80011b4:	af00      	add	r7, sp, #0
 80011b6:	4603      	mov	r3, r0
 80011b8:	71fb      	strb	r3, [r7, #7]
 80011ba:	79fb      	ldrb	r3, [r7, #7]
 80011bc:	2101      	movs	r1, #1
 80011be:	4618      	mov	r0, r3
 80011c0:	f7ff ffda 	bl	8001178 <led_write>
 80011c4:	bf00      	nop
 80011c6:	3708      	adds	r7, #8
 80011c8:	46bd      	mov	sp, r7
 80011ca:	bd80      	pop	{r7, pc}

080011cc <led_off>:
static void led_off(LedColor c) { led_write(c, GPIO_PIN_RESET); }
 80011cc:	b580      	push	{r7, lr}
 80011ce:	b082      	sub	sp, #8
 80011d0:	af00      	add	r7, sp, #0
 80011d2:	4603      	mov	r3, r0
 80011d4:	71fb      	strb	r3, [r7, #7]
 80011d6:	79fb      	ldrb	r3, [r7, #7]
 80011d8:	2100      	movs	r1, #0
 80011da:	4618      	mov	r0, r3
 80011dc:	f7ff ffcc 	bl	8001178 <led_write>
 80011e0:	bf00      	nop
 80011e2:	3708      	adds	r7, #8
 80011e4:	46bd      	mov	sp, r7
 80011e6:	bd80      	pop	{r7, pc}

080011e8 <LED_Task>:
    }
}

/* call this every loop (or from a 10–20ms tick) */
void LED_Task(void)
{
 80011e8:	b580      	push	{r7, lr}
 80011ea:	b082      	sub	sp, #8
 80011ec:	af00      	add	r7, sp, #0
    uint32_t t = now_ms();
 80011ee:	f7ff ffbc 	bl	800116a <now_ms>
 80011f2:	6038      	str	r0, [r7, #0]

    for (int i = 0; i < LED_COLOR_COUNT; ++i) {
 80011f4:	2300      	movs	r3, #0
 80011f6:	607b      	str	r3, [r7, #4]
 80011f8:	e064      	b.n	80012c4 <LED_Task+0xdc>
        switch (s_intent[i].mode) {
 80011fa:	4a36      	ldr	r2, [pc, #216]	@ (80012d4 <LED_Task+0xec>)
 80011fc:	687b      	ldr	r3, [r7, #4]
 80011fe:	f812 3023 	ldrb.w	r3, [r2, r3, lsl #2]
 8001202:	2b00      	cmp	r3, #0
 8001204:	d002      	beq.n	800120c <LED_Task+0x24>
 8001206:	2b01      	cmp	r3, #1
 8001208:	d00b      	beq.n	8001222 <LED_Task+0x3a>
 800120a:	e015      	b.n	8001238 <LED_Task+0x50>
        case LED_MODE_OFF:
            s_activeBlink[i] = 0;
 800120c:	4a32      	ldr	r2, [pc, #200]	@ (80012d8 <LED_Task+0xf0>)
 800120e:	687b      	ldr	r3, [r7, #4]
 8001210:	4413      	add	r3, r2
 8001212:	2200      	movs	r2, #0
 8001214:	701a      	strb	r2, [r3, #0]
            led_off((LedColor)i);
 8001216:	687b      	ldr	r3, [r7, #4]
 8001218:	b2db      	uxtb	r3, r3
 800121a:	4618      	mov	r0, r3
 800121c:	f7ff ffd6 	bl	80011cc <led_off>
            break;
 8001220:	e04d      	b.n	80012be <LED_Task+0xd6>

        case LED_MODE_STEADY:
            s_activeBlink[i] = 1;
 8001222:	4a2d      	ldr	r2, [pc, #180]	@ (80012d8 <LED_Task+0xf0>)
 8001224:	687b      	ldr	r3, [r7, #4]
 8001226:	4413      	add	r3, r2
 8001228:	2201      	movs	r2, #1
 800122a:	701a      	strb	r2, [r3, #0]
            led_on((LedColor)i);
 800122c:	687b      	ldr	r3, [r7, #4]
 800122e:	b2db      	uxtb	r3, r3
 8001230:	4618      	mov	r0, r3
 8001232:	f7ff ffbd 	bl	80011b0 <led_on>
            break;
 8001236:	e042      	b.n	80012be <LED_Task+0xd6>

        case LED_MODE_BLINK:
        default:
            if (s_intent[i].period_ms == 0) s_intent[i].period_ms = 500;
 8001238:	4a26      	ldr	r2, [pc, #152]	@ (80012d4 <LED_Task+0xec>)
 800123a:	687b      	ldr	r3, [r7, #4]
 800123c:	009b      	lsls	r3, r3, #2
 800123e:	4413      	add	r3, r2
 8001240:	885b      	ldrh	r3, [r3, #2]
 8001242:	2b00      	cmp	r3, #0
 8001244:	d106      	bne.n	8001254 <LED_Task+0x6c>
 8001246:	4a23      	ldr	r2, [pc, #140]	@ (80012d4 <LED_Task+0xec>)
 8001248:	687b      	ldr	r3, [r7, #4]
 800124a:	009b      	lsls	r3, r3, #2
 800124c:	4413      	add	r3, r2
 800124e:	f44f 72fa 	mov.w	r2, #500	@ 0x1f4
 8001252:	805a      	strh	r2, [r3, #2]
            if ((int32_t)(s_nextToggleAt[i] - t) <= 0) {
 8001254:	4a21      	ldr	r2, [pc, #132]	@ (80012dc <LED_Task+0xf4>)
 8001256:	687b      	ldr	r3, [r7, #4]
 8001258:	f852 2023 	ldr.w	r2, [r2, r3, lsl #2]
 800125c:	683b      	ldr	r3, [r7, #0]
 800125e:	1ad3      	subs	r3, r2, r3
 8001260:	2b00      	cmp	r3, #0
 8001262:	dc2b      	bgt.n	80012bc <LED_Task+0xd4>
                s_activeBlink[i] = !s_activeBlink[i];
 8001264:	4a1c      	ldr	r2, [pc, #112]	@ (80012d8 <LED_Task+0xf0>)
 8001266:	687b      	ldr	r3, [r7, #4]
 8001268:	4413      	add	r3, r2
 800126a:	781b      	ldrb	r3, [r3, #0]
 800126c:	2b00      	cmp	r3, #0
 800126e:	bf0c      	ite	eq
 8001270:	2301      	moveq	r3, #1
 8001272:	2300      	movne	r3, #0
 8001274:	b2db      	uxtb	r3, r3
 8001276:	4619      	mov	r1, r3
 8001278:	4a17      	ldr	r2, [pc, #92]	@ (80012d8 <LED_Task+0xf0>)
 800127a:	687b      	ldr	r3, [r7, #4]
 800127c:	4413      	add	r3, r2
 800127e:	460a      	mov	r2, r1
 8001280:	701a      	strb	r2, [r3, #0]
                if (s_activeBlink[i]) led_on((LedColor)i);
 8001282:	4a15      	ldr	r2, [pc, #84]	@ (80012d8 <LED_Task+0xf0>)
 8001284:	687b      	ldr	r3, [r7, #4]
 8001286:	4413      	add	r3, r2
 8001288:	781b      	ldrb	r3, [r3, #0]
 800128a:	2b00      	cmp	r3, #0
 800128c:	d005      	beq.n	800129a <LED_Task+0xb2>
 800128e:	687b      	ldr	r3, [r7, #4]
 8001290:	b2db      	uxtb	r3, r3
 8001292:	4618      	mov	r0, r3
 8001294:	f7ff ff8c 	bl	80011b0 <led_on>
 8001298:	e004      	b.n	80012a4 <LED_Task+0xbc>
                else                  led_off((LedColor)i);
 800129a:	687b      	ldr	r3, [r7, #4]
 800129c:	b2db      	uxtb	r3, r3
 800129e:	4618      	mov	r0, r3
 80012a0:	f7ff ff94 	bl	80011cc <led_off>
                s_nextToggleAt[i] = t + s_intent[i].period_ms;
 80012a4:	4a0b      	ldr	r2, [pc, #44]	@ (80012d4 <LED_Task+0xec>)
 80012a6:	687b      	ldr	r3, [r7, #4]
 80012a8:	009b      	lsls	r3, r3, #2
 80012aa:	4413      	add	r3, r2
 80012ac:	885b      	ldrh	r3, [r3, #2]
 80012ae:	461a      	mov	r2, r3
 80012b0:	683b      	ldr	r3, [r7, #0]
 80012b2:	441a      	add	r2, r3
 80012b4:	4909      	ldr	r1, [pc, #36]	@ (80012dc <LED_Task+0xf4>)
 80012b6:	687b      	ldr	r3, [r7, #4]
 80012b8:	f841 2023 	str.w	r2, [r1, r3, lsl #2]
            }
            break;
 80012bc:	bf00      	nop
    for (int i = 0; i < LED_COLOR_COUNT; ++i) {
 80012be:	687b      	ldr	r3, [r7, #4]
 80012c0:	3301      	adds	r3, #1
 80012c2:	607b      	str	r3, [r7, #4]
 80012c4:	687b      	ldr	r3, [r7, #4]
 80012c6:	2b03      	cmp	r3, #3
 80012c8:	dd97      	ble.n	80011fa <LED_Task+0x12>
        }
    }
}
 80012ca:	bf00      	nop
 80012cc:	bf00      	nop
 80012ce:	3708      	adds	r7, #8
 80012d0:	46bd      	mov	sp, r7
 80012d2:	bd80      	pop	{r7, pc}
 80012d4:	20000148 	.word	0x20000148
 80012d8:	20000158 	.word	0x20000158
 80012dc:	2000015c 	.word	0x2000015c

080012e0 <LED_ClearAllIntents>:

void LED_ClearAllIntents(void)
{
 80012e0:	b480      	push	{r7}
 80012e2:	b083      	sub	sp, #12
 80012e4:	af00      	add	r7, sp, #0
    for (int i = 0; i < LED_COLOR_COUNT; ++i) {
 80012e6:	2300      	movs	r3, #0
 80012e8:	607b      	str	r3, [r7, #4]
 80012ea:	e00d      	b.n	8001308 <LED_ClearAllIntents+0x28>
        s_intent[i].mode = LED_MODE_OFF;
 80012ec:	4a0b      	ldr	r2, [pc, #44]	@ (800131c <LED_ClearAllIntents+0x3c>)
 80012ee:	687b      	ldr	r3, [r7, #4]
 80012f0:	2100      	movs	r1, #0
 80012f2:	f802 1023 	strb.w	r1, [r2, r3, lsl #2]
        s_intent[i].period_ms = 0;
 80012f6:	4a09      	ldr	r2, [pc, #36]	@ (800131c <LED_ClearAllIntents+0x3c>)
 80012f8:	687b      	ldr	r3, [r7, #4]
 80012fa:	009b      	lsls	r3, r3, #2
 80012fc:	4413      	add	r3, r2
 80012fe:	2200      	movs	r2, #0
 8001300:	805a      	strh	r2, [r3, #2]
    for (int i = 0; i < LED_COLOR_COUNT; ++i) {
 8001302:	687b      	ldr	r3, [r7, #4]
 8001304:	3301      	adds	r3, #1
 8001306:	607b      	str	r3, [r7, #4]
 8001308:	687b      	ldr	r3, [r7, #4]
 800130a:	2b03      	cmp	r3, #3
 800130c:	ddee      	ble.n	80012ec <LED_ClearAllIntents+0xc>
    }
}
 800130e:	bf00      	nop
 8001310:	bf00      	nop
 8001312:	370c      	adds	r7, #12
 8001314:	46bd      	mov	sp, r7
 8001316:	bc80      	pop	{r7}
 8001318:	4770      	bx	lr
 800131a:	bf00      	nop
 800131c:	20000148 	.word	0x20000148

08001320 <LED_SetIntent>:

void LED_SetIntent(LedColor color, LedMode mode, uint16_t period_ms)
{
 8001320:	b480      	push	{r7}
 8001322:	b083      	sub	sp, #12
 8001324:	af00      	add	r7, sp, #0
 8001326:	4603      	mov	r3, r0
 8001328:	71fb      	strb	r3, [r7, #7]
 800132a:	460b      	mov	r3, r1
 800132c:	71bb      	strb	r3, [r7, #6]
 800132e:	4613      	mov	r3, r2
 8001330:	80bb      	strh	r3, [r7, #4]
    if ((int)color < 0 || color >= LED_COLOR_COUNT) return;
 8001332:	79fb      	ldrb	r3, [r7, #7]
 8001334:	2b03      	cmp	r3, #3
 8001336:	d80b      	bhi.n	8001350 <LED_SetIntent+0x30>
    s_intent[color].mode = mode;
 8001338:	79fb      	ldrb	r3, [r7, #7]
 800133a:	4908      	ldr	r1, [pc, #32]	@ (800135c <LED_SetIntent+0x3c>)
 800133c:	79ba      	ldrb	r2, [r7, #6]
 800133e:	f801 2023 	strb.w	r2, [r1, r3, lsl #2]
    s_intent[color].period_ms = period_ms;
 8001342:	79fb      	ldrb	r3, [r7, #7]
 8001344:	4a05      	ldr	r2, [pc, #20]	@ (800135c <LED_SetIntent+0x3c>)
 8001346:	009b      	lsls	r3, r3, #2
 8001348:	4413      	add	r3, r2
 800134a:	88ba      	ldrh	r2, [r7, #4]
 800134c:	805a      	strh	r2, [r3, #2]
 800134e:	e000      	b.n	8001352 <LED_SetIntent+0x32>
    if ((int)color < 0 || color >= LED_COLOR_COUNT) return;
 8001350:	bf00      	nop
}
 8001352:	370c      	adds	r7, #12
 8001354:	46bd      	mov	sp, r7
 8001356:	bc80      	pop	{r7}
 8001358:	4770      	bx	lr
 800135a:	bf00      	nop
 800135c:	20000148 	.word	0x20000148

08001360 <LED_ApplyIntents>:

/* current implementation uses intents directly in LED_Task() */
void LED_ApplyIntents(void) { /* no-op, reserved for future resolve rules */ }
 8001360:	b480      	push	{r7}
 8001362:	af00      	add	r7, sp, #0
 8001364:	bf00      	nop
 8001366:	46bd      	mov	sp, r7
 8001368:	bc80      	pop	{r7}
 800136a:	4770      	bx	lr

0800136c <LoRa_WriteReg>:

uint8_t rxBuffer[64]; // LoRa RX
uint8_t txBuffer[64]; // LoRa TX

/* ---------------- Low-level SPI helpers ---------------- */
void LoRa_WriteReg(uint8_t addr, uint8_t data) {
 800136c:	b580      	push	{r7, lr}
 800136e:	b084      	sub	sp, #16
 8001370:	af00      	add	r7, sp, #0
 8001372:	4603      	mov	r3, r0
 8001374:	460a      	mov	r2, r1
 8001376:	71fb      	strb	r3, [r7, #7]
 8001378:	4613      	mov	r3, r2
 800137a:	71bb      	strb	r3, [r7, #6]
    uint8_t buf[2] = { (uint8_t)(addr | 0x80), data };
 800137c:	79fb      	ldrb	r3, [r7, #7]
 800137e:	f063 037f 	orn	r3, r3, #127	@ 0x7f
 8001382:	b2db      	uxtb	r3, r3
 8001384:	733b      	strb	r3, [r7, #12]
 8001386:	79bb      	ldrb	r3, [r7, #6]
 8001388:	737b      	strb	r3, [r7, #13]
    NSS_LOW();
 800138a:	2200      	movs	r2, #0
 800138c:	f44f 4100 	mov.w	r1, #32768	@ 0x8000
 8001390:	480a      	ldr	r0, [pc, #40]	@ (80013bc <LoRa_WriteReg+0x50>)
 8001392:	f003 fc60 	bl	8004c56 <HAL_GPIO_WritePin>
    HAL_SPI_Transmit(&hspi1, buf, 2, HAL_MAX_DELAY);
 8001396:	f107 010c 	add.w	r1, r7, #12
 800139a:	f04f 33ff 	mov.w	r3, #4294967295
 800139e:	2202      	movs	r2, #2
 80013a0:	4807      	ldr	r0, [pc, #28]	@ (80013c0 <LoRa_WriteReg+0x54>)
 80013a2:	f005 fb1e 	bl	80069e2 <HAL_SPI_Transmit>
    NSS_HIGH();
 80013a6:	2201      	movs	r2, #1
 80013a8:	f44f 4100 	mov.w	r1, #32768	@ 0x8000
 80013ac:	4803      	ldr	r0, [pc, #12]	@ (80013bc <LoRa_WriteReg+0x50>)
 80013ae:	f003 fc52 	bl	8004c56 <HAL_GPIO_WritePin>
}
 80013b2:	bf00      	nop
 80013b4:	3710      	adds	r7, #16
 80013b6:	46bd      	mov	sp, r7
 80013b8:	bd80      	pop	{r7, pc}
 80013ba:	bf00      	nop
 80013bc:	40010800 	.word	0x40010800
 80013c0:	2000024c 	.word	0x2000024c

080013c4 <LoRa_ReadReg>:

uint8_t LoRa_ReadReg(uint8_t addr) {
 80013c4:	b580      	push	{r7, lr}
 80013c6:	b084      	sub	sp, #16
 80013c8:	af00      	add	r7, sp, #0
 80013ca:	4603      	mov	r3, r0
 80013cc:	71fb      	strb	r3, [r7, #7]
    uint8_t tx = addr & 0x7F;
 80013ce:	79fb      	ldrb	r3, [r7, #7]
 80013d0:	f003 037f 	and.w	r3, r3, #127	@ 0x7f
 80013d4:	b2db      	uxtb	r3, r3
 80013d6:	73fb      	strb	r3, [r7, #15]
    uint8_t rx = 0;
 80013d8:	2300      	movs	r3, #0
 80013da:	73bb      	strb	r3, [r7, #14]
    NSS_LOW();
 80013dc:	2200      	movs	r2, #0
 80013de:	f44f 4100 	mov.w	r1, #32768	@ 0x8000
 80013e2:	480f      	ldr	r0, [pc, #60]	@ (8001420 <LoRa_ReadReg+0x5c>)
 80013e4:	f003 fc37 	bl	8004c56 <HAL_GPIO_WritePin>
    HAL_SPI_Transmit(&hspi1, &tx, 1, HAL_MAX_DELAY);
 80013e8:	f107 010f 	add.w	r1, r7, #15
 80013ec:	f04f 33ff 	mov.w	r3, #4294967295
 80013f0:	2201      	movs	r2, #1
 80013f2:	480c      	ldr	r0, [pc, #48]	@ (8001424 <LoRa_ReadReg+0x60>)
 80013f4:	f005 faf5 	bl	80069e2 <HAL_SPI_Transmit>
    HAL_SPI_Receive(&hspi1, &rx, 1, HAL_MAX_DELAY);
 80013f8:	f107 010e 	add.w	r1, r7, #14
 80013fc:	f04f 33ff 	mov.w	r3, #4294967295
 8001400:	2201      	movs	r2, #1
 8001402:	4808      	ldr	r0, [pc, #32]	@ (8001424 <LoRa_ReadReg+0x60>)
 8001404:	f005 fc31 	bl	8006c6a <HAL_SPI_Receive>
    NSS_HIGH();
 8001408:	2201      	movs	r2, #1
 800140a:	f44f 4100 	mov.w	r1, #32768	@ 0x8000
 800140e:	4804      	ldr	r0, [pc, #16]	@ (8001420 <LoRa_ReadReg+0x5c>)
 8001410:	f003 fc21 	bl	8004c56 <HAL_GPIO_WritePin>
    return rx;
 8001414:	7bbb      	ldrb	r3, [r7, #14]
}
 8001416:	4618      	mov	r0, r3
 8001418:	3710      	adds	r7, #16
 800141a:	46bd      	mov	sp, r7
 800141c:	bd80      	pop	{r7, pc}
 800141e:	bf00      	nop
 8001420:	40010800 	.word	0x40010800
 8001424:	2000024c 	.word	0x2000024c

08001428 <LoRa_WriteBuffer>:

void LoRa_WriteBuffer(uint8_t addr, const uint8_t *buffer, uint8_t size) {
 8001428:	b580      	push	{r7, lr}
 800142a:	b084      	sub	sp, #16
 800142c:	af00      	add	r7, sp, #0
 800142e:	4603      	mov	r3, r0
 8001430:	6039      	str	r1, [r7, #0]
 8001432:	71fb      	strb	r3, [r7, #7]
 8001434:	4613      	mov	r3, r2
 8001436:	71bb      	strb	r3, [r7, #6]
    uint8_t a = addr | 0x80;
 8001438:	79fb      	ldrb	r3, [r7, #7]
 800143a:	f063 037f 	orn	r3, r3, #127	@ 0x7f
 800143e:	b2db      	uxtb	r3, r3
 8001440:	73fb      	strb	r3, [r7, #15]
    NSS_LOW();
 8001442:	2200      	movs	r2, #0
 8001444:	f44f 4100 	mov.w	r1, #32768	@ 0x8000
 8001448:	480e      	ldr	r0, [pc, #56]	@ (8001484 <LoRa_WriteBuffer+0x5c>)
 800144a:	f003 fc04 	bl	8004c56 <HAL_GPIO_WritePin>
    HAL_SPI_Transmit(&hspi1, &a, 1, HAL_MAX_DELAY);
 800144e:	f107 010f 	add.w	r1, r7, #15
 8001452:	f04f 33ff 	mov.w	r3, #4294967295
 8001456:	2201      	movs	r2, #1
 8001458:	480b      	ldr	r0, [pc, #44]	@ (8001488 <LoRa_WriteBuffer+0x60>)
 800145a:	f005 fac2 	bl	80069e2 <HAL_SPI_Transmit>
    HAL_SPI_Transmit(&hspi1, (uint8_t*)buffer, size, HAL_MAX_DELAY);
 800145e:	79bb      	ldrb	r3, [r7, #6]
 8001460:	b29a      	uxth	r2, r3
 8001462:	f04f 33ff 	mov.w	r3, #4294967295
 8001466:	6839      	ldr	r1, [r7, #0]
 8001468:	4807      	ldr	r0, [pc, #28]	@ (8001488 <LoRa_WriteBuffer+0x60>)
 800146a:	f005 faba 	bl	80069e2 <HAL_SPI_Transmit>
    NSS_HIGH();
 800146e:	2201      	movs	r2, #1
 8001470:	f44f 4100 	mov.w	r1, #32768	@ 0x8000
 8001474:	4803      	ldr	r0, [pc, #12]	@ (8001484 <LoRa_WriteBuffer+0x5c>)
 8001476:	f003 fbee 	bl	8004c56 <HAL_GPIO_WritePin>
}
 800147a:	bf00      	nop
 800147c:	3710      	adds	r7, #16
 800147e:	46bd      	mov	sp, r7
 8001480:	bd80      	pop	{r7, pc}
 8001482:	bf00      	nop
 8001484:	40010800 	.word	0x40010800
 8001488:	2000024c 	.word	0x2000024c

0800148c <LoRa_ReadBuffer>:

void LoRa_ReadBuffer(uint8_t addr, uint8_t *buffer, uint8_t size) {
 800148c:	b580      	push	{r7, lr}
 800148e:	b084      	sub	sp, #16
 8001490:	af00      	add	r7, sp, #0
 8001492:	4603      	mov	r3, r0
 8001494:	6039      	str	r1, [r7, #0]
 8001496:	71fb      	strb	r3, [r7, #7]
 8001498:	4613      	mov	r3, r2
 800149a:	71bb      	strb	r3, [r7, #6]
    uint8_t a = addr & 0x7F;
 800149c:	79fb      	ldrb	r3, [r7, #7]
 800149e:	f003 037f 	and.w	r3, r3, #127	@ 0x7f
 80014a2:	b2db      	uxtb	r3, r3
 80014a4:	73fb      	strb	r3, [r7, #15]
    NSS_LOW();
 80014a6:	2200      	movs	r2, #0
 80014a8:	f44f 4100 	mov.w	r1, #32768	@ 0x8000
 80014ac:	480e      	ldr	r0, [pc, #56]	@ (80014e8 <LoRa_ReadBuffer+0x5c>)
 80014ae:	f003 fbd2 	bl	8004c56 <HAL_GPIO_WritePin>
    HAL_SPI_Transmit(&hspi1, &a, 1, HAL_MAX_DELAY);
 80014b2:	f107 010f 	add.w	r1, r7, #15
 80014b6:	f04f 33ff 	mov.w	r3, #4294967295
 80014ba:	2201      	movs	r2, #1
 80014bc:	480b      	ldr	r0, [pc, #44]	@ (80014ec <LoRa_ReadBuffer+0x60>)
 80014be:	f005 fa90 	bl	80069e2 <HAL_SPI_Transmit>
    HAL_SPI_Receive(&hspi1, buffer, size, HAL_MAX_DELAY);
 80014c2:	79bb      	ldrb	r3, [r7, #6]
 80014c4:	b29a      	uxth	r2, r3
 80014c6:	f04f 33ff 	mov.w	r3, #4294967295
 80014ca:	6839      	ldr	r1, [r7, #0]
 80014cc:	4807      	ldr	r0, [pc, #28]	@ (80014ec <LoRa_ReadBuffer+0x60>)
 80014ce:	f005 fbcc 	bl	8006c6a <HAL_SPI_Receive>
    NSS_HIGH();
 80014d2:	2201      	movs	r2, #1
 80014d4:	f44f 4100 	mov.w	r1, #32768	@ 0x8000
 80014d8:	4803      	ldr	r0, [pc, #12]	@ (80014e8 <LoRa_ReadBuffer+0x5c>)
 80014da:	f003 fbbc 	bl	8004c56 <HAL_GPIO_WritePin>
}
 80014de:	bf00      	nop
 80014e0:	3710      	adds	r7, #16
 80014e2:	46bd      	mov	sp, r7
 80014e4:	bd80      	pop	{r7, pc}
 80014e6:	bf00      	nop
 80014e8:	40010800 	.word	0x40010800
 80014ec:	2000024c 	.word	0x2000024c

080014f0 <LoRa_Reset>:

/* ---------------- Reset ---------------- */
void LoRa_Reset(void) {
 80014f0:	b580      	push	{r7, lr}
 80014f2:	af00      	add	r7, sp, #0
    HAL_GPIO_WritePin(LORA_RESET_PORT, LORA_RESET_PIN, GPIO_PIN_RESET);
 80014f4:	2200      	movs	r2, #0
 80014f6:	2140      	movs	r1, #64	@ 0x40
 80014f8:	4807      	ldr	r0, [pc, #28]	@ (8001518 <LoRa_Reset+0x28>)
 80014fa:	f003 fbac 	bl	8004c56 <HAL_GPIO_WritePin>
    HAL_Delay(2);
 80014fe:	2002      	movs	r0, #2
 8001500:	f002 fc00 	bl	8003d04 <HAL_Delay>
    HAL_GPIO_WritePin(LORA_RESET_PORT, LORA_RESET_PIN, GPIO_PIN_SET);
 8001504:	2201      	movs	r2, #1
 8001506:	2140      	movs	r1, #64	@ 0x40
 8001508:	4803      	ldr	r0, [pc, #12]	@ (8001518 <LoRa_Reset+0x28>)
 800150a:	f003 fba4 	bl	8004c56 <HAL_GPIO_WritePin>
    HAL_Delay(2);
 800150e:	2002      	movs	r0, #2
 8001510:	f002 fbf8 	bl	8003d04 <HAL_Delay>
}
 8001514:	bf00      	nop
 8001516:	bd80      	pop	{r7, pc}
 8001518:	40010c00 	.word	0x40010c00

0800151c <LoRa_SetFrequency>:

/* ---------------- Set frequency ---------------- */
void LoRa_SetFrequency(uint32_t freqHz) {
 800151c:	b5b0      	push	{r4, r5, r7, lr}
 800151e:	b084      	sub	sp, #16
 8001520:	af00      	add	r7, sp, #0
 8001522:	6078      	str	r0, [r7, #4]
    uint64_t frf = ((uint64_t)freqHz << 19) / 32000000ULL;
 8001524:	6879      	ldr	r1, [r7, #4]
 8001526:	2000      	movs	r0, #0
 8001528:	460a      	mov	r2, r1
 800152a:	4603      	mov	r3, r0
 800152c:	0b55      	lsrs	r5, r2, #13
 800152e:	04d4      	lsls	r4, r2, #19
 8001530:	4a18      	ldr	r2, [pc, #96]	@ (8001594 <LoRa_SetFrequency+0x78>)
 8001532:	f04f 0300 	mov.w	r3, #0
 8001536:	4620      	mov	r0, r4
 8001538:	4629      	mov	r1, r5
 800153a:	f7ff f90d 	bl	8000758 <__aeabi_uldivmod>
 800153e:	4602      	mov	r2, r0
 8001540:	460b      	mov	r3, r1
 8001542:	e9c7 2302 	strd	r2, r3, [r7, #8]
    LoRa_WriteReg(0x06, (uint8_t)(frf >> 16));
 8001546:	e9d7 0102 	ldrd	r0, r1, [r7, #8]
 800154a:	f04f 0200 	mov.w	r2, #0
 800154e:	f04f 0300 	mov.w	r3, #0
 8001552:	0c02      	lsrs	r2, r0, #16
 8001554:	ea42 4201 	orr.w	r2, r2, r1, lsl #16
 8001558:	0c0b      	lsrs	r3, r1, #16
 800155a:	b2d3      	uxtb	r3, r2
 800155c:	4619      	mov	r1, r3
 800155e:	2006      	movs	r0, #6
 8001560:	f7ff ff04 	bl	800136c <LoRa_WriteReg>
    LoRa_WriteReg(0x07, (uint8_t)(frf >> 8));
 8001564:	e9d7 0102 	ldrd	r0, r1, [r7, #8]
 8001568:	f04f 0200 	mov.w	r2, #0
 800156c:	f04f 0300 	mov.w	r3, #0
 8001570:	0a02      	lsrs	r2, r0, #8
 8001572:	ea42 6201 	orr.w	r2, r2, r1, lsl #24
 8001576:	0a0b      	lsrs	r3, r1, #8
 8001578:	b2d3      	uxtb	r3, r2
 800157a:	4619      	mov	r1, r3
 800157c:	2007      	movs	r0, #7
 800157e:	f7ff fef5 	bl	800136c <LoRa_WriteReg>
    LoRa_WriteReg(0x08, (uint8_t)(frf >> 0));
 8001582:	7a3b      	ldrb	r3, [r7, #8]
 8001584:	4619      	mov	r1, r3
 8001586:	2008      	movs	r0, #8
 8001588:	f7ff fef0 	bl	800136c <LoRa_WriteReg>
}
 800158c:	bf00      	nop
 800158e:	3710      	adds	r7, #16
 8001590:	46bd      	mov	sp, r7
 8001592:	bdb0      	pop	{r4, r5, r7, pc}
 8001594:	01e84800 	.word	0x01e84800

08001598 <LoRa_Init>:

/* ---------------- Init ---------------- */
void LoRa_Init(void) {
 8001598:	b580      	push	{r7, lr}
 800159a:	af00      	add	r7, sp, #0
    LoRa_Reset();
 800159c:	f7ff ffa8 	bl	80014f0 <LoRa_Reset>

    // Sleep → LoRa sleep
    LoRa_WriteReg(0x01, 0x00);
 80015a0:	2100      	movs	r1, #0
 80015a2:	2001      	movs	r0, #1
 80015a4:	f7ff fee2 	bl	800136c <LoRa_WriteReg>
    HAL_Delay(2);
 80015a8:	2002      	movs	r0, #2
 80015aa:	f002 fbab 	bl	8003d04 <HAL_Delay>
    LoRa_WriteReg(0x01, 0x80);
 80015ae:	2180      	movs	r1, #128	@ 0x80
 80015b0:	2001      	movs	r0, #1
 80015b2:	f7ff fedb 	bl	800136c <LoRa_WriteReg>
    HAL_Delay(2);
 80015b6:	2002      	movs	r0, #2
 80015b8:	f002 fba4 	bl	8003d04 <HAL_Delay>

    // Frequency
    LoRa_SetFrequency(LORA_FREQUENCY);
 80015bc:	4818      	ldr	r0, [pc, #96]	@ (8001620 <LoRa_Init+0x88>)
 80015be:	f7ff ffad 	bl	800151c <LoRa_SetFrequency>

    // PA config
    LoRa_WriteReg(0x09, 0x8F); // PA_BOOST
 80015c2:	218f      	movs	r1, #143	@ 0x8f
 80015c4:	2009      	movs	r0, #9
 80015c6:	f7ff fed1 	bl	800136c <LoRa_WriteReg>
    LoRa_WriteReg(0x4D, 0x87); // RegPaDac
 80015ca:	2187      	movs	r1, #135	@ 0x87
 80015cc:	204d      	movs	r0, #77	@ 0x4d
 80015ce:	f7ff fecd 	bl	800136c <LoRa_WriteReg>

    // LNA
    LoRa_WriteReg(0x0C, 0x23);
 80015d2:	2123      	movs	r1, #35	@ 0x23
 80015d4:	200c      	movs	r0, #12
 80015d6:	f7ff fec9 	bl	800136c <LoRa_WriteReg>

    // Modem config
    LoRa_WriteReg(0x1D, 0x72);
 80015da:	2172      	movs	r1, #114	@ 0x72
 80015dc:	201d      	movs	r0, #29
 80015de:	f7ff fec5 	bl	800136c <LoRa_WriteReg>
    LoRa_WriteReg(0x1E, 0x74);
 80015e2:	2174      	movs	r1, #116	@ 0x74
 80015e4:	201e      	movs	r0, #30
 80015e6:	f7ff fec1 	bl	800136c <LoRa_WriteReg>
    LoRa_WriteReg(0x26, 0x04);
 80015ea:	2104      	movs	r1, #4
 80015ec:	2026      	movs	r0, #38	@ 0x26
 80015ee:	f7ff febd 	bl	800136c <LoRa_WriteReg>

    // Preamble
    LoRa_WriteReg(0x20, 0x00);
 80015f2:	2100      	movs	r1, #0
 80015f4:	2020      	movs	r0, #32
 80015f6:	f7ff feb9 	bl	800136c <LoRa_WriteReg>
    LoRa_WriteReg(0x21, 0x08);
 80015fa:	2108      	movs	r1, #8
 80015fc:	2021      	movs	r0, #33	@ 0x21
 80015fe:	f7ff feb5 	bl	800136c <LoRa_WriteReg>

    // SyncWord
    LoRa_WriteReg(0x39, 0x22);
 8001602:	2122      	movs	r1, #34	@ 0x22
 8001604:	2039      	movs	r0, #57	@ 0x39
 8001606:	f7ff feb1 	bl	800136c <LoRa_WriteReg>

    // DIO mapping
    LoRa_WriteReg(0x40, 0x00);
 800160a:	2100      	movs	r1, #0
 800160c:	2040      	movs	r0, #64	@ 0x40
 800160e:	f7ff fead 	bl	800136c <LoRa_WriteReg>

    // Clear IRQs
    LoRa_WriteReg(0x12, 0xFF);
 8001612:	21ff      	movs	r1, #255	@ 0xff
 8001614:	2012      	movs	r0, #18
 8001616:	f7ff fea9 	bl	800136c <LoRa_WriteReg>
}
 800161a:	bf00      	nop
 800161c:	bd80      	pop	{r7, pc}
 800161e:	bf00      	nop
 8001620:	19cf0e40 	.word	0x19cf0e40

08001624 <LoRa_SetStandby>:

/* ---------------- Mode control ---------------- */
void LoRa_SetStandby(void) { LoRa_WriteReg(0x01, 0x81); }
 8001624:	b580      	push	{r7, lr}
 8001626:	af00      	add	r7, sp, #0
 8001628:	2181      	movs	r1, #129	@ 0x81
 800162a:	2001      	movs	r0, #1
 800162c:	f7ff fe9e 	bl	800136c <LoRa_WriteReg>
 8001630:	bf00      	nop
 8001632:	bd80      	pop	{r7, pc}

08001634 <LoRa_SetRxContinuous>:
void LoRa_SetRxContinuous(void) { LoRa_WriteReg(0x01, 0x85); }
 8001634:	b580      	push	{r7, lr}
 8001636:	af00      	add	r7, sp, #0
 8001638:	2185      	movs	r1, #133	@ 0x85
 800163a:	2001      	movs	r0, #1
 800163c:	f7ff fe96 	bl	800136c <LoRa_WriteReg>
 8001640:	bf00      	nop
 8001642:	bd80      	pop	{r7, pc}

08001644 <LoRa_SetTx>:
void LoRa_SetTx(void) { LoRa_WriteReg(0x01, 0x83); }
 8001644:	b580      	push	{r7, lr}
 8001646:	af00      	add	r7, sp, #0
 8001648:	2183      	movs	r1, #131	@ 0x83
 800164a:	2001      	movs	r0, #1
 800164c:	f7ff fe8e 	bl	800136c <LoRa_WriteReg>
 8001650:	bf00      	nop
 8001652:	bd80      	pop	{r7, pc}

08001654 <LoRa_SendPacket>:

/* ---------------- Send packet ---------------- */
void LoRa_SendPacket(const uint8_t *buffer, uint8_t size) {
 8001654:	b580      	push	{r7, lr}
 8001656:	b084      	sub	sp, #16
 8001658:	af00      	add	r7, sp, #0
 800165a:	6078      	str	r0, [r7, #4]
 800165c:	460b      	mov	r3, r1
 800165e:	70fb      	strb	r3, [r7, #3]
    LoRa_SetStandby();
 8001660:	f7ff ffe0 	bl	8001624 <LoRa_SetStandby>

    // FIFO reset
    LoRa_WriteReg(0x0E, 0x00);
 8001664:	2100      	movs	r1, #0
 8001666:	200e      	movs	r0, #14
 8001668:	f7ff fe80 	bl	800136c <LoRa_WriteReg>
    LoRa_WriteReg(0x0D, 0x00);
 800166c:	2100      	movs	r1, #0
 800166e:	200d      	movs	r0, #13
 8001670:	f7ff fe7c 	bl	800136c <LoRa_WriteReg>

    // Write payload
    LoRa_WriteBuffer(0x00, buffer, size);
 8001674:	78fb      	ldrb	r3, [r7, #3]
 8001676:	461a      	mov	r2, r3
 8001678:	6879      	ldr	r1, [r7, #4]
 800167a:	2000      	movs	r0, #0
 800167c:	f7ff fed4 	bl	8001428 <LoRa_WriteBuffer>
    LoRa_WriteReg(0x22, size);
 8001680:	78fb      	ldrb	r3, [r7, #3]
 8001682:	4619      	mov	r1, r3
 8001684:	2022      	movs	r0, #34	@ 0x22
 8001686:	f7ff fe71 	bl	800136c <LoRa_WriteReg>

    // Clear IRQs
    LoRa_WriteReg(0x12, 0xFF);
 800168a:	21ff      	movs	r1, #255	@ 0xff
 800168c:	2012      	movs	r0, #18
 800168e:	f7ff fe6d 	bl	800136c <LoRa_WriteReg>

    LoRa_SetTx();
 8001692:	f7ff ffd7 	bl	8001644 <LoRa_SetTx>

    // Wait for TxDone
    uint32_t start = HAL_GetTick();
 8001696:	f002 fb2b 	bl	8003cf0 <HAL_GetTick>
 800169a:	60f8      	str	r0, [r7, #12]
    while (!(LoRa_ReadReg(0x12) & 0x08)) {
 800169c:	e00e      	b.n	80016bc <LoRa_SendPacket+0x68>
        if (HAL_GetTick() - start > LORA_TIMEOUT) {
 800169e:	f002 fb27 	bl	8003cf0 <HAL_GetTick>
 80016a2:	4602      	mov	r2, r0
 80016a4:	68fb      	ldr	r3, [r7, #12]
 80016a6:	1ad3      	subs	r3, r2, r3
 80016a8:	f5b3 6ffa 	cmp.w	r3, #2000	@ 0x7d0
 80016ac:	d906      	bls.n	80016bc <LoRa_SendPacket+0x68>
            LoRa_WriteReg(0x12, 0xFF);
 80016ae:	21ff      	movs	r1, #255	@ 0xff
 80016b0:	2012      	movs	r0, #18
 80016b2:	f7ff fe5b 	bl	800136c <LoRa_WriteReg>
            LoRa_SetRxContinuous();
 80016b6:	f7ff ffbd 	bl	8001634 <LoRa_SetRxContinuous>
            return;
 80016ba:	e00d      	b.n	80016d8 <LoRa_SendPacket+0x84>
    while (!(LoRa_ReadReg(0x12) & 0x08)) {
 80016bc:	2012      	movs	r0, #18
 80016be:	f7ff fe81 	bl	80013c4 <LoRa_ReadReg>
 80016c2:	4603      	mov	r3, r0
 80016c4:	f003 0308 	and.w	r3, r3, #8
 80016c8:	2b00      	cmp	r3, #0
 80016ca:	d0e8      	beq.n	800169e <LoRa_SendPacket+0x4a>
        }
    }

    LoRa_WriteReg(0x12, 0x08); // Clear TxDone
 80016cc:	2108      	movs	r1, #8
 80016ce:	2012      	movs	r0, #18
 80016d0:	f7ff fe4c 	bl	800136c <LoRa_WriteReg>
    LoRa_SetRxContinuous();
 80016d4:	f7ff ffae 	bl	8001634 <LoRa_SetRxContinuous>
}
 80016d8:	3710      	adds	r7, #16
 80016da:	46bd      	mov	sp, r7
 80016dc:	bd80      	pop	{r7, pc}

080016de <LoRa_ReceivePacket>:

/* ---------------- Receive packet ---------------- */
uint8_t LoRa_ReceivePacket(uint8_t *buffer) {
 80016de:	b580      	push	{r7, lr}
 80016e0:	b084      	sub	sp, #16
 80016e2:	af00      	add	r7, sp, #0
 80016e4:	6078      	str	r0, [r7, #4]
    uint8_t irq = LoRa_ReadReg(0x12);
 80016e6:	2012      	movs	r0, #18
 80016e8:	f7ff fe6c 	bl	80013c4 <LoRa_ReadReg>
 80016ec:	4603      	mov	r3, r0
 80016ee:	73fb      	strb	r3, [r7, #15]
    if (irq & 0x40) { // RxDone
 80016f0:	7bfb      	ldrb	r3, [r7, #15]
 80016f2:	f003 0340 	and.w	r3, r3, #64	@ 0x40
 80016f6:	2b00      	cmp	r3, #0
 80016f8:	d025      	beq.n	8001746 <LoRa_ReceivePacket+0x68>
        if (irq & 0x20) { // CRC error
 80016fa:	7bfb      	ldrb	r3, [r7, #15]
 80016fc:	f003 0320 	and.w	r3, r3, #32
 8001700:	2b00      	cmp	r3, #0
 8001702:	d005      	beq.n	8001710 <LoRa_ReceivePacket+0x32>
            LoRa_WriteReg(0x12, 0xFF);
 8001704:	21ff      	movs	r1, #255	@ 0xff
 8001706:	2012      	movs	r0, #18
 8001708:	f7ff fe30 	bl	800136c <LoRa_WriteReg>
            return 0;
 800170c:	2300      	movs	r3, #0
 800170e:	e01b      	b.n	8001748 <LoRa_ReceivePacket+0x6a>
        }
        uint8_t len = LoRa_ReadReg(0x13);
 8001710:	2013      	movs	r0, #19
 8001712:	f7ff fe57 	bl	80013c4 <LoRa_ReadReg>
 8001716:	4603      	mov	r3, r0
 8001718:	73bb      	strb	r3, [r7, #14]
        uint8_t addr = LoRa_ReadReg(0x10);
 800171a:	2010      	movs	r0, #16
 800171c:	f7ff fe52 	bl	80013c4 <LoRa_ReadReg>
 8001720:	4603      	mov	r3, r0
 8001722:	737b      	strb	r3, [r7, #13]
        LoRa_WriteReg(0x0D, addr);
 8001724:	7b7b      	ldrb	r3, [r7, #13]
 8001726:	4619      	mov	r1, r3
 8001728:	200d      	movs	r0, #13
 800172a:	f7ff fe1f 	bl	800136c <LoRa_WriteReg>
        LoRa_ReadBuffer(0x00, buffer, len);
 800172e:	7bbb      	ldrb	r3, [r7, #14]
 8001730:	461a      	mov	r2, r3
 8001732:	6879      	ldr	r1, [r7, #4]
 8001734:	2000      	movs	r0, #0
 8001736:	f7ff fea9 	bl	800148c <LoRa_ReadBuffer>
        LoRa_WriteReg(0x12, 0xFF);
 800173a:	21ff      	movs	r1, #255	@ 0xff
 800173c:	2012      	movs	r0, #18
 800173e:	f7ff fe15 	bl	800136c <LoRa_WriteReg>
        return len;
 8001742:	7bbb      	ldrb	r3, [r7, #14]
 8001744:	e000      	b.n	8001748 <LoRa_ReceivePacket+0x6a>
    }
    return 0;
 8001746:	2300      	movs	r3, #0
}
 8001748:	4618      	mov	r0, r3
 800174a:	3710      	adds	r7, #16
 800174c:	46bd      	mov	sp, r7
 800174e:	bd80      	pop	{r7, pc}

08001750 <LoRa_Task>:

/* ---------------- LoRa Task (non-blocking) ---------------- */
void LoRa_Task(void) {
 8001750:	b580      	push	{r7, lr}
 8001752:	b098      	sub	sp, #96	@ 0x60
 8001754:	af00      	add	r7, sp, #0
    static uint32_t lastPing = 0;
    char dbg[LORA_BUFFER_SIZE];

    // Verify chip
    uint8_t version = LoRa_ReadReg(0x42);
 8001756:	2042      	movs	r0, #66	@ 0x42
 8001758:	f7ff fe34 	bl	80013c4 <LoRa_ReadReg>
 800175c:	4603      	mov	r3, r0
 800175e:	f887 305f 	strb.w	r3, [r7, #95]	@ 0x5f
    if (version != 0x12) {
 8001762:	f897 305f 	ldrb.w	r3, [r7, #95]	@ 0x5f
 8001766:	2b12      	cmp	r3, #18
 8001768:	d00d      	beq.n	8001786 <LoRa_Task+0x36>
        snprintf(dbg, sizeof(dbg), "LoRa not found! RegVersion=0x%02X\r\n", version);
 800176a:	f897 305f 	ldrb.w	r3, [r7, #95]	@ 0x5f
 800176e:	f107 001c 	add.w	r0, r7, #28
 8001772:	4a66      	ldr	r2, [pc, #408]	@ (800190c <LoRa_Task+0x1bc>)
 8001774:	2140      	movs	r1, #64	@ 0x40
 8001776:	f006 f8c9 	bl	800790c <sniprintf>
        Debug_Print(dbg);
 800177a:	f107 031c 	add.w	r3, r7, #28
 800177e:	4618      	mov	r0, r3
 8001780:	f000 f8e6 	bl	8001950 <Debug_Print>
 8001784:	e0be      	b.n	8001904 <LoRa_Task+0x1b4>
        return;
    }

    switch (loraMode) {
 8001786:	4b62      	ldr	r3, [pc, #392]	@ (8001910 <LoRa_Task+0x1c0>)
 8001788:	781b      	ldrb	r3, [r3, #0]
 800178a:	2b03      	cmp	r3, #3
 800178c:	d069      	beq.n	8001862 <LoRa_Task+0x112>
 800178e:	2b03      	cmp	r3, #3
 8001790:	f300 80af 	bgt.w	80018f2 <LoRa_Task+0x1a2>
 8001794:	2b01      	cmp	r3, #1
 8001796:	d002      	beq.n	800179e <LoRa_Task+0x4e>
 8001798:	2b02      	cmp	r3, #2
 800179a:	d01f      	beq.n	80017dc <LoRa_Task+0x8c>
 800179c:	e0a9      	b.n	80018f2 <LoRa_Task+0x1a2>
    case LORA_MODE_TRANSMITTER:
        if (HAL_GetTick() - lastPing > 1000) { // every 1s
 800179e:	f002 faa7 	bl	8003cf0 <HAL_GetTick>
 80017a2:	4602      	mov	r2, r0
 80017a4:	4b5b      	ldr	r3, [pc, #364]	@ (8001914 <LoRa_Task+0x1c4>)
 80017a6:	681b      	ldr	r3, [r3, #0]
 80017a8:	1ad3      	subs	r3, r2, r3
 80017aa:	f5b3 7f7a 	cmp.w	r3, #1000	@ 0x3e8
 80017ae:	f240 80a4 	bls.w	80018fa <LoRa_Task+0x1aa>
            uint8_t msg[] = "HELLO_TX";
 80017b2:	4a59      	ldr	r2, [pc, #356]	@ (8001918 <LoRa_Task+0x1c8>)
 80017b4:	f107 0310 	add.w	r3, r7, #16
 80017b8:	ca07      	ldmia	r2, {r0, r1, r2}
 80017ba:	c303      	stmia	r3!, {r0, r1}
 80017bc:	701a      	strb	r2, [r3, #0]
            LoRa_SendPacket(msg, sizeof(msg) - 1);
 80017be:	f107 0310 	add.w	r3, r7, #16
 80017c2:	2108      	movs	r1, #8
 80017c4:	4618      	mov	r0, r3
 80017c6:	f7ff ff45 	bl	8001654 <LoRa_SendPacket>
            Debug_Print("TX: HELLO_TX\r\n");
 80017ca:	4854      	ldr	r0, [pc, #336]	@ (800191c <LoRa_Task+0x1cc>)
 80017cc:	f000 f8c0 	bl	8001950 <Debug_Print>
            lastPing = HAL_GetTick();
 80017d0:	f002 fa8e 	bl	8003cf0 <HAL_GetTick>
 80017d4:	4603      	mov	r3, r0
 80017d6:	4a4f      	ldr	r2, [pc, #316]	@ (8001914 <LoRa_Task+0x1c4>)
 80017d8:	6013      	str	r3, [r2, #0]
        }
        break;
 80017da:	e08e      	b.n	80018fa <LoRa_Task+0x1aa>

    case LORA_MODE_RECEIVER: {
        uint8_t len = LoRa_ReceivePacket(rxBuffer);
 80017dc:	4850      	ldr	r0, [pc, #320]	@ (8001920 <LoRa_Task+0x1d0>)
 80017de:	f7ff ff7e 	bl	80016de <LoRa_ReceivePacket>
 80017e2:	4603      	mov	r3, r0
 80017e4:	f887 305d 	strb.w	r3, [r7, #93]	@ 0x5d
        if (len > 0) {
 80017e8:	f897 305d 	ldrb.w	r3, [r7, #93]	@ 0x5d
 80017ec:	2b00      	cmp	r3, #0
 80017ee:	f000 8086 	beq.w	80018fe <LoRa_Task+0x1ae>
            rxBuffer[len] = '\0';
 80017f2:	f897 305d 	ldrb.w	r3, [r7, #93]	@ 0x5d
 80017f6:	4a4a      	ldr	r2, [pc, #296]	@ (8001920 <LoRa_Task+0x1d0>)
 80017f8:	2100      	movs	r1, #0
 80017fa:	54d1      	strb	r1, [r2, r3]
            snprintf(dbg, sizeof(dbg), "RX: %s\r\n", rxBuffer);
 80017fc:	f107 001c 	add.w	r0, r7, #28
 8001800:	4b47      	ldr	r3, [pc, #284]	@ (8001920 <LoRa_Task+0x1d0>)
 8001802:	4a48      	ldr	r2, [pc, #288]	@ (8001924 <LoRa_Task+0x1d4>)
 8001804:	2140      	movs	r1, #64	@ 0x40
 8001806:	f006 f881 	bl	800790c <sniprintf>
            Debug_Print(dbg);
 800180a:	f107 031c 	add.w	r3, r7, #28
 800180e:	4618      	mov	r0, r3
 8001810:	f000 f89e 	bl	8001950 <Debug_Print>

            z=123;
 8001814:	4b44      	ldr	r3, [pc, #272]	@ (8001928 <LoRa_Task+0x1d8>)
 8001816:	227b      	movs	r2, #123	@ 0x7b
 8001818:	701a      	strb	r2, [r3, #0]
            if (strcmp((char*)rxBuffer, LORA_PING_MSG) == 0) {
 800181a:	4944      	ldr	r1, [pc, #272]	@ (800192c <LoRa_Task+0x1dc>)
 800181c:	4840      	ldr	r0, [pc, #256]	@ (8001920 <LoRa_Task+0x1d0>)
 800181e:	f7fe fc95 	bl	800014c <strcmp>
 8001822:	4603      	mov	r3, r0
 8001824:	2b00      	cmp	r3, #0
 8001826:	d10e      	bne.n	8001846 <LoRa_Task+0xf6>
                uint8_t ack[] = LORA_ACK_MSG;
 8001828:	4b41      	ldr	r3, [pc, #260]	@ (8001930 <LoRa_Task+0x1e0>)
 800182a:	60fb      	str	r3, [r7, #12]
                LoRa_SendPacket(ack, sizeof(ack) - 1);
 800182c:	f107 030c 	add.w	r3, r7, #12
 8001830:	2103      	movs	r1, #3
 8001832:	4618      	mov	r0, r3
 8001834:	f7ff ff0e 	bl	8001654 <LoRa_SendPacket>
                Debug_Print("Sent ACK\r\n");
 8001838:	483e      	ldr	r0, [pc, #248]	@ (8001934 <LoRa_Task+0x1e4>)
 800183a:	f000 f889 	bl	8001950 <Debug_Print>
                connectionStatus = 1;
 800183e:	4b3e      	ldr	r3, [pc, #248]	@ (8001938 <LoRa_Task+0x1e8>)
 8001840:	2201      	movs	r2, #1
 8001842:	701a      	strb	r2, [r3, #0]
            } else if (strcmp((char*)rxBuffer, LORA_HELLO_MSG) == 0) {
                Debug_Print("HELLO received, Connection OK\r\n");
                connectionStatus = 1;
            }
        }
        break;
 8001844:	e05b      	b.n	80018fe <LoRa_Task+0x1ae>
            } else if (strcmp((char*)rxBuffer, LORA_HELLO_MSG) == 0) {
 8001846:	493d      	ldr	r1, [pc, #244]	@ (800193c <LoRa_Task+0x1ec>)
 8001848:	4835      	ldr	r0, [pc, #212]	@ (8001920 <LoRa_Task+0x1d0>)
 800184a:	f7fe fc7f 	bl	800014c <strcmp>
 800184e:	4603      	mov	r3, r0
 8001850:	2b00      	cmp	r3, #0
 8001852:	d154      	bne.n	80018fe <LoRa_Task+0x1ae>
                Debug_Print("HELLO received, Connection OK\r\n");
 8001854:	483a      	ldr	r0, [pc, #232]	@ (8001940 <LoRa_Task+0x1f0>)
 8001856:	f000 f87b 	bl	8001950 <Debug_Print>
                connectionStatus = 1;
 800185a:	4b37      	ldr	r3, [pc, #220]	@ (8001938 <LoRa_Task+0x1e8>)
 800185c:	2201      	movs	r2, #1
 800185e:	701a      	strb	r2, [r3, #0]
        break;
 8001860:	e04d      	b.n	80018fe <LoRa_Task+0x1ae>
    }

    case LORA_MODE_TRANCEIVER: {
        uint8_t len = LoRa_ReceivePacket(rxBuffer);
 8001862:	482f      	ldr	r0, [pc, #188]	@ (8001920 <LoRa_Task+0x1d0>)
 8001864:	f7ff ff3b 	bl	80016de <LoRa_ReceivePacket>
 8001868:	4603      	mov	r3, r0
 800186a:	f887 305e 	strb.w	r3, [r7, #94]	@ 0x5e
        if (len > 0) {
 800186e:	f897 305e 	ldrb.w	r3, [r7, #94]	@ 0x5e
 8001872:	2b00      	cmp	r3, #0
 8001874:	d022      	beq.n	80018bc <LoRa_Task+0x16c>
            rxBuffer[len] = '\0';
 8001876:	f897 305e 	ldrb.w	r3, [r7, #94]	@ 0x5e
 800187a:	4a29      	ldr	r2, [pc, #164]	@ (8001920 <LoRa_Task+0x1d0>)
 800187c:	2100      	movs	r1, #0
 800187e:	54d1      	strb	r1, [r2, r3]
            snprintf(dbg, sizeof(dbg), "RX: %s\r\n", rxBuffer);
 8001880:	f107 001c 	add.w	r0, r7, #28
 8001884:	4b26      	ldr	r3, [pc, #152]	@ (8001920 <LoRa_Task+0x1d0>)
 8001886:	4a27      	ldr	r2, [pc, #156]	@ (8001924 <LoRa_Task+0x1d4>)
 8001888:	2140      	movs	r1, #64	@ 0x40
 800188a:	f006 f83f 	bl	800790c <sniprintf>
            Debug_Print(dbg);
 800188e:	f107 031c 	add.w	r3, r7, #28
 8001892:	4618      	mov	r0, r3
 8001894:	f000 f85c 	bl	8001950 <Debug_Print>

            if (strcmp((char*)rxBuffer, LORA_PING_MSG) == 0) {
 8001898:	4924      	ldr	r1, [pc, #144]	@ (800192c <LoRa_Task+0x1dc>)
 800189a:	4821      	ldr	r0, [pc, #132]	@ (8001920 <LoRa_Task+0x1d0>)
 800189c:	f7fe fc56 	bl	800014c <strcmp>
 80018a0:	4603      	mov	r3, r0
 80018a2:	2b00      	cmp	r3, #0
 80018a4:	d10a      	bne.n	80018bc <LoRa_Task+0x16c>
                uint8_t ack[] = LORA_ACK_MSG;
 80018a6:	4b22      	ldr	r3, [pc, #136]	@ (8001930 <LoRa_Task+0x1e0>)
 80018a8:	60bb      	str	r3, [r7, #8]
                LoRa_SendPacket(ack, sizeof(ack) - 1);
 80018aa:	f107 0308 	add.w	r3, r7, #8
 80018ae:	2103      	movs	r1, #3
 80018b0:	4618      	mov	r0, r3
 80018b2:	f7ff fecf 	bl	8001654 <LoRa_SendPacket>
                Debug_Print("Sent ACK\r\n");
 80018b6:	481f      	ldr	r0, [pc, #124]	@ (8001934 <LoRa_Task+0x1e4>)
 80018b8:	f000 f84a 	bl	8001950 <Debug_Print>
            }
        }

        // Send PING every 500ms
        if (HAL_GetTick() - lastPing > 500) {
 80018bc:	f002 fa18 	bl	8003cf0 <HAL_GetTick>
 80018c0:	4602      	mov	r2, r0
 80018c2:	4b14      	ldr	r3, [pc, #80]	@ (8001914 <LoRa_Task+0x1c4>)
 80018c4:	681b      	ldr	r3, [r3, #0]
 80018c6:	1ad3      	subs	r3, r2, r3
 80018c8:	f5b3 7ffa 	cmp.w	r3, #500	@ 0x1f4
 80018cc:	d919      	bls.n	8001902 <LoRa_Task+0x1b2>
            uint8_t msg[] = LORA_PING_MSG;
 80018ce:	4b1d      	ldr	r3, [pc, #116]	@ (8001944 <LoRa_Task+0x1f4>)
 80018d0:	603b      	str	r3, [r7, #0]
 80018d2:	2300      	movs	r3, #0
 80018d4:	713b      	strb	r3, [r7, #4]
            LoRa_SendPacket(msg, sizeof(msg) - 1);
 80018d6:	463b      	mov	r3, r7
 80018d8:	2104      	movs	r1, #4
 80018da:	4618      	mov	r0, r3
 80018dc:	f7ff feba 	bl	8001654 <LoRa_SendPacket>
            Debug_Print("Sent PING\r\n");
 80018e0:	4819      	ldr	r0, [pc, #100]	@ (8001948 <LoRa_Task+0x1f8>)
 80018e2:	f000 f835 	bl	8001950 <Debug_Print>
            lastPing = HAL_GetTick();
 80018e6:	f002 fa03 	bl	8003cf0 <HAL_GetTick>
 80018ea:	4603      	mov	r3, r0
 80018ec:	4a09      	ldr	r2, [pc, #36]	@ (8001914 <LoRa_Task+0x1c4>)
 80018ee:	6013      	str	r3, [r2, #0]
        }
        break;
 80018f0:	e007      	b.n	8001902 <LoRa_Task+0x1b2>
    }

    default:
        Debug_Print("Invalid LoRa mode!\r\n");
 80018f2:	4816      	ldr	r0, [pc, #88]	@ (800194c <LoRa_Task+0x1fc>)
 80018f4:	f000 f82c 	bl	8001950 <Debug_Print>
        break;
 80018f8:	e004      	b.n	8001904 <LoRa_Task+0x1b4>
        break;
 80018fa:	bf00      	nop
 80018fc:	e002      	b.n	8001904 <LoRa_Task+0x1b4>
        break;
 80018fe:	bf00      	nop
 8001900:	e000      	b.n	8001904 <LoRa_Task+0x1b4>
        break;
 8001902:	bf00      	nop
    }
}
 8001904:	3760      	adds	r7, #96	@ 0x60
 8001906:	46bd      	mov	sp, r7
 8001908:	bd80      	pop	{r7, pc}
 800190a:	bf00      	nop
 800190c:	0800834c 	.word	0x0800834c
 8001910:	20000018 	.word	0x20000018
 8001914:	200001b0 	.word	0x200001b0
 8001918:	080083ec 	.word	0x080083ec
 800191c:	08008370 	.word	0x08008370
 8001920:	20000170 	.word	0x20000170
 8001924:	08008380 	.word	0x08008380
 8001928:	2000016c 	.word	0x2000016c
 800192c:	0800838c 	.word	0x0800838c
 8001930:	004b4341 	.word	0x004b4341
 8001934:	08008394 	.word	0x08008394
 8001938:	2000016d 	.word	0x2000016d
 800193c:	080083a0 	.word	0x080083a0
 8001940:	080083a8 	.word	0x080083a8
 8001944:	474e4950 	.word	0x474e4950
 8001948:	080083c8 	.word	0x080083c8
 800194c:	080083d4 	.word	0x080083d4

08001950 <Debug_Print>:
}
/* USER CODE END PFP */

/* Private user code ---------------------------------------------------------*/
/* USER CODE BEGIN 0 */
void Debug_Print(char *msg) {
 8001950:	b580      	push	{r7, lr}
 8001952:	b082      	sub	sp, #8
 8001954:	af00      	add	r7, sp, #0
 8001956:	6078      	str	r0, [r7, #4]
    // Use the new UART_TransmitString function
    UART_TransmitString(&huart1, msg);
 8001958:	6879      	ldr	r1, [r7, #4]
 800195a:	4803      	ldr	r0, [pc, #12]	@ (8001968 <Debug_Print+0x18>)
 800195c:	f002 f8f4 	bl	8003b48 <UART_TransmitString>
}
 8001960:	bf00      	nop
 8001962:	3708      	adds	r7, #8
 8001964:	46bd      	mov	sp, r7
 8001966:	bd80      	pop	{r7, pc}
 8001968:	200002a4 	.word	0x200002a4

0800196c <main>:
/**
  * @brief  The application entry point.
  * @retval int
  */
int main(void)
{
 800196c:	b580      	push	{r7, lr}
 800196e:	b084      	sub	sp, #16
 8001970:	af00      	add	r7, sp, #0
  /* USER CODE END 1 */

  /* MCU Configuration--------------------------------------------------------*/

  /* Reset of all peripherals, Initializes the Flash interface and the Systick. */
  HAL_Init();
 8001972:	f002 f965 	bl	8003c40 <HAL_Init>
  /* USER CODE BEGIN Init */

  /* USER CODE END Init */

  /* Configure the system clock */
  SystemClock_Config();
 8001976:	f000 f869 	bl	8001a4c <SystemClock_Config>
  /* USER CODE BEGIN SysInit */

  /* USER CODE END SysInit */

  /* Initialize all configured peripherals */
  MX_GPIO_Init();
 800197a:	f000 f98d 	bl	8001c98 <MX_GPIO_Init>
  MX_ADC1_Init();
 800197e:	f000 f8bf 	bl	8001b00 <MX_ADC1_Init>
//  MX_RTC_Init();
  MX_SPI1_Init();
 8001982:	f000 f929 	bl	8001bd8 <MX_SPI1_Init>
  MX_USART1_UART_Init();
 8001986:	f000 f95d 	bl	8001c44 <MX_USART1_UART_Init>
  MX_I2C2_Init();
 800198a:	f000 f8f7 	bl	8001b7c <MX_I2C2_Init>
  /* USER CODE BEGIN 2 */
  lcd_init();
 800198e:	f7ff fba6 	bl	80010de <lcd_init>
  ADC_Init(&hadc1);
 8001992:	482b      	ldr	r0, [pc, #172]	@ (8001a40 <main+0xd4>)
 8001994:	f7ff f8ca 	bl	8000b2c <ADC_Init>
  LoRa_Init(); // Initialize LoRa module
 8001998:	f7ff fdfe 	bl	8001598 <LoRa_Init>
//  I2C_Scan();
  Screen_Init();
 800199c:	f001 faba 	bl	8002f14 <Screen_Init>
  UART_Init(); // Initialize UART reception (starts the first IT)
 80019a0:	f002 f8b4 	bl	8003b0c <UART_Init>
  Switches_Init();
 80019a4:	f002 f81e 	bl	80039e4 <Switches_Init>
//
//  Debug_Print("System Initialized\r\n");
  uint8_t modem = LoRa_ReadReg(0x1D);
 80019a8:	201d      	movs	r0, #29
 80019aa:	f7ff fd0b 	bl	80013c4 <LoRa_ReadReg>
 80019ae:	4603      	mov	r3, r0
 80019b0:	72fb      	strb	r3, [r7, #11]
  uint8_t modem2 = LoRa_ReadReg(0x1E);
 80019b2:	201e      	movs	r0, #30
 80019b4:	f7ff fd06 	bl	80013c4 <LoRa_ReadReg>
 80019b8:	4603      	mov	r3, r0
 80019ba:	72bb      	strb	r3, [r7, #10]
//
//      }
//  }

         // Process all active modes
         ModelHandle_Process();
 80019bc:	f000 fc70 	bl	80022a0 <ModelHandle_Process>
  /* Infinite loop */
//  /* USER CODE BEGIN WHILE */
         while (1)
         {
             /* --- UI handling (switches + LCD) --- */
             Screen_HandleSwitches();  // Check buttons and update UI state
 80019c0:	f001 fe14 	bl	80035ec <Screen_HandleSwitches>
             Screen_Update();          // Refresh display and cursor blink
 80019c4:	f001 f87c 	bl	8002ac0 <Screen_Update>
             /* --- Periodic data acquisition --- */
             ADC_ReadAllChannels(&hadc1, &adcData);   // update voltages
 80019c8:	491e      	ldr	r1, [pc, #120]	@ (8001a44 <main+0xd8>)
 80019ca:	481d      	ldr	r0, [pc, #116]	@ (8001a40 <main+0xd4>)
 80019cc:	f7ff f8be 	bl	8000b4c <ADC_ReadAllChannels>
             Get_Time();                              // update RTC
 80019d0:	f000 fcdc 	bl	800238c <Get_Time>
             LoRa_Init();
 80019d4:	f7ff fde0 	bl	8001598 <LoRa_Init>
//                 Debug_Print("LoRa transmitter test: SUCCESS\r\n");
//             } else {
//                 Debug_Print("LoRa transmitter test: FAILED\r\n");
//             }

             LoRa_Task();                             // maintain LoRa stack
 80019d8:	f7ff feba 	bl	8001750 <LoRa_Task>

             /* --- UART command handling --- */
             if (UART_GetReceivedPacket(receivedUartPacket, sizeof(receivedUartPacket))) {
 80019dc:	2140      	movs	r1, #64	@ 0x40
 80019de:	481a      	ldr	r0, [pc, #104]	@ (8001a48 <main+0xdc>)
 80019e0:	f002 f8c6 	bl	8003b70 <UART_GetReceivedPacket>
 80019e4:	4603      	mov	r3, r0
 80019e6:	2b00      	cmp	r3, #0
 80019e8:	d01f      	beq.n	8001a2a <main+0xbe>
                 char *p = receivedUartPacket;
 80019ea:	4b17      	ldr	r3, [pc, #92]	@ (8001a48 <main+0xdc>)
 80019ec:	60fb      	str	r3, [r7, #12]
                 size_t n = strlen(receivedUartPacket);
 80019ee:	4816      	ldr	r0, [pc, #88]	@ (8001a48 <main+0xdc>)
 80019f0:	f7fe fbb6 	bl	8000160 <strlen>
 80019f4:	6078      	str	r0, [r7, #4]
                 if (n >= 2 && p[0] == '@' && p[n-1] == '#') {
 80019f6:	687b      	ldr	r3, [r7, #4]
 80019f8:	2b01      	cmp	r3, #1
 80019fa:	d913      	bls.n	8001a24 <main+0xb8>
 80019fc:	68fb      	ldr	r3, [r7, #12]
 80019fe:	781b      	ldrb	r3, [r3, #0]
 8001a00:	2b40      	cmp	r3, #64	@ 0x40
 8001a02:	d10f      	bne.n	8001a24 <main+0xb8>
 8001a04:	687b      	ldr	r3, [r7, #4]
 8001a06:	3b01      	subs	r3, #1
 8001a08:	68fa      	ldr	r2, [r7, #12]
 8001a0a:	4413      	add	r3, r2
 8001a0c:	781b      	ldrb	r3, [r3, #0]
 8001a0e:	2b23      	cmp	r3, #35	@ 0x23
 8001a10:	d108      	bne.n	8001a24 <main+0xb8>
                     p[n-1] = '\0';  // strip end marker
 8001a12:	687b      	ldr	r3, [r7, #4]
 8001a14:	3b01      	subs	r3, #1
 8001a16:	68fa      	ldr	r2, [r7, #12]
 8001a18:	4413      	add	r3, r2
 8001a1a:	2200      	movs	r2, #0
 8001a1c:	701a      	strb	r2, [r3, #0]
                     p++;            // strip start marker
 8001a1e:	68fb      	ldr	r3, [r7, #12]
 8001a20:	3301      	adds	r3, #1
 8001a22:	60fb      	str	r3, [r7, #12]
                 }
                 ModelHandle_ProcessUartCommand(p);   // parse + update model
 8001a24:	68f8      	ldr	r0, [r7, #12]
 8001a26:	f000 fc11 	bl	800224c <ModelHandle_ProcessUartCommand>
             }

             /* --- Business logic: model → hardware --- */
             ModelHandle_Process();   // compute intents for motor, relays, LEDs, timers
 8001a2a:	f000 fc39 	bl	80022a0 <ModelHandle_Process>
             Relay_All(false);        // Example: you can still drive relays individually in model
 8001a2e:	2000      	movs	r0, #0
 8001a30:	f000 fc7a 	bl	8002328 <Relay_All>
             LED_Task();              // blink patterns / status LEDs
 8001a34:	f7ff fbd8 	bl	80011e8 <LED_Task>

             /* --- Cooperative delay for smoothness --- */
             HAL_Delay(1);           // ~100Hz loop rate (good for UI responsiveness)
 8001a38:	2001      	movs	r0, #1
 8001a3a:	f002 f963 	bl	8003d04 <HAL_Delay>
         {
 8001a3e:	e7bf      	b.n	80019c0 <main+0x54>
 8001a40:	200001b4 	.word	0x200001b4
 8001a44:	200002ec 	.word	0x200002ec
 8001a48:	20000318 	.word	0x20000318

08001a4c <SystemClock_Config>:
  * @brief System Clock Configuration
  * @retval None
  */


void SystemClock_Config(void) {
 8001a4c:	b580      	push	{r7, lr}
 8001a4e:	b094      	sub	sp, #80	@ 0x50
 8001a50:	af00      	add	r7, sp, #0
    RCC_OscInitTypeDef RCC_OscInitStruct = {0};
 8001a52:	f107 0328 	add.w	r3, r7, #40	@ 0x28
 8001a56:	2228      	movs	r2, #40	@ 0x28
 8001a58:	2100      	movs	r1, #0
 8001a5a:	4618      	mov	r0, r3
 8001a5c:	f005 ffae 	bl	80079bc <memset>
    RCC_ClkInitTypeDef RCC_ClkInitStruct = {0};
 8001a60:	f107 0314 	add.w	r3, r7, #20
 8001a64:	2200      	movs	r2, #0
 8001a66:	601a      	str	r2, [r3, #0]
 8001a68:	605a      	str	r2, [r3, #4]
 8001a6a:	609a      	str	r2, [r3, #8]
 8001a6c:	60da      	str	r2, [r3, #12]
 8001a6e:	611a      	str	r2, [r3, #16]
    RCC_PeriphCLKInitTypeDef PeriphClkInit = {0};
 8001a70:	1d3b      	adds	r3, r7, #4
 8001a72:	2200      	movs	r2, #0
 8001a74:	601a      	str	r2, [r3, #0]
 8001a76:	605a      	str	r2, [r3, #4]
 8001a78:	609a      	str	r2, [r3, #8]
 8001a7a:	60da      	str	r2, [r3, #12]

    // Use HSI (8 MHz internal) with PLL
    RCC_OscInitStruct.OscillatorType = RCC_OSCILLATORTYPE_HSI;
 8001a7c:	2302      	movs	r3, #2
 8001a7e:	62bb      	str	r3, [r7, #40]	@ 0x28
    RCC_OscInitStruct.HSIState = RCC_HSI_ON;
 8001a80:	2301      	movs	r3, #1
 8001a82:	63bb      	str	r3, [r7, #56]	@ 0x38
    RCC_OscInitStruct.HSICalibrationValue = RCC_HSICALIBRATION_DEFAULT;
 8001a84:	2310      	movs	r3, #16
 8001a86:	63fb      	str	r3, [r7, #60]	@ 0x3c
    RCC_OscInitStruct.PLL.PLLState = RCC_PLL_ON;
 8001a88:	2302      	movs	r3, #2
 8001a8a:	647b      	str	r3, [r7, #68]	@ 0x44
    RCC_OscInitStruct.PLL.PLLSource = RCC_PLLSOURCE_HSI_DIV2; // HSI/2 = 4 MHz
 8001a8c:	2300      	movs	r3, #0
 8001a8e:	64bb      	str	r3, [r7, #72]	@ 0x48
    RCC_OscInitStruct.PLL.PLLMUL = RCC_PLL_MUL16;             // 4*16 = 64 MHz
 8001a90:	f44f 1360 	mov.w	r3, #3670016	@ 0x380000
 8001a94:	64fb      	str	r3, [r7, #76]	@ 0x4c
    if (HAL_RCC_OscConfig(&RCC_OscInitStruct) != HAL_OK) { Error_Handler(); }
 8001a96:	f107 0328 	add.w	r3, r7, #40	@ 0x28
 8001a9a:	4618      	mov	r0, r3
 8001a9c:	f004 f96e 	bl	8005d7c <HAL_RCC_OscConfig>
 8001aa0:	4603      	mov	r3, r0
 8001aa2:	2b00      	cmp	r3, #0
 8001aa4:	d001      	beq.n	8001aaa <SystemClock_Config+0x5e>
 8001aa6:	f000 f98b 	bl	8001dc0 <Error_Handler>

    RCC_ClkInitStruct.ClockType = RCC_CLOCKTYPE_HCLK | RCC_CLOCKTYPE_SYSCLK
 8001aaa:	230f      	movs	r3, #15
 8001aac:	617b      	str	r3, [r7, #20]
                                | RCC_CLOCKTYPE_PCLK1 | RCC_CLOCKTYPE_PCLK2;
    RCC_ClkInitStruct.SYSCLKSource = RCC_SYSCLKSOURCE_PLLCLK; // Updated line
 8001aae:	2302      	movs	r3, #2
 8001ab0:	61bb      	str	r3, [r7, #24]
    RCC_ClkInitStruct.AHBCLKDivider = RCC_SYSCLK_DIV1;
 8001ab2:	2300      	movs	r3, #0
 8001ab4:	61fb      	str	r3, [r7, #28]
    RCC_ClkInitStruct.APB1CLKDivider = RCC_HCLK_DIV2;
 8001ab6:	f44f 6380 	mov.w	r3, #1024	@ 0x400
 8001aba:	623b      	str	r3, [r7, #32]
    RCC_ClkInitStruct.APB2CLKDivider = RCC_HCLK_DIV1;
 8001abc:	2300      	movs	r3, #0
 8001abe:	627b      	str	r3, [r7, #36]	@ 0x24
    if (HAL_RCC_ClockConfig(&RCC_ClkInitStruct, FLASH_LATENCY_2) != HAL_OK) { Error_Handler(); }
 8001ac0:	f107 0314 	add.w	r3, r7, #20
 8001ac4:	2102      	movs	r1, #2
 8001ac6:	4618      	mov	r0, r3
 8001ac8:	f004 fbda 	bl	8006280 <HAL_RCC_ClockConfig>
 8001acc:	4603      	mov	r3, r0
 8001ace:	2b00      	cmp	r3, #0
 8001ad0:	d001      	beq.n	8001ad6 <SystemClock_Config+0x8a>
 8001ad2:	f000 f975 	bl	8001dc0 <Error_Handler>

    // Use LSI (internal ~40 kHz) for RTC, and HSI/6 for ADC
    PeriphClkInit.PeriphClockSelection = RCC_PERIPHCLK_RTC | RCC_PERIPHCLK_ADC;
 8001ad6:	2303      	movs	r3, #3
 8001ad8:	607b      	str	r3, [r7, #4]
    PeriphClkInit.RTCClockSelection = RCC_RTCCLKSOURCE_LSI;
 8001ada:	f44f 7300 	mov.w	r3, #512	@ 0x200
 8001ade:	60bb      	str	r3, [r7, #8]
    PeriphClkInit.AdcClockSelection = RCC_ADCPCLK2_DIV6;
 8001ae0:	f44f 4300 	mov.w	r3, #32768	@ 0x8000
 8001ae4:	60fb      	str	r3, [r7, #12]
    if (HAL_RCCEx_PeriphCLKConfig(&PeriphClkInit) != HAL_OK) { Error_Handler(); }
 8001ae6:	1d3b      	adds	r3, r7, #4
 8001ae8:	4618      	mov	r0, r3
 8001aea:	f004 fd57 	bl	800659c <HAL_RCCEx_PeriphCLKConfig>
 8001aee:	4603      	mov	r3, r0
 8001af0:	2b00      	cmp	r3, #0
 8001af2:	d001      	beq.n	8001af8 <SystemClock_Config+0xac>
 8001af4:	f000 f964 	bl	8001dc0 <Error_Handler>
}
 8001af8:	bf00      	nop
 8001afa:	3750      	adds	r7, #80	@ 0x50
 8001afc:	46bd      	mov	sp, r7
 8001afe:	bd80      	pop	{r7, pc}

08001b00 <MX_ADC1_Init>:
  * @brief ADC1 Initialization Function
  * @param None
  * @retval None
  */
static void MX_ADC1_Init(void)
{
 8001b00:	b580      	push	{r7, lr}
 8001b02:	b084      	sub	sp, #16
 8001b04:	af00      	add	r7, sp, #0

  /* USER CODE BEGIN ADC1_Init 0 */

  /* USER CODE END ADC1_Init 0 */

  ADC_ChannelConfTypeDef sConfig = {0};
 8001b06:	1d3b      	adds	r3, r7, #4
 8001b08:	2200      	movs	r2, #0
 8001b0a:	601a      	str	r2, [r3, #0]
 8001b0c:	605a      	str	r2, [r3, #4]
 8001b0e:	609a      	str	r2, [r3, #8]

  /* USER CODE END ADC1_Init 1 */

  /** Common config
  */
  hadc1.Instance = ADC1;
 8001b10:	4b18      	ldr	r3, [pc, #96]	@ (8001b74 <MX_ADC1_Init+0x74>)
 8001b12:	4a19      	ldr	r2, [pc, #100]	@ (8001b78 <MX_ADC1_Init+0x78>)
 8001b14:	601a      	str	r2, [r3, #0]
  hadc1.Init.ScanConvMode = ADC_SCAN_DISABLE;
 8001b16:	4b17      	ldr	r3, [pc, #92]	@ (8001b74 <MX_ADC1_Init+0x74>)
 8001b18:	2200      	movs	r2, #0
 8001b1a:	609a      	str	r2, [r3, #8]
  hadc1.Init.ContinuousConvMode = DISABLE;
 8001b1c:	4b15      	ldr	r3, [pc, #84]	@ (8001b74 <MX_ADC1_Init+0x74>)
 8001b1e:	2200      	movs	r2, #0
 8001b20:	731a      	strb	r2, [r3, #12]
  hadc1.Init.DiscontinuousConvMode = DISABLE;
 8001b22:	4b14      	ldr	r3, [pc, #80]	@ (8001b74 <MX_ADC1_Init+0x74>)
 8001b24:	2200      	movs	r2, #0
 8001b26:	751a      	strb	r2, [r3, #20]
  hadc1.Init.ExternalTrigConv = ADC_SOFTWARE_START;
 8001b28:	4b12      	ldr	r3, [pc, #72]	@ (8001b74 <MX_ADC1_Init+0x74>)
 8001b2a:	f44f 2260 	mov.w	r2, #917504	@ 0xe0000
 8001b2e:	61da      	str	r2, [r3, #28]
  hadc1.Init.DataAlign = ADC_DATAALIGN_RIGHT;
 8001b30:	4b10      	ldr	r3, [pc, #64]	@ (8001b74 <MX_ADC1_Init+0x74>)
 8001b32:	2200      	movs	r2, #0
 8001b34:	605a      	str	r2, [r3, #4]
  hadc1.Init.NbrOfConversion = 1;
 8001b36:	4b0f      	ldr	r3, [pc, #60]	@ (8001b74 <MX_ADC1_Init+0x74>)
 8001b38:	2201      	movs	r2, #1
 8001b3a:	611a      	str	r2, [r3, #16]
  if (HAL_ADC_Init(&hadc1) != HAL_OK)
 8001b3c:	480d      	ldr	r0, [pc, #52]	@ (8001b74 <MX_ADC1_Init+0x74>)
 8001b3e:	f002 f905 	bl	8003d4c <HAL_ADC_Init>
 8001b42:	4603      	mov	r3, r0
 8001b44:	2b00      	cmp	r3, #0
 8001b46:	d001      	beq.n	8001b4c <MX_ADC1_Init+0x4c>
  {
    Error_Handler();
 8001b48:	f000 f93a 	bl	8001dc0 <Error_Handler>
  }

  /** Configure Regular Channel
  */
  sConfig.Channel = ADC_CHANNEL_0;
 8001b4c:	2300      	movs	r3, #0
 8001b4e:	607b      	str	r3, [r7, #4]
  sConfig.Rank = ADC_REGULAR_RANK_1;
 8001b50:	2301      	movs	r3, #1
 8001b52:	60bb      	str	r3, [r7, #8]
  sConfig.SamplingTime = ADC_SAMPLETIME_1CYCLE_5;
 8001b54:	2300      	movs	r3, #0
 8001b56:	60fb      	str	r3, [r7, #12]
  if (HAL_ADC_ConfigChannel(&hadc1, &sConfig) != HAL_OK)
 8001b58:	1d3b      	adds	r3, r7, #4
 8001b5a:	4619      	mov	r1, r3
 8001b5c:	4805      	ldr	r0, [pc, #20]	@ (8001b74 <MX_ADC1_Init+0x74>)
 8001b5e:	f002 fbb9 	bl	80042d4 <HAL_ADC_ConfigChannel>
 8001b62:	4603      	mov	r3, r0
 8001b64:	2b00      	cmp	r3, #0
 8001b66:	d001      	beq.n	8001b6c <MX_ADC1_Init+0x6c>
  {
    Error_Handler();
 8001b68:	f000 f92a 	bl	8001dc0 <Error_Handler>
  }
  /* USER CODE BEGIN ADC1_Init 2 */

  /* USER CODE END ADC1_Init 2 */

}
 8001b6c:	bf00      	nop
 8001b6e:	3710      	adds	r7, #16
 8001b70:	46bd      	mov	sp, r7
 8001b72:	bd80      	pop	{r7, pc}
 8001b74:	200001b4 	.word	0x200001b4
 8001b78:	40012400 	.word	0x40012400

08001b7c <MX_I2C2_Init>:
  * @brief I2C2 Initialization Function
  * @param None
  * @retval None
  */
static void MX_I2C2_Init(void)
{
 8001b7c:	b580      	push	{r7, lr}
 8001b7e:	af00      	add	r7, sp, #0
  /* USER CODE END I2C2_Init 0 */

  /* USER CODE BEGIN I2C2_Init 1 */

  /* USER CODE END I2C2_Init 1 */
  hi2c2.Instance = I2C2;
 8001b80:	4b12      	ldr	r3, [pc, #72]	@ (8001bcc <MX_I2C2_Init+0x50>)
 8001b82:	4a13      	ldr	r2, [pc, #76]	@ (8001bd0 <MX_I2C2_Init+0x54>)
 8001b84:	601a      	str	r2, [r3, #0]
  hi2c2.Init.ClockSpeed = 100000;
 8001b86:	4b11      	ldr	r3, [pc, #68]	@ (8001bcc <MX_I2C2_Init+0x50>)
 8001b88:	4a12      	ldr	r2, [pc, #72]	@ (8001bd4 <MX_I2C2_Init+0x58>)
 8001b8a:	605a      	str	r2, [r3, #4]
  hi2c2.Init.DutyCycle = I2C_DUTYCYCLE_2;
 8001b8c:	4b0f      	ldr	r3, [pc, #60]	@ (8001bcc <MX_I2C2_Init+0x50>)
 8001b8e:	2200      	movs	r2, #0
 8001b90:	609a      	str	r2, [r3, #8]
  hi2c2.Init.OwnAddress1 = 0;
 8001b92:	4b0e      	ldr	r3, [pc, #56]	@ (8001bcc <MX_I2C2_Init+0x50>)
 8001b94:	2200      	movs	r2, #0
 8001b96:	60da      	str	r2, [r3, #12]
  hi2c2.Init.AddressingMode = I2C_ADDRESSINGMODE_7BIT;
 8001b98:	4b0c      	ldr	r3, [pc, #48]	@ (8001bcc <MX_I2C2_Init+0x50>)
 8001b9a:	f44f 4280 	mov.w	r2, #16384	@ 0x4000
 8001b9e:	611a      	str	r2, [r3, #16]
  hi2c2.Init.DualAddressMode = I2C_DUALADDRESS_DISABLE;
 8001ba0:	4b0a      	ldr	r3, [pc, #40]	@ (8001bcc <MX_I2C2_Init+0x50>)
 8001ba2:	2200      	movs	r2, #0
 8001ba4:	615a      	str	r2, [r3, #20]
  hi2c2.Init.OwnAddress2 = 0;
 8001ba6:	4b09      	ldr	r3, [pc, #36]	@ (8001bcc <MX_I2C2_Init+0x50>)
 8001ba8:	2200      	movs	r2, #0
 8001baa:	619a      	str	r2, [r3, #24]
  hi2c2.Init.GeneralCallMode = I2C_GENERALCALL_DISABLE;
 8001bac:	4b07      	ldr	r3, [pc, #28]	@ (8001bcc <MX_I2C2_Init+0x50>)
 8001bae:	2200      	movs	r2, #0
 8001bb0:	61da      	str	r2, [r3, #28]
  hi2c2.Init.NoStretchMode = I2C_NOSTRETCH_DISABLE;
 8001bb2:	4b06      	ldr	r3, [pc, #24]	@ (8001bcc <MX_I2C2_Init+0x50>)
 8001bb4:	2200      	movs	r2, #0
 8001bb6:	621a      	str	r2, [r3, #32]
  if (HAL_I2C_Init(&hi2c2) != HAL_OK)
 8001bb8:	4804      	ldr	r0, [pc, #16]	@ (8001bcc <MX_I2C2_Init+0x50>)
 8001bba:	f003 f87d 	bl	8004cb8 <HAL_I2C_Init>
 8001bbe:	4603      	mov	r3, r0
 8001bc0:	2b00      	cmp	r3, #0
 8001bc2:	d001      	beq.n	8001bc8 <MX_I2C2_Init+0x4c>
  {
    Error_Handler();
 8001bc4:	f000 f8fc 	bl	8001dc0 <Error_Handler>
  }
  /* USER CODE BEGIN I2C2_Init 2 */

  /* USER CODE END I2C2_Init 2 */

}
 8001bc8:	bf00      	nop
 8001bca:	bd80      	pop	{r7, pc}
 8001bcc:	200001e4 	.word	0x200001e4
 8001bd0:	40005800 	.word	0x40005800
 8001bd4:	000186a0 	.word	0x000186a0

08001bd8 <MX_SPI1_Init>:
  * @brief SPI1 Initialization Function
  * @param None
  * @retval None
  */
static void MX_SPI1_Init(void)
{
 8001bd8:	b580      	push	{r7, lr}
 8001bda:	af00      	add	r7, sp, #0

  /* USER CODE BEGIN SPI1_Init 1 */

  /* USER CODE END SPI1_Init 1 */
  /* SPI1 parameter configuration*/
  hspi1.Instance = SPI1;
 8001bdc:	4b17      	ldr	r3, [pc, #92]	@ (8001c3c <MX_SPI1_Init+0x64>)
 8001bde:	4a18      	ldr	r2, [pc, #96]	@ (8001c40 <MX_SPI1_Init+0x68>)
 8001be0:	601a      	str	r2, [r3, #0]
  hspi1.Init.Mode = SPI_MODE_MASTER;
 8001be2:	4b16      	ldr	r3, [pc, #88]	@ (8001c3c <MX_SPI1_Init+0x64>)
 8001be4:	f44f 7282 	mov.w	r2, #260	@ 0x104
 8001be8:	605a      	str	r2, [r3, #4]
  hspi1.Init.Direction = SPI_DIRECTION_2LINES;
 8001bea:	4b14      	ldr	r3, [pc, #80]	@ (8001c3c <MX_SPI1_Init+0x64>)
 8001bec:	2200      	movs	r2, #0
 8001bee:	609a      	str	r2, [r3, #8]
  hspi1.Init.DataSize = SPI_DATASIZE_8BIT;
 8001bf0:	4b12      	ldr	r3, [pc, #72]	@ (8001c3c <MX_SPI1_Init+0x64>)
 8001bf2:	2200      	movs	r2, #0
 8001bf4:	60da      	str	r2, [r3, #12]
  hspi1.Init.CLKPolarity = SPI_POLARITY_LOW;
 8001bf6:	4b11      	ldr	r3, [pc, #68]	@ (8001c3c <MX_SPI1_Init+0x64>)
 8001bf8:	2200      	movs	r2, #0
 8001bfa:	611a      	str	r2, [r3, #16]
  hspi1.Init.CLKPhase = SPI_PHASE_1EDGE;
 8001bfc:	4b0f      	ldr	r3, [pc, #60]	@ (8001c3c <MX_SPI1_Init+0x64>)
 8001bfe:	2200      	movs	r2, #0
 8001c00:	615a      	str	r2, [r3, #20]
  hspi1.Init.NSS = SPI_NSS_SOFT;
 8001c02:	4b0e      	ldr	r3, [pc, #56]	@ (8001c3c <MX_SPI1_Init+0x64>)
 8001c04:	f44f 7200 	mov.w	r2, #512	@ 0x200
 8001c08:	619a      	str	r2, [r3, #24]
  hspi1.Init.BaudRatePrescaler = SPI_BAUDRATEPRESCALER_16;
 8001c0a:	4b0c      	ldr	r3, [pc, #48]	@ (8001c3c <MX_SPI1_Init+0x64>)
 8001c0c:	2218      	movs	r2, #24
 8001c0e:	61da      	str	r2, [r3, #28]
  hspi1.Init.FirstBit = SPI_FIRSTBIT_MSB;
 8001c10:	4b0a      	ldr	r3, [pc, #40]	@ (8001c3c <MX_SPI1_Init+0x64>)
 8001c12:	2200      	movs	r2, #0
 8001c14:	621a      	str	r2, [r3, #32]
  hspi1.Init.TIMode = SPI_TIMODE_DISABLE;
 8001c16:	4b09      	ldr	r3, [pc, #36]	@ (8001c3c <MX_SPI1_Init+0x64>)
 8001c18:	2200      	movs	r2, #0
 8001c1a:	625a      	str	r2, [r3, #36]	@ 0x24
  hspi1.Init.CRCCalculation = SPI_CRCCALCULATION_DISABLE;
 8001c1c:	4b07      	ldr	r3, [pc, #28]	@ (8001c3c <MX_SPI1_Init+0x64>)
 8001c1e:	2200      	movs	r2, #0
 8001c20:	629a      	str	r2, [r3, #40]	@ 0x28
  hspi1.Init.CRCPolynomial = 10;
 8001c22:	4b06      	ldr	r3, [pc, #24]	@ (8001c3c <MX_SPI1_Init+0x64>)
 8001c24:	220a      	movs	r2, #10
 8001c26:	62da      	str	r2, [r3, #44]	@ 0x2c
  if (HAL_SPI_Init(&hspi1) != HAL_OK)
 8001c28:	4804      	ldr	r0, [pc, #16]	@ (8001c3c <MX_SPI1_Init+0x64>)
 8001c2a:	f004 fe56 	bl	80068da <HAL_SPI_Init>
 8001c2e:	4603      	mov	r3, r0
 8001c30:	2b00      	cmp	r3, #0
 8001c32:	d001      	beq.n	8001c38 <MX_SPI1_Init+0x60>
  {
    Error_Handler();
 8001c34:	f000 f8c4 	bl	8001dc0 <Error_Handler>
  }
  /* USER CODE BEGIN SPI1_Init 2 */

  /* USER CODE END SPI1_Init 2 */

}
 8001c38:	bf00      	nop
 8001c3a:	bd80      	pop	{r7, pc}
 8001c3c:	2000024c 	.word	0x2000024c
 8001c40:	40013000 	.word	0x40013000

08001c44 <MX_USART1_UART_Init>:
  * @brief USART1 Initialization Function
  * @param None
  * @retval None
  */
static void MX_USART1_UART_Init(void)
{
 8001c44:	b580      	push	{r7, lr}
 8001c46:	af00      	add	r7, sp, #0
  /* USER CODE END USART1_Init 0 */

  /* USER CODE BEGIN USART1_Init 1 */

  /* USER CODE END USART1_Init 1 */
  huart1.Instance = USART1;
 8001c48:	4b11      	ldr	r3, [pc, #68]	@ (8001c90 <MX_USART1_UART_Init+0x4c>)
 8001c4a:	4a12      	ldr	r2, [pc, #72]	@ (8001c94 <MX_USART1_UART_Init+0x50>)
 8001c4c:	601a      	str	r2, [r3, #0]
  huart1.Init.BaudRate = 115200;
 8001c4e:	4b10      	ldr	r3, [pc, #64]	@ (8001c90 <MX_USART1_UART_Init+0x4c>)
 8001c50:	f44f 32e1 	mov.w	r2, #115200	@ 0x1c200
 8001c54:	605a      	str	r2, [r3, #4]
  huart1.Init.WordLength = UART_WORDLENGTH_8B;
 8001c56:	4b0e      	ldr	r3, [pc, #56]	@ (8001c90 <MX_USART1_UART_Init+0x4c>)
 8001c58:	2200      	movs	r2, #0
 8001c5a:	609a      	str	r2, [r3, #8]
  huart1.Init.StopBits = UART_STOPBITS_1;
 8001c5c:	4b0c      	ldr	r3, [pc, #48]	@ (8001c90 <MX_USART1_UART_Init+0x4c>)
 8001c5e:	2200      	movs	r2, #0
 8001c60:	60da      	str	r2, [r3, #12]
  huart1.Init.Parity = UART_PARITY_NONE;
 8001c62:	4b0b      	ldr	r3, [pc, #44]	@ (8001c90 <MX_USART1_UART_Init+0x4c>)
 8001c64:	2200      	movs	r2, #0
 8001c66:	611a      	str	r2, [r3, #16]
  huart1.Init.Mode = UART_MODE_TX_RX;
 8001c68:	4b09      	ldr	r3, [pc, #36]	@ (8001c90 <MX_USART1_UART_Init+0x4c>)
 8001c6a:	220c      	movs	r2, #12
 8001c6c:	615a      	str	r2, [r3, #20]
  huart1.Init.HwFlowCtl = UART_HWCONTROL_NONE;
 8001c6e:	4b08      	ldr	r3, [pc, #32]	@ (8001c90 <MX_USART1_UART_Init+0x4c>)
 8001c70:	2200      	movs	r2, #0
 8001c72:	619a      	str	r2, [r3, #24]
  huart1.Init.OverSampling = UART_OVERSAMPLING_16;
 8001c74:	4b06      	ldr	r3, [pc, #24]	@ (8001c90 <MX_USART1_UART_Init+0x4c>)
 8001c76:	2200      	movs	r2, #0
 8001c78:	61da      	str	r2, [r3, #28]
  if (HAL_UART_Init(&huart1) != HAL_OK)
 8001c7a:	4805      	ldr	r0, [pc, #20]	@ (8001c90 <MX_USART1_UART_Init+0x4c>)
 8001c7c:	f005 fbc3 	bl	8007406 <HAL_UART_Init>
 8001c80:	4603      	mov	r3, r0
 8001c82:	2b00      	cmp	r3, #0
 8001c84:	d001      	beq.n	8001c8a <MX_USART1_UART_Init+0x46>
  {
    Error_Handler();
 8001c86:	f000 f89b 	bl	8001dc0 <Error_Handler>
  }
  /* USER CODE BEGIN USART1_Init 2 */

  /* USER CODE END USART1_Init 2 */

}
 8001c8a:	bf00      	nop
 8001c8c:	bd80      	pop	{r7, pc}
 8001c8e:	bf00      	nop
 8001c90:	200002a4 	.word	0x200002a4
 8001c94:	40013800 	.word	0x40013800

08001c98 <MX_GPIO_Init>:
  * @brief GPIO Initialization Function
  * @param None
  * @retval None
  */
static void MX_GPIO_Init(void)
{
 8001c98:	b580      	push	{r7, lr}
 8001c9a:	b088      	sub	sp, #32
 8001c9c:	af00      	add	r7, sp, #0
  GPIO_InitTypeDef GPIO_InitStruct = {0};
 8001c9e:	f107 0310 	add.w	r3, r7, #16
 8001ca2:	2200      	movs	r2, #0
 8001ca4:	601a      	str	r2, [r3, #0]
 8001ca6:	605a      	str	r2, [r3, #4]
 8001ca8:	609a      	str	r2, [r3, #8]
 8001caa:	60da      	str	r2, [r3, #12]
  /* USER CODE BEGIN MX_GPIO_Init_1 */

  /* USER CODE END MX_GPIO_Init_1 */

  /* GPIO Ports Clock Enable */
  __HAL_RCC_GPIOC_CLK_ENABLE();
 8001cac:	4b40      	ldr	r3, [pc, #256]	@ (8001db0 <MX_GPIO_Init+0x118>)
 8001cae:	699b      	ldr	r3, [r3, #24]
 8001cb0:	4a3f      	ldr	r2, [pc, #252]	@ (8001db0 <MX_GPIO_Init+0x118>)
 8001cb2:	f043 0310 	orr.w	r3, r3, #16
 8001cb6:	6193      	str	r3, [r2, #24]
 8001cb8:	4b3d      	ldr	r3, [pc, #244]	@ (8001db0 <MX_GPIO_Init+0x118>)
 8001cba:	699b      	ldr	r3, [r3, #24]
 8001cbc:	f003 0310 	and.w	r3, r3, #16
 8001cc0:	60fb      	str	r3, [r7, #12]
 8001cc2:	68fb      	ldr	r3, [r7, #12]
  __HAL_RCC_GPIOD_CLK_ENABLE();
 8001cc4:	4b3a      	ldr	r3, [pc, #232]	@ (8001db0 <MX_GPIO_Init+0x118>)
 8001cc6:	699b      	ldr	r3, [r3, #24]
 8001cc8:	4a39      	ldr	r2, [pc, #228]	@ (8001db0 <MX_GPIO_Init+0x118>)
 8001cca:	f043 0320 	orr.w	r3, r3, #32
 8001cce:	6193      	str	r3, [r2, #24]
 8001cd0:	4b37      	ldr	r3, [pc, #220]	@ (8001db0 <MX_GPIO_Init+0x118>)
 8001cd2:	699b      	ldr	r3, [r3, #24]
 8001cd4:	f003 0320 	and.w	r3, r3, #32
 8001cd8:	60bb      	str	r3, [r7, #8]
 8001cda:	68bb      	ldr	r3, [r7, #8]
  __HAL_RCC_GPIOA_CLK_ENABLE();
 8001cdc:	4b34      	ldr	r3, [pc, #208]	@ (8001db0 <MX_GPIO_Init+0x118>)
 8001cde:	699b      	ldr	r3, [r3, #24]
 8001ce0:	4a33      	ldr	r2, [pc, #204]	@ (8001db0 <MX_GPIO_Init+0x118>)
 8001ce2:	f043 0304 	orr.w	r3, r3, #4
 8001ce6:	6193      	str	r3, [r2, #24]
 8001ce8:	4b31      	ldr	r3, [pc, #196]	@ (8001db0 <MX_GPIO_Init+0x118>)
 8001cea:	699b      	ldr	r3, [r3, #24]
 8001cec:	f003 0304 	and.w	r3, r3, #4
 8001cf0:	607b      	str	r3, [r7, #4]
 8001cf2:	687b      	ldr	r3, [r7, #4]
  __HAL_RCC_GPIOB_CLK_ENABLE();
 8001cf4:	4b2e      	ldr	r3, [pc, #184]	@ (8001db0 <MX_GPIO_Init+0x118>)
 8001cf6:	699b      	ldr	r3, [r3, #24]
 8001cf8:	4a2d      	ldr	r2, [pc, #180]	@ (8001db0 <MX_GPIO_Init+0x118>)
 8001cfa:	f043 0308 	orr.w	r3, r3, #8
 8001cfe:	6193      	str	r3, [r2, #24]
 8001d00:	4b2b      	ldr	r3, [pc, #172]	@ (8001db0 <MX_GPIO_Init+0x118>)
 8001d02:	699b      	ldr	r3, [r3, #24]
 8001d04:	f003 0308 	and.w	r3, r3, #8
 8001d08:	603b      	str	r3, [r7, #0]
 8001d0a:	683b      	ldr	r3, [r7, #0]

  /*Configure GPIO pin Output Level */
  HAL_GPIO_WritePin(GPIOB, Relay1_Pin|Relay2_Pin|Relay3_Pin|LORA_STATUS_Pin
 8001d0c:	2200      	movs	r2, #0
 8001d0e:	f240 3147 	movw	r1, #839	@ 0x347
 8001d12:	4828      	ldr	r0, [pc, #160]	@ (8001db4 <MX_GPIO_Init+0x11c>)
 8001d14:	f002 ff9f 	bl	8004c56 <HAL_GPIO_WritePin>
                          |LED4_Pin|LED5_Pin, GPIO_PIN_RESET);

  /*Configure GPIO pin Output Level */
  HAL_GPIO_WritePin(GPIOA, LED1_Pin|LED2_Pin|LED3_Pin|LORA_SELECT_Pin, GPIO_PIN_RESET);
 8001d18:	2200      	movs	r2, #0
 8001d1a:	f44f 4119 	mov.w	r1, #39168	@ 0x9900
 8001d1e:	4826      	ldr	r0, [pc, #152]	@ (8001db8 <MX_GPIO_Init+0x120>)
 8001d20:	f002 ff99 	bl	8004c56 <HAL_GPIO_WritePin>

  /*Configure GPIO pins : AC_voltage_Pin AC_current_Pin */
  GPIO_InitStruct.Pin = AC_voltage_Pin|AC_current_Pin;
 8001d24:	23c0      	movs	r3, #192	@ 0xc0
 8001d26:	613b      	str	r3, [r7, #16]
  GPIO_InitStruct.Mode = GPIO_MODE_ANALOG;
 8001d28:	2303      	movs	r3, #3
 8001d2a:	617b      	str	r3, [r7, #20]
  HAL_GPIO_Init(GPIOA, &GPIO_InitStruct);
 8001d2c:	f107 0310 	add.w	r3, r7, #16
 8001d30:	4619      	mov	r1, r3
 8001d32:	4821      	ldr	r0, [pc, #132]	@ (8001db8 <MX_GPIO_Init+0x120>)
 8001d34:	f002 fdf4 	bl	8004920 <HAL_GPIO_Init>

  /*Configure GPIO pins : Relay1_Pin Relay2_Pin Relay3_Pin LORA_STATUS_Pin
                           LED4_Pin LED5_Pin */
  GPIO_InitStruct.Pin = Relay1_Pin|Relay2_Pin|Relay3_Pin|LORA_STATUS_Pin
 8001d38:	f240 3347 	movw	r3, #839	@ 0x347
 8001d3c:	613b      	str	r3, [r7, #16]
                          |LED4_Pin|LED5_Pin;
  GPIO_InitStruct.Mode = GPIO_MODE_OUTPUT_PP;
 8001d3e:	2301      	movs	r3, #1
 8001d40:	617b      	str	r3, [r7, #20]
  GPIO_InitStruct.Pull = GPIO_NOPULL;
 8001d42:	2300      	movs	r3, #0
 8001d44:	61bb      	str	r3, [r7, #24]
  GPIO_InitStruct.Speed = GPIO_SPEED_FREQ_LOW;
 8001d46:	2302      	movs	r3, #2
 8001d48:	61fb      	str	r3, [r7, #28]
  HAL_GPIO_Init(GPIOB, &GPIO_InitStruct);
 8001d4a:	f107 0310 	add.w	r3, r7, #16
 8001d4e:	4619      	mov	r1, r3
 8001d50:	4818      	ldr	r0, [pc, #96]	@ (8001db4 <MX_GPIO_Init+0x11c>)
 8001d52:	f002 fde5 	bl	8004920 <HAL_GPIO_Init>

  /*Configure GPIO pins : SWITCH1_Pin SWITCH2_Pin SWITCH3_Pin SWITCH4_Pin */
  GPIO_InitStruct.Pin = SWITCH1_Pin|SWITCH2_Pin|SWITCH3_Pin|SWITCH4_Pin;
 8001d56:	f44f 4370 	mov.w	r3, #61440	@ 0xf000
 8001d5a:	613b      	str	r3, [r7, #16]
  GPIO_InitStruct.Mode = GPIO_MODE_IT_RISING_FALLING;
 8001d5c:	4b17      	ldr	r3, [pc, #92]	@ (8001dbc <MX_GPIO_Init+0x124>)
 8001d5e:	617b      	str	r3, [r7, #20]
  GPIO_InitStruct.Pull = GPIO_PULLUP;
 8001d60:	2301      	movs	r3, #1
 8001d62:	61bb      	str	r3, [r7, #24]
  HAL_GPIO_Init(GPIOB, &GPIO_InitStruct);
 8001d64:	f107 0310 	add.w	r3, r7, #16
 8001d68:	4619      	mov	r1, r3
 8001d6a:	4812      	ldr	r0, [pc, #72]	@ (8001db4 <MX_GPIO_Init+0x11c>)
 8001d6c:	f002 fdd8 	bl	8004920 <HAL_GPIO_Init>

  /*Configure GPIO pins : LED1_Pin LED2_Pin LED3_Pin LORA_SELECT_Pin */
  GPIO_InitStruct.Pin = LED1_Pin|LED2_Pin|LED3_Pin|LORA_SELECT_Pin;
 8001d70:	f44f 4319 	mov.w	r3, #39168	@ 0x9900
 8001d74:	613b      	str	r3, [r7, #16]
  GPIO_InitStruct.Mode = GPIO_MODE_OUTPUT_PP;
 8001d76:	2301      	movs	r3, #1
 8001d78:	617b      	str	r3, [r7, #20]
  GPIO_InitStruct.Pull = GPIO_NOPULL;
 8001d7a:	2300      	movs	r3, #0
 8001d7c:	61bb      	str	r3, [r7, #24]
  GPIO_InitStruct.Speed = GPIO_SPEED_FREQ_LOW;
 8001d7e:	2302      	movs	r3, #2
 8001d80:	61fb      	str	r3, [r7, #28]
  HAL_GPIO_Init(GPIOA, &GPIO_InitStruct);
 8001d82:	f107 0310 	add.w	r3, r7, #16
 8001d86:	4619      	mov	r1, r3
 8001d88:	480b      	ldr	r0, [pc, #44]	@ (8001db8 <MX_GPIO_Init+0x120>)
 8001d8a:	f002 fdc9 	bl	8004920 <HAL_GPIO_Init>

  /*Configure GPIO pin : RF_DATA_Pin */
  GPIO_InitStruct.Pin = RF_DATA_Pin;
 8001d8e:	2380      	movs	r3, #128	@ 0x80
 8001d90:	613b      	str	r3, [r7, #16]
  GPIO_InitStruct.Mode = GPIO_MODE_INPUT;
 8001d92:	2300      	movs	r3, #0
 8001d94:	617b      	str	r3, [r7, #20]
  GPIO_InitStruct.Pull = GPIO_NOPULL;
 8001d96:	2300      	movs	r3, #0
 8001d98:	61bb      	str	r3, [r7, #24]
  HAL_GPIO_Init(RF_DATA_GPIO_Port, &GPIO_InitStruct);
 8001d9a:	f107 0310 	add.w	r3, r7, #16
 8001d9e:	4619      	mov	r1, r3
 8001da0:	4804      	ldr	r0, [pc, #16]	@ (8001db4 <MX_GPIO_Init+0x11c>)
 8001da2:	f002 fdbd 	bl	8004920 <HAL_GPIO_Init>

  /* USER CODE BEGIN MX_GPIO_Init_2 */

  /* USER CODE END MX_GPIO_Init_2 */
}
 8001da6:	bf00      	nop
 8001da8:	3720      	adds	r7, #32
 8001daa:	46bd      	mov	sp, r7
 8001dac:	bd80      	pop	{r7, pc}
 8001dae:	bf00      	nop
 8001db0:	40021000 	.word	0x40021000
 8001db4:	40010c00 	.word	0x40010c00
 8001db8:	40010800 	.word	0x40010800
 8001dbc:	10310000 	.word	0x10310000

08001dc0 <Error_Handler>:
/**
  * @brief  This function is executed in case of error occurrence.
  * @retval None
  */
void Error_Handler(void)
{
 8001dc0:	b480      	push	{r7}
 8001dc2:	af00      	add	r7, sp, #0
  \details Disables IRQ interrupts by setting the I-bit in the CPSR.
           Can only be executed in Privileged modes.
 */
__STATIC_FORCEINLINE void __disable_irq(void)
{
  __ASM volatile ("cpsid i" : : : "memory");
 8001dc4:	b672      	cpsid	i
}
 8001dc6:	bf00      	nop
  /* USER CODE BEGIN Error_Handler_Debug */
  /* User can add his own implementation to report the HAL error return state */
  __disable_irq();
  while (1)
 8001dc8:	bf00      	nop
 8001dca:	e7fd      	b.n	8001dc8 <Error_Handler+0x8>

08001dcc <now_ms>:
static const uint32_t MAX_CONT_RUN_MS = 2UL * 60UL * 60UL * 1000UL; // 2h
static bool           maxRunTimerArmed = false;
static uint32_t       maxRunStartTick  = 0;

/* ===== Utilities ===== */
static inline uint32_t now_ms(void) { return HAL_GetTick(); }
 8001dcc:	b580      	push	{r7, lr}
 8001dce:	af00      	add	r7, sp, #0
 8001dd0:	f001 ff8e 	bl	8003cf0 <HAL_GetTick>
 8001dd4:	4603      	mov	r3, r0
 8001dd6:	4618      	mov	r0, r3
 8001dd8:	bd80      	pop	{r7, pc}
	...

08001ddc <motor_apply>:
    if (mm) *mm = (uint8_t)((sec % 3600UL) / 60UL);
}

/* ===== Motor ===== */
static void motor_apply(bool on)
{
 8001ddc:	b580      	push	{r7, lr}
 8001dde:	b082      	sub	sp, #8
 8001de0:	af00      	add	r7, sp, #0
 8001de2:	4603      	mov	r3, r0
 8001de4:	71fb      	strb	r3, [r7, #7]
    Relay_Set(1, on);
 8001de6:	79fb      	ldrb	r3, [r7, #7]
 8001de8:	4619      	mov	r1, r3
 8001dea:	2001      	movs	r0, #1
 8001dec:	f000 fa78 	bl	80022e0 <Relay_Set>
    motorStatus = on ? 1U : 0U;
 8001df0:	79fb      	ldrb	r3, [r7, #7]
 8001df2:	2b00      	cmp	r3, #0
 8001df4:	d001      	beq.n	8001dfa <motor_apply+0x1e>
 8001df6:	2201      	movs	r2, #1
 8001df8:	e000      	b.n	8001dfc <motor_apply+0x20>
 8001dfa:	2200      	movs	r2, #0
 8001dfc:	4b0d      	ldr	r3, [pc, #52]	@ (8001e34 <motor_apply+0x58>)
 8001dfe:	701a      	strb	r2, [r3, #0]

    if (on) {
 8001e00:	79fb      	ldrb	r3, [r7, #7]
 8001e02:	2b00      	cmp	r3, #0
 8001e04:	d00f      	beq.n	8001e26 <motor_apply+0x4a>
        if (!maxRunTimerArmed) {
 8001e06:	4b0c      	ldr	r3, [pc, #48]	@ (8001e38 <motor_apply+0x5c>)
 8001e08:	781b      	ldrb	r3, [r3, #0]
 8001e0a:	f083 0301 	eor.w	r3, r3, #1
 8001e0e:	b2db      	uxtb	r3, r3
 8001e10:	2b00      	cmp	r3, #0
 8001e12:	d00b      	beq.n	8001e2c <motor_apply+0x50>
            maxRunTimerArmed = true;
 8001e14:	4b08      	ldr	r3, [pc, #32]	@ (8001e38 <motor_apply+0x5c>)
 8001e16:	2201      	movs	r2, #1
 8001e18:	701a      	strb	r2, [r3, #0]
            maxRunStartTick  = now_ms();
 8001e1a:	f7ff ffd7 	bl	8001dcc <now_ms>
 8001e1e:	4603      	mov	r3, r0
 8001e20:	4a06      	ldr	r2, [pc, #24]	@ (8001e3c <motor_apply+0x60>)
 8001e22:	6013      	str	r3, [r2, #0]
        }
    } else {
        maxRunTimerArmed = false;
    }
}
 8001e24:	e002      	b.n	8001e2c <motor_apply+0x50>
        maxRunTimerArmed = false;
 8001e26:	4b04      	ldr	r3, [pc, #16]	@ (8001e38 <motor_apply+0x5c>)
 8001e28:	2200      	movs	r2, #0
 8001e2a:	701a      	strb	r2, [r3, #0]
}
 8001e2c:	bf00      	nop
 8001e2e:	3708      	adds	r7, #8
 8001e30:	46bd      	mov	sp, r7
 8001e32:	bd80      	pop	{r7, pc}
 8001e34:	20000358 	.word	0x20000358
 8001e38:	200003b8 	.word	0x200003b8
 8001e3c:	200003bc 	.word	0x200003bc

08001e40 <countdown_tick>:
    if (onMode) motor_apply(true);
    else        motor_apply(false);
}

static void countdown_tick(void)
{
 8001e40:	b580      	push	{r7, lr}
 8001e42:	b082      	sub	sp, #8
 8001e44:	af00      	add	r7, sp, #0
    if (!countdownActive) return;
 8001e46:	4b1b      	ldr	r3, [pc, #108]	@ (8001eb4 <countdown_tick+0x74>)
 8001e48:	781b      	ldrb	r3, [r3, #0]
 8001e4a:	b2db      	uxtb	r3, r3
 8001e4c:	f083 0301 	eor.w	r3, r3, #1
 8001e50:	b2db      	uxtb	r3, r3
 8001e52:	2b00      	cmp	r3, #0
 8001e54:	d12a      	bne.n	8001eac <countdown_tick+0x6c>

    uint32_t tnow = now_ms();
 8001e56:	f7ff ffb9 	bl	8001dcc <now_ms>
 8001e5a:	6078      	str	r0, [r7, #4]
    if ((int32_t)(countdownDeadline - tnow) <= 0) {
 8001e5c:	4b16      	ldr	r3, [pc, #88]	@ (8001eb8 <countdown_tick+0x78>)
 8001e5e:	681a      	ldr	r2, [r3, #0]
 8001e60:	687b      	ldr	r3, [r7, #4]
 8001e62:	1ad3      	subs	r3, r2, r3
 8001e64:	2b00      	cmp	r3, #0
 8001e66:	dc12      	bgt.n	8001e8e <countdown_tick+0x4e>
        if (countdownMode) motor_apply(false);
 8001e68:	4b14      	ldr	r3, [pc, #80]	@ (8001ebc <countdown_tick+0x7c>)
 8001e6a:	781b      	ldrb	r3, [r3, #0]
 8001e6c:	b2db      	uxtb	r3, r3
 8001e6e:	2b00      	cmp	r3, #0
 8001e70:	d003      	beq.n	8001e7a <countdown_tick+0x3a>
 8001e72:	2000      	movs	r0, #0
 8001e74:	f7ff ffb2 	bl	8001ddc <motor_apply>
 8001e78:	e002      	b.n	8001e80 <countdown_tick+0x40>
        else               motor_apply(true);
 8001e7a:	2001      	movs	r0, #1
 8001e7c:	f7ff ffae 	bl	8001ddc <motor_apply>
        countdownActive   = false;
 8001e80:	4b0c      	ldr	r3, [pc, #48]	@ (8001eb4 <countdown_tick+0x74>)
 8001e82:	2200      	movs	r2, #0
 8001e84:	701a      	strb	r2, [r3, #0]
        countdownDuration = 0;
 8001e86:	4b0e      	ldr	r3, [pc, #56]	@ (8001ec0 <countdown_tick+0x80>)
 8001e88:	2200      	movs	r2, #0
 8001e8a:	601a      	str	r2, [r3, #0]
        return;
 8001e8c:	e00f      	b.n	8001eae <countdown_tick+0x6e>
    }

    uint32_t remaining_ms = countdownDeadline - tnow;
 8001e8e:	4b0a      	ldr	r3, [pc, #40]	@ (8001eb8 <countdown_tick+0x78>)
 8001e90:	681a      	ldr	r2, [r3, #0]
 8001e92:	687b      	ldr	r3, [r7, #4]
 8001e94:	1ad3      	subs	r3, r2, r3
 8001e96:	603b      	str	r3, [r7, #0]
    countdownDuration = (remaining_ms + 999) / 1000;
 8001e98:	683b      	ldr	r3, [r7, #0]
 8001e9a:	f203 33e7 	addw	r3, r3, #999	@ 0x3e7
 8001e9e:	4a09      	ldr	r2, [pc, #36]	@ (8001ec4 <countdown_tick+0x84>)
 8001ea0:	fba2 2303 	umull	r2, r3, r2, r3
 8001ea4:	099b      	lsrs	r3, r3, #6
 8001ea6:	4a06      	ldr	r2, [pc, #24]	@ (8001ec0 <countdown_tick+0x80>)
 8001ea8:	6013      	str	r3, [r2, #0]
 8001eaa:	e000      	b.n	8001eae <countdown_tick+0x6e>
    if (!countdownActive) return;
 8001eac:	bf00      	nop
}
 8001eae:	3708      	adds	r7, #8
 8001eb0:	46bd      	mov	sp, r7
 8001eb2:	bd80      	pop	{r7, pc}
 8001eb4:	20000359 	.word	0x20000359
 8001eb8:	20000360 	.word	0x20000360
 8001ebc:	20000019 	.word	0x20000019
 8001ec0:	2000035c 	.word	0x2000035c
 8001ec4:	10624dd3 	.word	0x10624dd3

08001ec8 <twist_tick>:
/* ===== Twist ===== */
static bool     twist_on_phase = false;
static uint32_t twist_phase_deadline = 0;

static void twist_tick(void)
{
 8001ec8:	b580      	push	{r7, lr}
 8001eca:	b082      	sub	sp, #8
 8001ecc:	af00      	add	r7, sp, #0
    if (!twistSettings.twistActive) return;
 8001ece:	4b22      	ldr	r3, [pc, #136]	@ (8001f58 <twist_tick+0x90>)
 8001ed0:	781b      	ldrb	r3, [r3, #0]
 8001ed2:	f083 0301 	eor.w	r3, r3, #1
 8001ed6:	b2db      	uxtb	r3, r3
 8001ed8:	2b00      	cmp	r3, #0
 8001eda:	d137      	bne.n	8001f4c <twist_tick+0x84>

    uint32_t tnow = now_ms();
 8001edc:	f7ff ff76 	bl	8001dcc <now_ms>
 8001ee0:	6078      	str	r0, [r7, #4]
    if ((int32_t)(twist_phase_deadline - tnow) > 0) return;
 8001ee2:	4b1e      	ldr	r3, [pc, #120]	@ (8001f5c <twist_tick+0x94>)
 8001ee4:	681a      	ldr	r2, [r3, #0]
 8001ee6:	687b      	ldr	r3, [r7, #4]
 8001ee8:	1ad3      	subs	r3, r2, r3
 8001eea:	2b00      	cmp	r3, #0
 8001eec:	dc30      	bgt.n	8001f50 <twist_tick+0x88>

    twist_on_phase = !twist_on_phase;
 8001eee:	4b1c      	ldr	r3, [pc, #112]	@ (8001f60 <twist_tick+0x98>)
 8001ef0:	781b      	ldrb	r3, [r3, #0]
 8001ef2:	2b00      	cmp	r3, #0
 8001ef4:	bf14      	ite	ne
 8001ef6:	2301      	movne	r3, #1
 8001ef8:	2300      	moveq	r3, #0
 8001efa:	b2db      	uxtb	r3, r3
 8001efc:	f083 0301 	eor.w	r3, r3, #1
 8001f00:	b2db      	uxtb	r3, r3
 8001f02:	f003 0301 	and.w	r3, r3, #1
 8001f06:	b2da      	uxtb	r2, r3
 8001f08:	4b15      	ldr	r3, [pc, #84]	@ (8001f60 <twist_tick+0x98>)
 8001f0a:	701a      	strb	r2, [r3, #0]
    if (twist_on_phase) {
 8001f0c:	4b14      	ldr	r3, [pc, #80]	@ (8001f60 <twist_tick+0x98>)
 8001f0e:	781b      	ldrb	r3, [r3, #0]
 8001f10:	2b00      	cmp	r3, #0
 8001f12:	d00d      	beq.n	8001f30 <twist_tick+0x68>
        motor_apply(true);
 8001f14:	2001      	movs	r0, #1
 8001f16:	f7ff ff61 	bl	8001ddc <motor_apply>
        twist_phase_deadline = tnow + (twistSettings.onDurationSeconds * 1000UL);
 8001f1a:	4b0f      	ldr	r3, [pc, #60]	@ (8001f58 <twist_tick+0x90>)
 8001f1c:	685b      	ldr	r3, [r3, #4]
 8001f1e:	f44f 727a 	mov.w	r2, #1000	@ 0x3e8
 8001f22:	fb03 f202 	mul.w	r2, r3, r2
 8001f26:	687b      	ldr	r3, [r7, #4]
 8001f28:	4413      	add	r3, r2
 8001f2a:	4a0c      	ldr	r2, [pc, #48]	@ (8001f5c <twist_tick+0x94>)
 8001f2c:	6013      	str	r3, [r2, #0]
 8001f2e:	e010      	b.n	8001f52 <twist_tick+0x8a>
    } else {
        motor_apply(false);
 8001f30:	2000      	movs	r0, #0
 8001f32:	f7ff ff53 	bl	8001ddc <motor_apply>
        twist_phase_deadline = tnow + (twistSettings.offDurationSeconds * 1000UL);
 8001f36:	4b08      	ldr	r3, [pc, #32]	@ (8001f58 <twist_tick+0x90>)
 8001f38:	689b      	ldr	r3, [r3, #8]
 8001f3a:	f44f 727a 	mov.w	r2, #1000	@ 0x3e8
 8001f3e:	fb03 f202 	mul.w	r2, r3, r2
 8001f42:	687b      	ldr	r3, [r7, #4]
 8001f44:	4413      	add	r3, r2
 8001f46:	4a05      	ldr	r2, [pc, #20]	@ (8001f5c <twist_tick+0x94>)
 8001f48:	6013      	str	r3, [r2, #0]
 8001f4a:	e002      	b.n	8001f52 <twist_tick+0x8a>
    if (!twistSettings.twistActive) return;
 8001f4c:	bf00      	nop
 8001f4e:	e000      	b.n	8001f52 <twist_tick+0x8a>
    if ((int32_t)(twist_phase_deadline - tnow) > 0) return;
 8001f50:	bf00      	nop
    }
}
 8001f52:	3708      	adds	r7, #8
 8001f54:	46bd      	mov	sp, r7
 8001f56:	bd80      	pop	{r7, pc}
 8001f58:	20000028 	.word	0x20000028
 8001f5c:	200003c4 	.word	0x200003c4
 8001f60:	200003c0 	.word	0x200003c0

08001f64 <search_tick>:
/* ===== Search ===== */
static bool     search_in_test = false;
static uint32_t search_phase_deadline = 0;

static void search_tick(void)
{
 8001f64:	b580      	push	{r7, lr}
 8001f66:	b082      	sub	sp, #8
 8001f68:	af00      	add	r7, sp, #0
    if (!searchSettings.searchActive) return;
 8001f6a:	4b1f      	ldr	r3, [pc, #124]	@ (8001fe8 <search_tick+0x84>)
 8001f6c:	781b      	ldrb	r3, [r3, #0]
 8001f6e:	f083 0301 	eor.w	r3, r3, #1
 8001f72:	b2db      	uxtb	r3, r3
 8001f74:	2b00      	cmp	r3, #0
 8001f76:	d131      	bne.n	8001fdc <search_tick+0x78>

    uint32_t tnow = now_ms();
 8001f78:	f7ff ff28 	bl	8001dcc <now_ms>
 8001f7c:	6078      	str	r0, [r7, #4]
    if ((int32_t)(search_phase_deadline - tnow) > 0) return;
 8001f7e:	4b1b      	ldr	r3, [pc, #108]	@ (8001fec <search_tick+0x88>)
 8001f80:	681a      	ldr	r2, [r3, #0]
 8001f82:	687b      	ldr	r3, [r7, #4]
 8001f84:	1ad3      	subs	r3, r2, r3
 8001f86:	2b00      	cmp	r3, #0
 8001f88:	dc2a      	bgt.n	8001fe0 <search_tick+0x7c>

    if (!search_in_test) {
 8001f8a:	4b19      	ldr	r3, [pc, #100]	@ (8001ff0 <search_tick+0x8c>)
 8001f8c:	781b      	ldrb	r3, [r3, #0]
 8001f8e:	f083 0301 	eor.w	r3, r3, #1
 8001f92:	b2db      	uxtb	r3, r3
 8001f94:	2b00      	cmp	r3, #0
 8001f96:	d010      	beq.n	8001fba <search_tick+0x56>
        search_in_test = true;
 8001f98:	4b15      	ldr	r3, [pc, #84]	@ (8001ff0 <search_tick+0x8c>)
 8001f9a:	2201      	movs	r2, #1
 8001f9c:	701a      	strb	r2, [r3, #0]
        motor_apply(true);
 8001f9e:	2001      	movs	r0, #1
 8001fa0:	f7ff ff1c 	bl	8001ddc <motor_apply>
        search_phase_deadline = tnow + (searchSettings.dryRunTimeSeconds * 1000UL);
 8001fa4:	4b10      	ldr	r3, [pc, #64]	@ (8001fe8 <search_tick+0x84>)
 8001fa6:	689b      	ldr	r3, [r3, #8]
 8001fa8:	f44f 727a 	mov.w	r2, #1000	@ 0x3e8
 8001fac:	fb03 f202 	mul.w	r2, r3, r2
 8001fb0:	687b      	ldr	r3, [r7, #4]
 8001fb2:	4413      	add	r3, r2
 8001fb4:	4a0d      	ldr	r2, [pc, #52]	@ (8001fec <search_tick+0x88>)
 8001fb6:	6013      	str	r3, [r2, #0]
 8001fb8:	e013      	b.n	8001fe2 <search_tick+0x7e>
    } else {
        motor_apply(false);
 8001fba:	2000      	movs	r0, #0
 8001fbc:	f7ff ff0e 	bl	8001ddc <motor_apply>
        search_in_test = false;
 8001fc0:	4b0b      	ldr	r3, [pc, #44]	@ (8001ff0 <search_tick+0x8c>)
 8001fc2:	2200      	movs	r2, #0
 8001fc4:	701a      	strb	r2, [r3, #0]
        search_phase_deadline = tnow + (searchSettings.testingGapSeconds * 1000UL);
 8001fc6:	4b08      	ldr	r3, [pc, #32]	@ (8001fe8 <search_tick+0x84>)
 8001fc8:	685b      	ldr	r3, [r3, #4]
 8001fca:	f44f 727a 	mov.w	r2, #1000	@ 0x3e8
 8001fce:	fb03 f202 	mul.w	r2, r3, r2
 8001fd2:	687b      	ldr	r3, [r7, #4]
 8001fd4:	4413      	add	r3, r2
 8001fd6:	4a05      	ldr	r2, [pc, #20]	@ (8001fec <search_tick+0x88>)
 8001fd8:	6013      	str	r3, [r2, #0]
 8001fda:	e002      	b.n	8001fe2 <search_tick+0x7e>
    if (!searchSettings.searchActive) return;
 8001fdc:	bf00      	nop
 8001fde:	e000      	b.n	8001fe2 <search_tick+0x7e>
    if ((int32_t)(search_phase_deadline - tnow) > 0) return;
 8001fe0:	bf00      	nop
    }
}
 8001fe2:	3708      	adds	r7, #8
 8001fe4:	46bd      	mov	sp, r7
 8001fe6:	bd80      	pop	{r7, pc}
 8001fe8:	2000001c 	.word	0x2000001c
 8001fec:	200003cc 	.word	0x200003cc
 8001ff0:	200003c8 	.word	0x200003c8

08001ff4 <seconds_since_midnight>:

/* ===== Timer (daily window) ===== */
static uint32_t seconds_since_midnight(void)
{
 8001ff4:	b580      	push	{r7, lr}
 8001ff6:	b082      	sub	sp, #8
 8001ff8:	af00      	add	r7, sp, #0
    uint32_t ms = now_ms() % (24UL*3600UL*1000UL);
 8001ffa:	f7ff fee7 	bl	8001dcc <now_ms>
 8001ffe:	4603      	mov	r3, r0
 8002000:	4a08      	ldr	r2, [pc, #32]	@ (8002024 <seconds_since_midnight+0x30>)
 8002002:	fba2 1203 	umull	r1, r2, r2, r3
 8002006:	0e12      	lsrs	r2, r2, #24
 8002008:	4907      	ldr	r1, [pc, #28]	@ (8002028 <seconds_since_midnight+0x34>)
 800200a:	fb01 f202 	mul.w	r2, r1, r2
 800200e:	1a9b      	subs	r3, r3, r2
 8002010:	607b      	str	r3, [r7, #4]
    return ms / 1000UL;
 8002012:	687b      	ldr	r3, [r7, #4]
 8002014:	4a05      	ldr	r2, [pc, #20]	@ (800202c <seconds_since_midnight+0x38>)
 8002016:	fba2 2303 	umull	r2, r3, r2, r3
 800201a:	099b      	lsrs	r3, r3, #6
}
 800201c:	4618      	mov	r0, r3
 800201e:	3708      	adds	r7, #8
 8002020:	46bd      	mov	sp, r7
 8002022:	bd80      	pop	{r7, pc}
 8002024:	31b5d43b 	.word	0x31b5d43b
 8002028:	05265c00 	.word	0x05265c00
 800202c:	10624dd3 	.word	0x10624dd3

08002030 <timer_tick>:

static void timer_tick(void)
{
 8002030:	b580      	push	{r7, lr}
 8002032:	b084      	sub	sp, #16
 8002034:	af00      	add	r7, sp, #0
    uint32_t nowS = seconds_since_midnight();
 8002036:	f7ff ffdd 	bl	8001ff4 <seconds_since_midnight>
 800203a:	6078      	str	r0, [r7, #4]

    for (int i = 0; i < 5; i++) {
 800203c:	2300      	movs	r3, #0
 800203e:	60fb      	str	r3, [r7, #12]
 8002040:	e042      	b.n	80020c8 <timer_tick+0x98>
        TimerSlot* s = &timerSlots[i];
 8002042:	68fb      	ldr	r3, [r7, #12]
 8002044:	011b      	lsls	r3, r3, #4
 8002046:	4a24      	ldr	r2, [pc, #144]	@ (80020d8 <timer_tick+0xa8>)
 8002048:	4413      	add	r3, r2
 800204a:	603b      	str	r3, [r7, #0]
        if (!s->active) continue;
 800204c:	683b      	ldr	r3, [r7, #0]
 800204e:	781b      	ldrb	r3, [r3, #0]
 8002050:	f083 0301 	eor.w	r3, r3, #1
 8002054:	b2db      	uxtb	r3, r3
 8002056:	2b00      	cmp	r3, #0
 8002058:	d132      	bne.n	80020c0 <timer_tick+0x90>

        bool inWindow;
        if (s->onTimeSeconds <= s->offTimeSeconds) {
 800205a:	683b      	ldr	r3, [r7, #0]
 800205c:	685a      	ldr	r2, [r3, #4]
 800205e:	683b      	ldr	r3, [r7, #0]
 8002060:	689b      	ldr	r3, [r3, #8]
 8002062:	429a      	cmp	r2, r3
 8002064:	d812      	bhi.n	800208c <timer_tick+0x5c>
            inWindow = (nowS >= s->onTimeSeconds) && (nowS < s->offTimeSeconds);
 8002066:	683b      	ldr	r3, [r7, #0]
 8002068:	685b      	ldr	r3, [r3, #4]
 800206a:	687a      	ldr	r2, [r7, #4]
 800206c:	429a      	cmp	r2, r3
 800206e:	d306      	bcc.n	800207e <timer_tick+0x4e>
 8002070:	683b      	ldr	r3, [r7, #0]
 8002072:	689b      	ldr	r3, [r3, #8]
 8002074:	687a      	ldr	r2, [r7, #4]
 8002076:	429a      	cmp	r2, r3
 8002078:	d201      	bcs.n	800207e <timer_tick+0x4e>
 800207a:	2301      	movs	r3, #1
 800207c:	e000      	b.n	8002080 <timer_tick+0x50>
 800207e:	2300      	movs	r3, #0
 8002080:	72fb      	strb	r3, [r7, #11]
 8002082:	7afb      	ldrb	r3, [r7, #11]
 8002084:	f003 0301 	and.w	r3, r3, #1
 8002088:	72fb      	strb	r3, [r7, #11]
 800208a:	e011      	b.n	80020b0 <timer_tick+0x80>
        } else {
            inWindow = (nowS >= s->onTimeSeconds) || (nowS < s->offTimeSeconds);
 800208c:	683b      	ldr	r3, [r7, #0]
 800208e:	685b      	ldr	r3, [r3, #4]
 8002090:	687a      	ldr	r2, [r7, #4]
 8002092:	429a      	cmp	r2, r3
 8002094:	d204      	bcs.n	80020a0 <timer_tick+0x70>
 8002096:	683b      	ldr	r3, [r7, #0]
 8002098:	689b      	ldr	r3, [r3, #8]
 800209a:	687a      	ldr	r2, [r7, #4]
 800209c:	429a      	cmp	r2, r3
 800209e:	d201      	bcs.n	80020a4 <timer_tick+0x74>
 80020a0:	2301      	movs	r3, #1
 80020a2:	e000      	b.n	80020a6 <timer_tick+0x76>
 80020a4:	2300      	movs	r3, #0
 80020a6:	72fb      	strb	r3, [r7, #11]
 80020a8:	7afb      	ldrb	r3, [r7, #11]
 80020aa:	f003 0301 	and.w	r3, r3, #1
 80020ae:	72fb      	strb	r3, [r7, #11]
        }

        if (i == 0) {
 80020b0:	68fb      	ldr	r3, [r7, #12]
 80020b2:	2b00      	cmp	r3, #0
 80020b4:	d105      	bne.n	80020c2 <timer_tick+0x92>
            motor_apply(inWindow);
 80020b6:	7afb      	ldrb	r3, [r7, #11]
 80020b8:	4618      	mov	r0, r3
 80020ba:	f7ff fe8f 	bl	8001ddc <motor_apply>
 80020be:	e000      	b.n	80020c2 <timer_tick+0x92>
        if (!s->active) continue;
 80020c0:	bf00      	nop
    for (int i = 0; i < 5; i++) {
 80020c2:	68fb      	ldr	r3, [r7, #12]
 80020c4:	3301      	adds	r3, #1
 80020c6:	60fb      	str	r3, [r7, #12]
 80020c8:	68fb      	ldr	r3, [r7, #12]
 80020ca:	2b04      	cmp	r3, #4
 80020cc:	ddb9      	ble.n	8002042 <timer_tick+0x12>
        }
    }
}
 80020ce:	bf00      	nop
 80020d0:	bf00      	nop
 80020d2:	3710      	adds	r7, #16
 80020d4:	46bd      	mov	sp, r7
 80020d6:	bd80      	pop	{r7, pc}
 80020d8:	20000364 	.word	0x20000364

080020dc <protections_tick>:

/* ===== Protections ===== */
static void protections_tick(void)
{
 80020dc:	b580      	push	{r7, lr}
 80020de:	af00      	add	r7, sp, #0
    /* ✅ Dry run: motor ON but ADC5 shows water missing */
    if (motorStatus == 1U && adcData.voltages[5] > 0.1f) {
 80020e0:	4b22      	ldr	r3, [pc, #136]	@ (800216c <protections_tick+0x90>)
 80020e2:	781b      	ldrb	r3, [r3, #0]
 80020e4:	b2db      	uxtb	r3, r3
 80020e6:	2b01      	cmp	r3, #1
 80020e8:	d10f      	bne.n	800210a <protections_tick+0x2e>
 80020ea:	4b21      	ldr	r3, [pc, #132]	@ (8002170 <protections_tick+0x94>)
 80020ec:	6a1b      	ldr	r3, [r3, #32]
 80020ee:	4921      	ldr	r1, [pc, #132]	@ (8002174 <protections_tick+0x98>)
 80020f0:	4618      	mov	r0, r3
 80020f2:	f7fe fb07 	bl	8000704 <__aeabi_fcmpgt>
 80020f6:	4603      	mov	r3, r0
 80020f8:	2b00      	cmp	r3, #0
 80020fa:	d006      	beq.n	800210a <protections_tick+0x2e>
        senseDryRun = true;
 80020fc:	4b1e      	ldr	r3, [pc, #120]	@ (8002178 <protections_tick+0x9c>)
 80020fe:	2201      	movs	r2, #1
 8002100:	701a      	strb	r2, [r3, #0]
        motor_apply(false);
 8002102:	2000      	movs	r0, #0
 8002104:	f7ff fe6a 	bl	8001ddc <motor_apply>
 8002108:	e002      	b.n	8002110 <protections_tick+0x34>
    } else {
        senseDryRun = false;
 800210a:	4b1b      	ldr	r3, [pc, #108]	@ (8002178 <protections_tick+0x9c>)
 800210c:	2200      	movs	r2, #0
 800210e:	701a      	strb	r2, [r3, #0]
    }

    if (senseOverLoad && motorStatus == 1U) {
 8002110:	4b1a      	ldr	r3, [pc, #104]	@ (800217c <protections_tick+0xa0>)
 8002112:	781b      	ldrb	r3, [r3, #0]
 8002114:	b2db      	uxtb	r3, r3
 8002116:	2b00      	cmp	r3, #0
 8002118:	d007      	beq.n	800212a <protections_tick+0x4e>
 800211a:	4b14      	ldr	r3, [pc, #80]	@ (800216c <protections_tick+0x90>)
 800211c:	781b      	ldrb	r3, [r3, #0]
 800211e:	b2db      	uxtb	r3, r3
 8002120:	2b01      	cmp	r3, #1
 8002122:	d102      	bne.n	800212a <protections_tick+0x4e>
        motor_apply(false);
 8002124:	2000      	movs	r0, #0
 8002126:	f7ff fe59 	bl	8001ddc <motor_apply>
    }

    if (senseOverUnderVolt) {
 800212a:	4b15      	ldr	r3, [pc, #84]	@ (8002180 <protections_tick+0xa4>)
 800212c:	781b      	ldrb	r3, [r3, #0]
 800212e:	b2db      	uxtb	r3, r3
 8002130:	2b00      	cmp	r3, #0
 8002132:	d002      	beq.n	800213a <protections_tick+0x5e>
        motor_apply(false);
 8002134:	2000      	movs	r0, #0
 8002136:	f7ff fe51 	bl	8001ddc <motor_apply>
    }

    if (maxRunTimerArmed && (now_ms() - maxRunStartTick) >= MAX_CONT_RUN_MS) {
 800213a:	4b12      	ldr	r3, [pc, #72]	@ (8002184 <protections_tick+0xa8>)
 800213c:	781b      	ldrb	r3, [r3, #0]
 800213e:	2b00      	cmp	r3, #0
 8002140:	d011      	beq.n	8002166 <protections_tick+0x8a>
 8002142:	f7ff fe43 	bl	8001dcc <now_ms>
 8002146:	4602      	mov	r2, r0
 8002148:	4b0f      	ldr	r3, [pc, #60]	@ (8002188 <protections_tick+0xac>)
 800214a:	681b      	ldr	r3, [r3, #0]
 800214c:	1ad3      	subs	r3, r2, r3
 800214e:	4a0f      	ldr	r2, [pc, #60]	@ (800218c <protections_tick+0xb0>)
 8002150:	4293      	cmp	r3, r2
 8002152:	d308      	bcc.n	8002166 <protections_tick+0x8a>
        motor_apply(false);
 8002154:	2000      	movs	r0, #0
 8002156:	f7ff fe41 	bl	8001ddc <motor_apply>
        senseMaxRunReached = true;
 800215a:	4b0d      	ldr	r3, [pc, #52]	@ (8002190 <protections_tick+0xb4>)
 800215c:	2201      	movs	r2, #1
 800215e:	701a      	strb	r2, [r3, #0]
        maxRunTimerArmed = false;
 8002160:	4b08      	ldr	r3, [pc, #32]	@ (8002184 <protections_tick+0xa8>)
 8002162:	2200      	movs	r2, #0
 8002164:	701a      	strb	r2, [r3, #0]
    }
}
 8002166:	bf00      	nop
 8002168:	bd80      	pop	{r7, pc}
 800216a:	bf00      	nop
 800216c:	20000358 	.word	0x20000358
 8002170:	200002ec 	.word	0x200002ec
 8002174:	3dcccccd 	.word	0x3dcccccd
 8002178:	200003b4 	.word	0x200003b4
 800217c:	200003b5 	.word	0x200003b5
 8002180:	200003b6 	.word	0x200003b6
 8002184:	200003b8 	.word	0x200003b8
 8002188:	200003bc 	.word	0x200003bc
 800218c:	006ddd00 	.word	0x006ddd00
 8002190:	200003b7 	.word	0x200003b7

08002194 <leds_from_model>:

/* ===== LED synthesis ===== */
static void leds_from_model(void)
{
 8002194:	b580      	push	{r7, lr}
 8002196:	af00      	add	r7, sp, #0
    LED_ClearAllIntents();
 8002198:	f7ff f8a2 	bl	80012e0 <LED_ClearAllIntents>

    if (motorStatus == 1U) {
 800219c:	4b24      	ldr	r3, [pc, #144]	@ (8002230 <leds_from_model+0x9c>)
 800219e:	781b      	ldrb	r3, [r3, #0]
 80021a0:	b2db      	uxtb	r3, r3
 80021a2:	2b01      	cmp	r3, #1
 80021a4:	d104      	bne.n	80021b0 <leds_from_model+0x1c>
        LED_SetIntent(LED_COLOR_GREEN, LED_MODE_STEADY, 0);
 80021a6:	2200      	movs	r2, #0
 80021a8:	2101      	movs	r1, #1
 80021aa:	2000      	movs	r0, #0
 80021ac:	f7ff f8b8 	bl	8001320 <LED_SetIntent>
    }
    if (countdownActive && countdownMode) {
 80021b0:	4b20      	ldr	r3, [pc, #128]	@ (8002234 <leds_from_model+0xa0>)
 80021b2:	781b      	ldrb	r3, [r3, #0]
 80021b4:	b2db      	uxtb	r3, r3
 80021b6:	2b00      	cmp	r3, #0
 80021b8:	d00a      	beq.n	80021d0 <leds_from_model+0x3c>
 80021ba:	4b1f      	ldr	r3, [pc, #124]	@ (8002238 <leds_from_model+0xa4>)
 80021bc:	781b      	ldrb	r3, [r3, #0]
 80021be:	b2db      	uxtb	r3, r3
 80021c0:	2b00      	cmp	r3, #0
 80021c2:	d005      	beq.n	80021d0 <leds_from_model+0x3c>
        LED_SetIntent(LED_COLOR_GREEN, LED_MODE_BLINK, 500);
 80021c4:	f44f 72fa 	mov.w	r2, #500	@ 0x1f4
 80021c8:	2102      	movs	r1, #2
 80021ca:	2000      	movs	r0, #0
 80021cc:	f7ff f8a8 	bl	8001320 <LED_SetIntent>
    }
    if (senseDryRun) {
 80021d0:	4b1a      	ldr	r3, [pc, #104]	@ (800223c <leds_from_model+0xa8>)
 80021d2:	781b      	ldrb	r3, [r3, #0]
 80021d4:	b2db      	uxtb	r3, r3
 80021d6:	2b00      	cmp	r3, #0
 80021d8:	d004      	beq.n	80021e4 <leds_from_model+0x50>
        LED_SetIntent(LED_COLOR_RED, LED_MODE_STEADY, 0);
 80021da:	2200      	movs	r2, #0
 80021dc:	2101      	movs	r1, #1
 80021de:	2001      	movs	r0, #1
 80021e0:	f7ff f89e 	bl	8001320 <LED_SetIntent>
    }
    if (senseMaxRunReached) {
 80021e4:	4b16      	ldr	r3, [pc, #88]	@ (8002240 <leds_from_model+0xac>)
 80021e6:	781b      	ldrb	r3, [r3, #0]
 80021e8:	b2db      	uxtb	r3, r3
 80021ea:	2b00      	cmp	r3, #0
 80021ec:	d005      	beq.n	80021fa <leds_from_model+0x66>
        LED_SetIntent(LED_COLOR_RED, LED_MODE_BLINK, 400);
 80021ee:	f44f 72c8 	mov.w	r2, #400	@ 0x190
 80021f2:	2102      	movs	r1, #2
 80021f4:	2001      	movs	r0, #1
 80021f6:	f7ff f893 	bl	8001320 <LED_SetIntent>
    }
    if (senseOverLoad) {
 80021fa:	4b12      	ldr	r3, [pc, #72]	@ (8002244 <leds_from_model+0xb0>)
 80021fc:	781b      	ldrb	r3, [r3, #0]
 80021fe:	b2db      	uxtb	r3, r3
 8002200:	2b00      	cmp	r3, #0
 8002202:	d005      	beq.n	8002210 <leds_from_model+0x7c>
        LED_SetIntent(LED_COLOR_BLUE, LED_MODE_BLINK, 350);
 8002204:	f44f 72af 	mov.w	r2, #350	@ 0x15e
 8002208:	2102      	movs	r1, #2
 800220a:	2002      	movs	r0, #2
 800220c:	f7ff f888 	bl	8001320 <LED_SetIntent>
    }
    if (senseOverUnderVolt) {
 8002210:	4b0d      	ldr	r3, [pc, #52]	@ (8002248 <leds_from_model+0xb4>)
 8002212:	781b      	ldrb	r3, [r3, #0]
 8002214:	b2db      	uxtb	r3, r3
 8002216:	2b00      	cmp	r3, #0
 8002218:	d005      	beq.n	8002226 <leds_from_model+0x92>
        LED_SetIntent(LED_COLOR_PURPLE, LED_MODE_BLINK, 350);
 800221a:	f44f 72af 	mov.w	r2, #350	@ 0x15e
 800221e:	2102      	movs	r1, #2
 8002220:	2003      	movs	r0, #3
 8002222:	f7ff f87d 	bl	8001320 <LED_SetIntent>
    }

    LED_ApplyIntents();
 8002226:	f7ff f89b 	bl	8001360 <LED_ApplyIntents>
}
 800222a:	bf00      	nop
 800222c:	bd80      	pop	{r7, pc}
 800222e:	bf00      	nop
 8002230:	20000358 	.word	0x20000358
 8002234:	20000359 	.word	0x20000359
 8002238:	20000019 	.word	0x20000019
 800223c:	200003b4 	.word	0x200003b4
 8002240:	200003b7 	.word	0x200003b7
 8002244:	200003b5 	.word	0x200003b5
 8002248:	200003b6 	.word	0x200003b6

0800224c <ModelHandle_ProcessUartCommand>:

/* ===== Command parser ===== */
void ModelHandle_ProcessUartCommand(const char* cmd)
{
 800224c:	b580      	push	{r7, lr}
 800224e:	b082      	sub	sp, #8
 8002250:	af00      	add	r7, sp, #0
 8002252:	6078      	str	r0, [r7, #4]
    if (!cmd || !*cmd) return;
 8002254:	687b      	ldr	r3, [r7, #4]
 8002256:	2b00      	cmp	r3, #0
 8002258:	d019      	beq.n	800228e <ModelHandle_ProcessUartCommand+0x42>
 800225a:	687b      	ldr	r3, [r7, #4]
 800225c:	781b      	ldrb	r3, [r3, #0]
 800225e:	2b00      	cmp	r3, #0
 8002260:	d015      	beq.n	800228e <ModelHandle_ProcessUartCommand+0x42>

    if (strcmp(cmd, "MOTOR_ON") == 0) {
 8002262:	490d      	ldr	r1, [pc, #52]	@ (8002298 <ModelHandle_ProcessUartCommand+0x4c>)
 8002264:	6878      	ldr	r0, [r7, #4]
 8002266:	f7fd ff71 	bl	800014c <strcmp>
 800226a:	4603      	mov	r3, r0
 800226c:	2b00      	cmp	r3, #0
 800226e:	d103      	bne.n	8002278 <ModelHandle_ProcessUartCommand+0x2c>
        motor_apply(true);
 8002270:	2001      	movs	r0, #1
 8002272:	f7ff fdb3 	bl	8001ddc <motor_apply>
 8002276:	e00b      	b.n	8002290 <ModelHandle_ProcessUartCommand+0x44>
    }
    else if (strcmp(cmd, "MOTOR_OFF") == 0) {
 8002278:	4908      	ldr	r1, [pc, #32]	@ (800229c <ModelHandle_ProcessUartCommand+0x50>)
 800227a:	6878      	ldr	r0, [r7, #4]
 800227c:	f7fd ff66 	bl	800014c <strcmp>
 8002280:	4603      	mov	r3, r0
 8002282:	2b00      	cmp	r3, #0
 8002284:	d104      	bne.n	8002290 <ModelHandle_ProcessUartCommand+0x44>
        motor_apply(false);
 8002286:	2000      	movs	r0, #0
 8002288:	f7ff fda8 	bl	8001ddc <motor_apply>
 800228c:	e000      	b.n	8002290 <ModelHandle_ProcessUartCommand+0x44>
    if (!cmd || !*cmd) return;
 800228e:	bf00      	nop
    }
    /* ... rest of your command parsing unchanged ... */
}
 8002290:	3708      	adds	r7, #8
 8002292:	46bd      	mov	sp, r7
 8002294:	bd80      	pop	{r7, pc}
 8002296:	bf00      	nop
 8002298:	080083f8 	.word	0x080083f8
 800229c:	08008404 	.word	0x08008404

080022a0 <ModelHandle_Process>:
void ModelHandle_SetOverUnderVolt(bool on) { senseOverUnderVolt = on; }
void ModelHandle_ClearMaxRunFlag(void)     { senseMaxRunReached = false; }

/* ===== Main tick ===== */
void ModelHandle_Process(void)
{
 80022a0:	b580      	push	{r7, lr}
 80022a2:	af00      	add	r7, sp, #0
    countdown_tick();
 80022a4:	f7ff fdcc 	bl	8001e40 <countdown_tick>
    twist_tick();
 80022a8:	f7ff fe0e 	bl	8001ec8 <twist_tick>
    search_tick();
 80022ac:	f7ff fe5a 	bl	8001f64 <search_tick>
    timer_tick();
 80022b0:	f7ff febe 	bl	8002030 <timer_tick>
    protections_tick();
 80022b4:	f7ff ff12 	bl	80020dc <protections_tick>
    leds_from_model();
 80022b8:	f7ff ff6c 	bl	8002194 <leds_from_model>
}
 80022bc:	bf00      	nop
 80022be:	bd80      	pop	{r7, pc}

080022c0 <Motor_GetStatus>:

/* ===== ✅ Added for screen.c ===== */
bool Motor_GetStatus(void)
{
 80022c0:	b480      	push	{r7}
 80022c2:	af00      	add	r7, sp, #0
    return (motorStatus == 1U);
 80022c4:	4b05      	ldr	r3, [pc, #20]	@ (80022dc <Motor_GetStatus+0x1c>)
 80022c6:	781b      	ldrb	r3, [r3, #0]
 80022c8:	b2db      	uxtb	r3, r3
 80022ca:	2b01      	cmp	r3, #1
 80022cc:	bf0c      	ite	eq
 80022ce:	2301      	moveq	r3, #1
 80022d0:	2300      	movne	r3, #0
 80022d2:	b2db      	uxtb	r3, r3
}
 80022d4:	4618      	mov	r0, r3
 80022d6:	46bd      	mov	sp, r7
 80022d8:	bc80      	pop	{r7}
 80022da:	4770      	bx	lr
 80022dc:	20000358 	.word	0x20000358

080022e0 <Relay_Set>:
                          (RELAY_ACTIVE_STATE == GPIO_PIN_SET) ? GPIO_PIN_RESET : GPIO_PIN_SET);
    }
}

void Relay_Set(uint8_t relay_no, bool on)
{
 80022e0:	b580      	push	{r7, lr}
 80022e2:	b082      	sub	sp, #8
 80022e4:	af00      	add	r7, sp, #0
 80022e6:	4603      	mov	r3, r0
 80022e8:	460a      	mov	r2, r1
 80022ea:	71fb      	strb	r3, [r7, #7]
 80022ec:	4613      	mov	r3, r2
 80022ee:	71bb      	strb	r3, [r7, #6]
    if (relay_no == 0 || relay_no > NUM_RELAYS) return;
 80022f0:	79fb      	ldrb	r3, [r7, #7]
 80022f2:	2b00      	cmp	r3, #0
 80022f4:	d012      	beq.n	800231c <Relay_Set+0x3c>
 80022f6:	79fb      	ldrb	r3, [r7, #7]
 80022f8:	2b03      	cmp	r3, #3
 80022fa:	d80f      	bhi.n	800231c <Relay_Set+0x3c>

    HAL_GPIO_WritePin(relays[relay_no - 1].port,
 80022fc:	79fb      	ldrb	r3, [r7, #7]
 80022fe:	3b01      	subs	r3, #1
 8002300:	4a08      	ldr	r2, [pc, #32]	@ (8002324 <Relay_Set+0x44>)
 8002302:	f852 0033 	ldr.w	r0, [r2, r3, lsl #3]
                      relays[relay_no - 1].pin,
 8002306:	79fb      	ldrb	r3, [r7, #7]
 8002308:	3b01      	subs	r3, #1
 800230a:	4a06      	ldr	r2, [pc, #24]	@ (8002324 <Relay_Set+0x44>)
 800230c:	00db      	lsls	r3, r3, #3
 800230e:	4413      	add	r3, r2
 8002310:	889b      	ldrh	r3, [r3, #4]
    HAL_GPIO_WritePin(relays[relay_no - 1].port,
 8002312:	79ba      	ldrb	r2, [r7, #6]
 8002314:	4619      	mov	r1, r3
 8002316:	f002 fc9e 	bl	8004c56 <HAL_GPIO_WritePin>
 800231a:	e000      	b.n	800231e <Relay_Set+0x3e>
    if (relay_no == 0 || relay_no > NUM_RELAYS) return;
 800231c:	bf00      	nop
                      on ? RELAY_ACTIVE_STATE :
                           (RELAY_ACTIVE_STATE == GPIO_PIN_SET ? GPIO_PIN_RESET : GPIO_PIN_SET));
}
 800231e:	3708      	adds	r7, #8
 8002320:	46bd      	mov	sp, r7
 8002322:	bd80      	pop	{r7, pc}
 8002324:	080087c8 	.word	0x080087c8

08002328 <Relay_All>:

    return (s == RELAY_ACTIVE_STATE);
}

void Relay_All(bool on)
{
 8002328:	b580      	push	{r7, lr}
 800232a:	b084      	sub	sp, #16
 800232c:	af00      	add	r7, sp, #0
 800232e:	4603      	mov	r3, r0
 8002330:	71fb      	strb	r3, [r7, #7]
    for (int i = 1; i <= NUM_RELAYS; i++) {
 8002332:	2301      	movs	r3, #1
 8002334:	60fb      	str	r3, [r7, #12]
 8002336:	e009      	b.n	800234c <Relay_All+0x24>
        Relay_Set(i, on);
 8002338:	68fb      	ldr	r3, [r7, #12]
 800233a:	b2db      	uxtb	r3, r3
 800233c:	79fa      	ldrb	r2, [r7, #7]
 800233e:	4611      	mov	r1, r2
 8002340:	4618      	mov	r0, r3
 8002342:	f7ff ffcd 	bl	80022e0 <Relay_Set>
    for (int i = 1; i <= NUM_RELAYS; i++) {
 8002346:	68fb      	ldr	r3, [r7, #12]
 8002348:	3301      	adds	r3, #1
 800234a:	60fb      	str	r3, [r7, #12]
 800234c:	68fb      	ldr	r3, [r7, #12]
 800234e:	2b03      	cmp	r3, #3
 8002350:	ddf2      	ble.n	8002338 <Relay_All+0x10>
    }
}
 8002352:	bf00      	nop
 8002354:	bf00      	nop
 8002356:	3710      	adds	r7, #16
 8002358:	46bd      	mov	sp, r7
 800235a:	bd80      	pop	{r7, pc}

0800235c <bcdToDec>:

uint8_t decToBcd(int val) {
    return (uint8_t)((val / 10 * 16) + (val % 10));
}

int bcdToDec(uint8_t val) {
 800235c:	b480      	push	{r7}
 800235e:	b083      	sub	sp, #12
 8002360:	af00      	add	r7, sp, #0
 8002362:	4603      	mov	r3, r0
 8002364:	71fb      	strb	r3, [r7, #7]
    return (int)((val / 16 * 10) + (val % 16));
 8002366:	79fb      	ldrb	r3, [r7, #7]
 8002368:	091b      	lsrs	r3, r3, #4
 800236a:	b2db      	uxtb	r3, r3
 800236c:	461a      	mov	r2, r3
 800236e:	4613      	mov	r3, r2
 8002370:	009b      	lsls	r3, r3, #2
 8002372:	4413      	add	r3, r2
 8002374:	005b      	lsls	r3, r3, #1
 8002376:	461a      	mov	r2, r3
 8002378:	79fb      	ldrb	r3, [r7, #7]
 800237a:	f003 030f 	and.w	r3, r3, #15
 800237e:	4413      	add	r3, r2
}
 8002380:	4618      	mov	r0, r3
 8002382:	370c      	adds	r7, #12
 8002384:	46bd      	mov	sp, r7
 8002386:	bc80      	pop	{r7}
 8002388:	4770      	bx	lr
	...

0800238c <Get_Time>:
        sprintf(err, "RTC Set Error: %lu\r\n", HAL_I2C_GetError(&hi2c2));
        Debug_Print(err);
    }
}

void Get_Time(void) {
 800238c:	b5f0      	push	{r4, r5, r6, r7, lr}
 800238e:	b0a5      	sub	sp, #148	@ 0x94
 8002390:	af06      	add	r7, sp, #24
    uint8_t get_time[7];

    if (HAL_I2C_Mem_Read(&hi2c2, DS3231_ADDRESS, 0x00,
 8002392:	f44f 737a 	mov.w	r3, #1000	@ 0x3e8
 8002396:	9302      	str	r3, [sp, #8]
 8002398:	2307      	movs	r3, #7
 800239a:	9301      	str	r3, [sp, #4]
 800239c:	f107 0370 	add.w	r3, r7, #112	@ 0x70
 80023a0:	9300      	str	r3, [sp, #0]
 80023a2:	2301      	movs	r3, #1
 80023a4:	2200      	movs	r2, #0
 80023a6:	21d0      	movs	r1, #208	@ 0xd0
 80023a8:	4849      	ldr	r0, [pc, #292]	@ (80024d0 <Get_Time+0x144>)
 80023aa:	f002 fec7 	bl	800513c <HAL_I2C_Mem_Read>
 80023ae:	4603      	mov	r3, r0
 80023b0:	2b00      	cmp	r3, #0
 80023b2:	d028      	beq.n	8002406 <Get_Time+0x7a>
                         I2C_MEMADD_SIZE_8BIT, get_time, 7, 1000) != HAL_OK) {
        char err[50];
        sprintf(err, "RTC Read Error: %lu\r\n", HAL_I2C_GetError(&hi2c2));
 80023b4:	4846      	ldr	r0, [pc, #280]	@ (80024d0 <Get_Time+0x144>)
 80023b6:	f003 f935 	bl	8005624 <HAL_I2C_GetError>
 80023ba:	4602      	mov	r2, r0
 80023bc:	463b      	mov	r3, r7
 80023be:	4945      	ldr	r1, [pc, #276]	@ (80024d4 <Get_Time+0x148>)
 80023c0:	4618      	mov	r0, r3
 80023c2:	f005 fad9 	bl	8007978 <siprintf>
        Debug_Print(err);
 80023c6:	463b      	mov	r3, r7
 80023c8:	4618      	mov	r0, r3
 80023ca:	f7ff fac1 	bl	8001950 <Debug_Print>

        time.seconds = time.minutes = time.hour =
        time.dayofweek = time.dayofmonth =
        time.month = time.year = 0xFF;
 80023ce:	4b42      	ldr	r3, [pc, #264]	@ (80024d8 <Get_Time+0x14c>)
 80023d0:	22ff      	movs	r2, #255	@ 0xff
 80023d2:	719a      	strb	r2, [r3, #6]
 80023d4:	4b40      	ldr	r3, [pc, #256]	@ (80024d8 <Get_Time+0x14c>)
 80023d6:	799a      	ldrb	r2, [r3, #6]
 80023d8:	4b3f      	ldr	r3, [pc, #252]	@ (80024d8 <Get_Time+0x14c>)
 80023da:	715a      	strb	r2, [r3, #5]
 80023dc:	4b3e      	ldr	r3, [pc, #248]	@ (80024d8 <Get_Time+0x14c>)
 80023de:	795a      	ldrb	r2, [r3, #5]
        time.dayofweek = time.dayofmonth =
 80023e0:	4b3d      	ldr	r3, [pc, #244]	@ (80024d8 <Get_Time+0x14c>)
 80023e2:	711a      	strb	r2, [r3, #4]
 80023e4:	4b3c      	ldr	r3, [pc, #240]	@ (80024d8 <Get_Time+0x14c>)
 80023e6:	791a      	ldrb	r2, [r3, #4]
 80023e8:	4b3b      	ldr	r3, [pc, #236]	@ (80024d8 <Get_Time+0x14c>)
 80023ea:	70da      	strb	r2, [r3, #3]
 80023ec:	4b3a      	ldr	r3, [pc, #232]	@ (80024d8 <Get_Time+0x14c>)
 80023ee:	78da      	ldrb	r2, [r3, #3]
        time.seconds = time.minutes = time.hour =
 80023f0:	4b39      	ldr	r3, [pc, #228]	@ (80024d8 <Get_Time+0x14c>)
 80023f2:	709a      	strb	r2, [r3, #2]
 80023f4:	4b38      	ldr	r3, [pc, #224]	@ (80024d8 <Get_Time+0x14c>)
 80023f6:	789a      	ldrb	r2, [r3, #2]
 80023f8:	4b37      	ldr	r3, [pc, #220]	@ (80024d8 <Get_Time+0x14c>)
 80023fa:	705a      	strb	r2, [r3, #1]
 80023fc:	4b36      	ldr	r3, [pc, #216]	@ (80024d8 <Get_Time+0x14c>)
 80023fe:	785a      	ldrb	r2, [r3, #1]
 8002400:	4b35      	ldr	r3, [pc, #212]	@ (80024d8 <Get_Time+0x14c>)
 8002402:	701a      	strb	r2, [r3, #0]
 8002404:	e061      	b.n	80024ca <Get_Time+0x13e>
        return;
    }

    char dbg[60];
    sprintf(dbg, "Raw RTC Data: %02X %02X %02X %02X %02X %02X %02X\r\n",
            get_time[0], get_time[1], get_time[2],
 8002406:	f897 3070 	ldrb.w	r3, [r7, #112]	@ 0x70
    sprintf(dbg, "Raw RTC Data: %02X %02X %02X %02X %02X %02X %02X\r\n",
 800240a:	461e      	mov	r6, r3
            get_time[0], get_time[1], get_time[2],
 800240c:	f897 3071 	ldrb.w	r3, [r7, #113]	@ 0x71
    sprintf(dbg, "Raw RTC Data: %02X %02X %02X %02X %02X %02X %02X\r\n",
 8002410:	469c      	mov	ip, r3
            get_time[0], get_time[1], get_time[2],
 8002412:	f897 3072 	ldrb.w	r3, [r7, #114]	@ 0x72
            get_time[3], get_time[4], get_time[5], get_time[6]);
 8002416:	f897 2073 	ldrb.w	r2, [r7, #115]	@ 0x73
 800241a:	f897 1074 	ldrb.w	r1, [r7, #116]	@ 0x74
 800241e:	f897 0075 	ldrb.w	r0, [r7, #117]	@ 0x75
    sprintf(dbg, "Raw RTC Data: %02X %02X %02X %02X %02X %02X %02X\r\n",
 8002422:	4604      	mov	r4, r0
            get_time[3], get_time[4], get_time[5], get_time[6]);
 8002424:	f897 0076 	ldrb.w	r0, [r7, #118]	@ 0x76
    sprintf(dbg, "Raw RTC Data: %02X %02X %02X %02X %02X %02X %02X\r\n",
 8002428:	4605      	mov	r5, r0
 800242a:	f107 0034 	add.w	r0, r7, #52	@ 0x34
 800242e:	9504      	str	r5, [sp, #16]
 8002430:	9403      	str	r4, [sp, #12]
 8002432:	9102      	str	r1, [sp, #8]
 8002434:	9201      	str	r2, [sp, #4]
 8002436:	9300      	str	r3, [sp, #0]
 8002438:	4663      	mov	r3, ip
 800243a:	4632      	mov	r2, r6
 800243c:	4927      	ldr	r1, [pc, #156]	@ (80024dc <Get_Time+0x150>)
 800243e:	f005 fa9b 	bl	8007978 <siprintf>
    Debug_Print(dbg);
 8002442:	f107 0334 	add.w	r3, r7, #52	@ 0x34
 8002446:	4618      	mov	r0, r3
 8002448:	f7ff fa82 	bl	8001950 <Debug_Print>

    time.seconds    = bcdToDec(get_time[0]);
 800244c:	f897 3070 	ldrb.w	r3, [r7, #112]	@ 0x70
 8002450:	4618      	mov	r0, r3
 8002452:	f7ff ff83 	bl	800235c <bcdToDec>
 8002456:	4603      	mov	r3, r0
 8002458:	b2da      	uxtb	r2, r3
 800245a:	4b1f      	ldr	r3, [pc, #124]	@ (80024d8 <Get_Time+0x14c>)
 800245c:	701a      	strb	r2, [r3, #0]
    time.minutes    = bcdToDec(get_time[1]);
 800245e:	f897 3071 	ldrb.w	r3, [r7, #113]	@ 0x71
 8002462:	4618      	mov	r0, r3
 8002464:	f7ff ff7a 	bl	800235c <bcdToDec>
 8002468:	4603      	mov	r3, r0
 800246a:	b2da      	uxtb	r2, r3
 800246c:	4b1a      	ldr	r3, [pc, #104]	@ (80024d8 <Get_Time+0x14c>)
 800246e:	705a      	strb	r2, [r3, #1]
    time.hour       = bcdToDec(get_time[2]);
 8002470:	f897 3072 	ldrb.w	r3, [r7, #114]	@ 0x72
 8002474:	4618      	mov	r0, r3
 8002476:	f7ff ff71 	bl	800235c <bcdToDec>
 800247a:	4603      	mov	r3, r0
 800247c:	b2da      	uxtb	r2, r3
 800247e:	4b16      	ldr	r3, [pc, #88]	@ (80024d8 <Get_Time+0x14c>)
 8002480:	709a      	strb	r2, [r3, #2]
    time.dayofweek  = bcdToDec(get_time[3]);
 8002482:	f897 3073 	ldrb.w	r3, [r7, #115]	@ 0x73
 8002486:	4618      	mov	r0, r3
 8002488:	f7ff ff68 	bl	800235c <bcdToDec>
 800248c:	4603      	mov	r3, r0
 800248e:	b2da      	uxtb	r2, r3
 8002490:	4b11      	ldr	r3, [pc, #68]	@ (80024d8 <Get_Time+0x14c>)
 8002492:	70da      	strb	r2, [r3, #3]
    time.dayofmonth = bcdToDec(get_time[4]);
 8002494:	f897 3074 	ldrb.w	r3, [r7, #116]	@ 0x74
 8002498:	4618      	mov	r0, r3
 800249a:	f7ff ff5f 	bl	800235c <bcdToDec>
 800249e:	4603      	mov	r3, r0
 80024a0:	b2da      	uxtb	r2, r3
 80024a2:	4b0d      	ldr	r3, [pc, #52]	@ (80024d8 <Get_Time+0x14c>)
 80024a4:	711a      	strb	r2, [r3, #4]
    time.month      = bcdToDec(get_time[5]);
 80024a6:	f897 3075 	ldrb.w	r3, [r7, #117]	@ 0x75
 80024aa:	4618      	mov	r0, r3
 80024ac:	f7ff ff56 	bl	800235c <bcdToDec>
 80024b0:	4603      	mov	r3, r0
 80024b2:	b2da      	uxtb	r2, r3
 80024b4:	4b08      	ldr	r3, [pc, #32]	@ (80024d8 <Get_Time+0x14c>)
 80024b6:	715a      	strb	r2, [r3, #5]
    time.year       = bcdToDec(get_time[6]);
 80024b8:	f897 3076 	ldrb.w	r3, [r7, #118]	@ 0x76
 80024bc:	4618      	mov	r0, r3
 80024be:	f7ff ff4d 	bl	800235c <bcdToDec>
 80024c2:	4603      	mov	r3, r0
 80024c4:	b2da      	uxtb	r2, r3
 80024c6:	4b04      	ldr	r3, [pc, #16]	@ (80024d8 <Get_Time+0x14c>)
 80024c8:	719a      	strb	r2, [r3, #6]
}
 80024ca:	377c      	adds	r7, #124	@ 0x7c
 80024cc:	46bd      	mov	sp, r7
 80024ce:	bdf0      	pop	{r4, r5, r6, r7, pc}
 80024d0:	200001e4 	.word	0x200001e4
 80024d4:	08008428 	.word	0x08008428
 80024d8:	200003d0 	.word	0x200003d0
 80024dc:	08008440 	.word	0x08008440

080024e0 <lcd_line>:
static uint16_t edit_search_gap_s = 60, edit_search_dry_s = 10;
static uint16_t edit_twist_on_s = 5, edit_twist_off_s = 5;
static uint16_t edit_countdown_min = 5;

/* ===== LCD Helpers ===== */
static inline void lcd_line(uint8_t row, const char* s) {
 80024e0:	b580      	push	{r7, lr}
 80024e2:	b088      	sub	sp, #32
 80024e4:	af00      	add	r7, sp, #0
 80024e6:	4603      	mov	r3, r0
 80024e8:	6039      	str	r1, [r7, #0]
 80024ea:	71fb      	strb	r3, [r7, #7]
    char ln[17];
    snprintf(ln, sizeof(ln), "%-16.16s", s);
 80024ec:	f107 000c 	add.w	r0, r7, #12
 80024f0:	683b      	ldr	r3, [r7, #0]
 80024f2:	4a09      	ldr	r2, [pc, #36]	@ (8002518 <lcd_line+0x38>)
 80024f4:	2111      	movs	r1, #17
 80024f6:	f005 fa09 	bl	800790c <sniprintf>
    lcd_put_cur(row, 0);
 80024fa:	79fb      	ldrb	r3, [r7, #7]
 80024fc:	2100      	movs	r1, #0
 80024fe:	4618      	mov	r0, r3
 8002500:	f7fe fdb6 	bl	8001070 <lcd_put_cur>
    lcd_send_string(ln);
 8002504:	f107 030c 	add.w	r3, r7, #12
 8002508:	4618      	mov	r0, r3
 800250a:	f7fe fdd3 	bl	80010b4 <lcd_send_string>
}
 800250e:	bf00      	nop
 8002510:	3720      	adds	r7, #32
 8002512:	46bd      	mov	sp, r7
 8002514:	bd80      	pop	{r7, pc}
 8002516:	bf00      	nop
 8002518:	08008534 	.word	0x08008534

0800251c <lcd_line0>:
static inline void lcd_line0(const char* s){ lcd_line(0,s); }
 800251c:	b580      	push	{r7, lr}
 800251e:	b082      	sub	sp, #8
 8002520:	af00      	add	r7, sp, #0
 8002522:	6078      	str	r0, [r7, #4]
 8002524:	6879      	ldr	r1, [r7, #4]
 8002526:	2000      	movs	r0, #0
 8002528:	f7ff ffda 	bl	80024e0 <lcd_line>
 800252c:	bf00      	nop
 800252e:	3708      	adds	r7, #8
 8002530:	46bd      	mov	sp, r7
 8002532:	bd80      	pop	{r7, pc}

08002534 <lcd_line1>:
static inline void lcd_line1(const char* s){ lcd_line(1,s); }
 8002534:	b580      	push	{r7, lr}
 8002536:	b082      	sub	sp, #8
 8002538:	af00      	add	r7, sp, #0
 800253a:	6078      	str	r0, [r7, #4]
 800253c:	6879      	ldr	r1, [r7, #4]
 800253e:	2001      	movs	r0, #1
 8002540:	f7ff ffce 	bl	80024e0 <lcd_line>
 8002544:	bf00      	nop
 8002546:	3708      	adds	r7, #8
 8002548:	46bd      	mov	sp, r7
 800254a:	bd80      	pop	{r7, pc}

0800254c <refreshInactivityTimer>:

/* ===== Utilities ===== */
static void refreshInactivityTimer(void){ lastUserAction = HAL_GetTick(); }
 800254c:	b580      	push	{r7, lr}
 800254e:	af00      	add	r7, sp, #0
 8002550:	f001 fbce 	bl	8003cf0 <HAL_GetTick>
 8002554:	4603      	mov	r3, r0
 8002556:	4a02      	ldr	r2, [pc, #8]	@ (8002560 <refreshInactivityTimer+0x14>)
 8002558:	6013      	str	r3, [r2, #0]
 800255a:	bf00      	nop
 800255c:	bd80      	pop	{r7, pc}
 800255e:	bf00      	nop
 8002560:	200003e4 	.word	0x200003e4

08002564 <goto_menu_top>:
static void goto_menu_top(void){ menu_idx = 0; menu_view_top = 0; }
 8002564:	b480      	push	{r7}
 8002566:	af00      	add	r7, sp, #0
 8002568:	4b04      	ldr	r3, [pc, #16]	@ (800257c <goto_menu_top+0x18>)
 800256a:	2200      	movs	r2, #0
 800256c:	601a      	str	r2, [r3, #0]
 800256e:	4b04      	ldr	r3, [pc, #16]	@ (8002580 <goto_menu_top+0x1c>)
 8002570:	2200      	movs	r2, #0
 8002572:	601a      	str	r2, [r3, #0]
 8002574:	bf00      	nop
 8002576:	46bd      	mov	sp, r7
 8002578:	bc80      	pop	{r7}
 800257a:	4770      	bx	lr
 800257c:	200003ec 	.word	0x200003ec
 8002580:	200003f0 	.word	0x200003f0

08002584 <format_menu_line>:

/* ===== Helper: format menu line ===== */
static void format_menu_line(char* buf, size_t bufsize, int idx, bool selected){
 8002584:	b580      	push	{r7, lr}
 8002586:	b08c      	sub	sp, #48	@ 0x30
 8002588:	af02      	add	r7, sp, #8
 800258a:	60f8      	str	r0, [r7, #12]
 800258c:	60b9      	str	r1, [r7, #8]
 800258e:	607a      	str	r2, [r7, #4]
 8002590:	70fb      	strb	r3, [r7, #3]
    if (idx < MAIN_MENU_COUNT && idx >= 0) {
 8002592:	687b      	ldr	r3, [r7, #4]
 8002594:	2b06      	cmp	r3, #6
 8002596:	d820      	bhi.n	80025da <format_menu_line+0x56>
 8002598:	687b      	ldr	r3, [r7, #4]
 800259a:	2b00      	cmp	r3, #0
 800259c:	db1d      	blt.n	80025da <format_menu_line+0x56>
        char prefix = selected ? '>' : ' ';
 800259e:	78fb      	ldrb	r3, [r7, #3]
 80025a0:	2b00      	cmp	r3, #0
 80025a2:	d001      	beq.n	80025a8 <format_menu_line+0x24>
 80025a4:	233e      	movs	r3, #62	@ 0x3e
 80025a6:	e000      	b.n	80025aa <format_menu_line+0x26>
 80025a8:	2320      	movs	r3, #32
 80025aa:	f887 3027 	strb.w	r3, [r7, #39]	@ 0x27
        char item[16];
        snprintf(item, sizeof(item), "%-15.15s", main_menu[idx]);
 80025ae:	4a10      	ldr	r2, [pc, #64]	@ (80025f0 <format_menu_line+0x6c>)
 80025b0:	687b      	ldr	r3, [r7, #4]
 80025b2:	f852 3023 	ldr.w	r3, [r2, r3, lsl #2]
 80025b6:	f107 0014 	add.w	r0, r7, #20
 80025ba:	4a0e      	ldr	r2, [pc, #56]	@ (80025f4 <format_menu_line+0x70>)
 80025bc:	2110      	movs	r1, #16
 80025be:	f005 f9a5 	bl	800790c <sniprintf>
        snprintf(buf, bufsize, "%c%s", prefix, item);
 80025c2:	f897 2027 	ldrb.w	r2, [r7, #39]	@ 0x27
 80025c6:	f107 0314 	add.w	r3, r7, #20
 80025ca:	9300      	str	r3, [sp, #0]
 80025cc:	4613      	mov	r3, r2
 80025ce:	4a0a      	ldr	r2, [pc, #40]	@ (80025f8 <format_menu_line+0x74>)
 80025d0:	68b9      	ldr	r1, [r7, #8]
 80025d2:	68f8      	ldr	r0, [r7, #12]
 80025d4:	f005 f99a 	bl	800790c <sniprintf>
    if (idx < MAIN_MENU_COUNT && idx >= 0) {
 80025d8:	e005      	b.n	80025e6 <format_menu_line+0x62>
    } else {
        snprintf(buf, bufsize, "                ");
 80025da:	4a08      	ldr	r2, [pc, #32]	@ (80025fc <format_menu_line+0x78>)
 80025dc:	68b9      	ldr	r1, [r7, #8]
 80025de:	68f8      	ldr	r0, [r7, #12]
 80025e0:	f005 f994 	bl	800790c <sniprintf>
    }
}
 80025e4:	bf00      	nop
 80025e6:	bf00      	nop
 80025e8:	3728      	adds	r7, #40	@ 0x28
 80025ea:	46bd      	mov	sp, r7
 80025ec:	bd80      	pop	{r7, pc}
 80025ee:	bf00      	nop
 80025f0:	20000038 	.word	0x20000038
 80025f4:	08008540 	.word	0x08008540
 80025f8:	0800854c 	.word	0x0800854c
 80025fc:	08008554 	.word	0x08008554

08002600 <show_welcome>:

/* ===== Render functions ===== */

static void show_welcome(void){
 8002600:	b580      	push	{r7, lr}
 8002602:	af00      	add	r7, sp, #0
    lcd_clear();
 8002604:	f7fe fd27 	bl	8001056 <lcd_clear>
    lcd_line0("  Welcome to ");
 8002608:	4803      	ldr	r0, [pc, #12]	@ (8002618 <show_welcome+0x18>)
 800260a:	f7ff ff87 	bl	800251c <lcd_line0>
    lcd_line1("   HELONIX   ");
 800260e:	4803      	ldr	r0, [pc, #12]	@ (800261c <show_welcome+0x1c>)
 8002610:	f7ff ff90 	bl	8002534 <lcd_line1>
}
 8002614:	bf00      	nop
 8002616:	bd80      	pop	{r7, pc}
 8002618:	08008568 	.word	0x08008568
 800261c:	08008578 	.word	0x08008578

08002620 <show_dash>:

static void show_dash(void) {
 8002620:	b580      	push	{r7, lr}
 8002622:	b08e      	sub	sp, #56	@ 0x38
 8002624:	af00      	add	r7, sp, #0
    char line0[17], line1[17];
    // Motor status
    const char *motor = Motor_GetStatus() ? "ON" : "OFF";
 8002626:	f7ff fe4b 	bl	80022c0 <Motor_GetStatus>
 800262a:	4603      	mov	r3, r0
 800262c:	2b00      	cmp	r3, #0
 800262e:	d001      	beq.n	8002634 <show_dash+0x14>
 8002630:	4b2a      	ldr	r3, [pc, #168]	@ (80026dc <show_dash+0xbc>)
 8002632:	e000      	b.n	8002636 <show_dash+0x16>
 8002634:	4b2a      	ldr	r3, [pc, #168]	@ (80026e0 <show_dash+0xc0>)
 8002636:	62bb      	str	r3, [r7, #40]	@ 0x28
    snprintf(line0,sizeof(line0),"Motor:%-3s",motor);
 8002638:	f107 0014 	add.w	r0, r7, #20
 800263c:	6abb      	ldr	r3, [r7, #40]	@ 0x28
 800263e:	4a29      	ldr	r2, [pc, #164]	@ (80026e4 <show_dash+0xc4>)
 8002640:	2111      	movs	r1, #17
 8002642:	f005 f963 	bl	800790c <sniprintf>

    // Water level based on count of sensors 0–4 reading <0.1V
    int submergedCount = 0;
 8002646:	2300      	movs	r3, #0
 8002648:	637b      	str	r3, [r7, #52]	@ 0x34
    for (int i=0; i<5; i++) {
 800264a:	2300      	movs	r3, #0
 800264c:	633b      	str	r3, [r7, #48]	@ 0x30
 800264e:	e012      	b.n	8002676 <show_dash+0x56>
        if (adcData.voltages[i] < 0.1f) submergedCount++;
 8002650:	4a25      	ldr	r2, [pc, #148]	@ (80026e8 <show_dash+0xc8>)
 8002652:	6b3b      	ldr	r3, [r7, #48]	@ 0x30
 8002654:	3302      	adds	r3, #2
 8002656:	009b      	lsls	r3, r3, #2
 8002658:	4413      	add	r3, r2
 800265a:	685b      	ldr	r3, [r3, #4]
 800265c:	4923      	ldr	r1, [pc, #140]	@ (80026ec <show_dash+0xcc>)
 800265e:	4618      	mov	r0, r3
 8002660:	f7fe f832 	bl	80006c8 <__aeabi_fcmplt>
 8002664:	4603      	mov	r3, r0
 8002666:	2b00      	cmp	r3, #0
 8002668:	d002      	beq.n	8002670 <show_dash+0x50>
 800266a:	6b7b      	ldr	r3, [r7, #52]	@ 0x34
 800266c:	3301      	adds	r3, #1
 800266e:	637b      	str	r3, [r7, #52]	@ 0x34
    for (int i=0; i<5; i++) {
 8002670:	6b3b      	ldr	r3, [r7, #48]	@ 0x30
 8002672:	3301      	adds	r3, #1
 8002674:	633b      	str	r3, [r7, #48]	@ 0x30
 8002676:	6b3b      	ldr	r3, [r7, #48]	@ 0x30
 8002678:	2b04      	cmp	r3, #4
 800267a:	dde9      	ble.n	8002650 <show_dash+0x30>
    }

    const char *level;
    switch (submergedCount) {
 800267c:	6b7b      	ldr	r3, [r7, #52]	@ 0x34
 800267e:	2b03      	cmp	r3, #3
 8002680:	d816      	bhi.n	80026b0 <show_dash+0x90>
 8002682:	a201      	add	r2, pc, #4	@ (adr r2, 8002688 <show_dash+0x68>)
 8002684:	f852 f023 	ldr.w	pc, [r2, r3, lsl #2]
 8002688:	08002699 	.word	0x08002699
 800268c:	0800269f 	.word	0x0800269f
 8002690:	080026a5 	.word	0x080026a5
 8002694:	080026ab 	.word	0x080026ab
        case 0:  level = "EMPTY"; break;
 8002698:	4b15      	ldr	r3, [pc, #84]	@ (80026f0 <show_dash+0xd0>)
 800269a:	62fb      	str	r3, [r7, #44]	@ 0x2c
 800269c:	e00b      	b.n	80026b6 <show_dash+0x96>
        case 1:  level = "LOW";   break;
 800269e:	4b15      	ldr	r3, [pc, #84]	@ (80026f4 <show_dash+0xd4>)
 80026a0:	62fb      	str	r3, [r7, #44]	@ 0x2c
 80026a2:	e008      	b.n	80026b6 <show_dash+0x96>
        case 2:  level = "HALF";  break;
 80026a4:	4b14      	ldr	r3, [pc, #80]	@ (80026f8 <show_dash+0xd8>)
 80026a6:	62fb      	str	r3, [r7, #44]	@ 0x2c
 80026a8:	e005      	b.n	80026b6 <show_dash+0x96>
        case 3:  level = "3/4";   break;
 80026aa:	4b14      	ldr	r3, [pc, #80]	@ (80026fc <show_dash+0xdc>)
 80026ac:	62fb      	str	r3, [r7, #44]	@ 0x2c
 80026ae:	e002      	b.n	80026b6 <show_dash+0x96>
        default: level = "FULL";  break;
 80026b0:	4b13      	ldr	r3, [pc, #76]	@ (8002700 <show_dash+0xe0>)
 80026b2:	62fb      	str	r3, [r7, #44]	@ 0x2c
 80026b4:	bf00      	nop
    }

    snprintf(line1,sizeof(line1),"Water:%-5s",level);
 80026b6:	4638      	mov	r0, r7
 80026b8:	6afb      	ldr	r3, [r7, #44]	@ 0x2c
 80026ba:	4a12      	ldr	r2, [pc, #72]	@ (8002704 <show_dash+0xe4>)
 80026bc:	2111      	movs	r1, #17
 80026be:	f005 f925 	bl	800790c <sniprintf>

    lcd_line0(line0);
 80026c2:	f107 0314 	add.w	r3, r7, #20
 80026c6:	4618      	mov	r0, r3
 80026c8:	f7ff ff28 	bl	800251c <lcd_line0>
    lcd_line1(line1);
 80026cc:	463b      	mov	r3, r7
 80026ce:	4618      	mov	r0, r3
 80026d0:	f7ff ff30 	bl	8002534 <lcd_line1>

}
 80026d4:	bf00      	nop
 80026d6:	3738      	adds	r7, #56	@ 0x38
 80026d8:	46bd      	mov	sp, r7
 80026da:	bd80      	pop	{r7, pc}
 80026dc:	08008588 	.word	0x08008588
 80026e0:	0800858c 	.word	0x0800858c
 80026e4:	08008590 	.word	0x08008590
 80026e8:	200002ec 	.word	0x200002ec
 80026ec:	3dcccccd 	.word	0x3dcccccd
 80026f0:	0800859c 	.word	0x0800859c
 80026f4:	080085a4 	.word	0x080085a4
 80026f8:	080085a8 	.word	0x080085a8
 80026fc:	080085b0 	.word	0x080085b0
 8002700:	080085b4 	.word	0x080085b4
 8002704:	080085bc 	.word	0x080085bc

08002708 <show_menu>:

static void show_menu(void){
 8002708:	b580      	push	{r7, lr}
 800270a:	b08a      	sub	sp, #40	@ 0x28
 800270c:	af00      	add	r7, sp, #0
    char line0[17], line1[17];
    if (menu_idx < menu_view_top) menu_view_top = menu_idx;
 800270e:	4b2a      	ldr	r3, [pc, #168]	@ (80027b8 <show_menu+0xb0>)
 8002710:	681a      	ldr	r2, [r3, #0]
 8002712:	4b2a      	ldr	r3, [pc, #168]	@ (80027bc <show_menu+0xb4>)
 8002714:	681b      	ldr	r3, [r3, #0]
 8002716:	429a      	cmp	r2, r3
 8002718:	da04      	bge.n	8002724 <show_menu+0x1c>
 800271a:	4b27      	ldr	r3, [pc, #156]	@ (80027b8 <show_menu+0xb0>)
 800271c:	681b      	ldr	r3, [r3, #0]
 800271e:	4a27      	ldr	r2, [pc, #156]	@ (80027bc <show_menu+0xb4>)
 8002720:	6013      	str	r3, [r2, #0]
 8002722:	e00b      	b.n	800273c <show_menu+0x34>
    else if (menu_idx > menu_view_top+1) menu_view_top = menu_idx-1;
 8002724:	4b25      	ldr	r3, [pc, #148]	@ (80027bc <show_menu+0xb4>)
 8002726:	681b      	ldr	r3, [r3, #0]
 8002728:	1c5a      	adds	r2, r3, #1
 800272a:	4b23      	ldr	r3, [pc, #140]	@ (80027b8 <show_menu+0xb0>)
 800272c:	681b      	ldr	r3, [r3, #0]
 800272e:	429a      	cmp	r2, r3
 8002730:	da04      	bge.n	800273c <show_menu+0x34>
 8002732:	4b21      	ldr	r3, [pc, #132]	@ (80027b8 <show_menu+0xb0>)
 8002734:	681b      	ldr	r3, [r3, #0]
 8002736:	3b01      	subs	r3, #1
 8002738:	4a20      	ldr	r2, [pc, #128]	@ (80027bc <show_menu+0xb4>)
 800273a:	6013      	str	r3, [r2, #0]
    format_menu_line(line0,sizeof(line0),menu_view_top,menu_idx==menu_view_top && cursorVisible);
 800273c:	4b1f      	ldr	r3, [pc, #124]	@ (80027bc <show_menu+0xb4>)
 800273e:	6819      	ldr	r1, [r3, #0]
 8002740:	4b1d      	ldr	r3, [pc, #116]	@ (80027b8 <show_menu+0xb0>)
 8002742:	681a      	ldr	r2, [r3, #0]
 8002744:	4b1d      	ldr	r3, [pc, #116]	@ (80027bc <show_menu+0xb4>)
 8002746:	681b      	ldr	r3, [r3, #0]
 8002748:	429a      	cmp	r2, r3
 800274a:	d105      	bne.n	8002758 <show_menu+0x50>
 800274c:	4b1c      	ldr	r3, [pc, #112]	@ (80027c0 <show_menu+0xb8>)
 800274e:	781b      	ldrb	r3, [r3, #0]
 8002750:	2b00      	cmp	r3, #0
 8002752:	d001      	beq.n	8002758 <show_menu+0x50>
 8002754:	2301      	movs	r3, #1
 8002756:	e000      	b.n	800275a <show_menu+0x52>
 8002758:	2300      	movs	r3, #0
 800275a:	f003 0301 	and.w	r3, r3, #1
 800275e:	b2db      	uxtb	r3, r3
 8002760:	f107 0014 	add.w	r0, r7, #20
 8002764:	460a      	mov	r2, r1
 8002766:	2111      	movs	r1, #17
 8002768:	f7ff ff0c 	bl	8002584 <format_menu_line>
    format_menu_line(line1,sizeof(line1),menu_view_top+1,menu_idx==(menu_view_top+1) && cursorVisible);
 800276c:	4b13      	ldr	r3, [pc, #76]	@ (80027bc <show_menu+0xb4>)
 800276e:	681b      	ldr	r3, [r3, #0]
 8002770:	1c59      	adds	r1, r3, #1
 8002772:	4b12      	ldr	r3, [pc, #72]	@ (80027bc <show_menu+0xb4>)
 8002774:	681b      	ldr	r3, [r3, #0]
 8002776:	1c5a      	adds	r2, r3, #1
 8002778:	4b0f      	ldr	r3, [pc, #60]	@ (80027b8 <show_menu+0xb0>)
 800277a:	681b      	ldr	r3, [r3, #0]
 800277c:	429a      	cmp	r2, r3
 800277e:	d105      	bne.n	800278c <show_menu+0x84>
 8002780:	4b0f      	ldr	r3, [pc, #60]	@ (80027c0 <show_menu+0xb8>)
 8002782:	781b      	ldrb	r3, [r3, #0]
 8002784:	2b00      	cmp	r3, #0
 8002786:	d001      	beq.n	800278c <show_menu+0x84>
 8002788:	2301      	movs	r3, #1
 800278a:	e000      	b.n	800278e <show_menu+0x86>
 800278c:	2300      	movs	r3, #0
 800278e:	f003 0301 	and.w	r3, r3, #1
 8002792:	b2db      	uxtb	r3, r3
 8002794:	4638      	mov	r0, r7
 8002796:	460a      	mov	r2, r1
 8002798:	2111      	movs	r1, #17
 800279a:	f7ff fef3 	bl	8002584 <format_menu_line>
    lcd_line0(line0);
 800279e:	f107 0314 	add.w	r3, r7, #20
 80027a2:	4618      	mov	r0, r3
 80027a4:	f7ff feba 	bl	800251c <lcd_line0>
    lcd_line1(line1);
 80027a8:	463b      	mov	r3, r7
 80027aa:	4618      	mov	r0, r3
 80027ac:	f7ff fec2 	bl	8002534 <lcd_line1>
}
 80027b0:	bf00      	nop
 80027b2:	3728      	adds	r7, #40	@ 0x28
 80027b4:	46bd      	mov	sp, r7
 80027b6:	bd80      	pop	{r7, pc}
 80027b8:	200003ec 	.word	0x200003ec
 80027bc:	200003f0 	.word	0x200003f0
 80027c0:	20000035 	.word	0x20000035

080027c4 <show_manual>:

static void show_manual(void){
 80027c4:	b580      	push	{r7, lr}
 80027c6:	b08a      	sub	sp, #40	@ 0x28
 80027c8:	af00      	add	r7, sp, #0
    char line0[17], line1[17];
    snprintf(line0,sizeof(line0),"Manual Mode");
 80027ca:	f107 0314 	add.w	r3, r7, #20
 80027ce:	4a12      	ldr	r2, [pc, #72]	@ (8002818 <show_manual+0x54>)
 80027d0:	2111      	movs	r1, #17
 80027d2:	4618      	mov	r0, r3
 80027d4:	f005 f89a 	bl	800790c <sniprintf>
    if (Motor_GetStatus()) snprintf(line1,sizeof(line1),">Stop     Back");
 80027d8:	f7ff fd72 	bl	80022c0 <Motor_GetStatus>
 80027dc:	4603      	mov	r3, r0
 80027de:	2b00      	cmp	r3, #0
 80027e0:	d006      	beq.n	80027f0 <show_manual+0x2c>
 80027e2:	463b      	mov	r3, r7
 80027e4:	4a0d      	ldr	r2, [pc, #52]	@ (800281c <show_manual+0x58>)
 80027e6:	2111      	movs	r1, #17
 80027e8:	4618      	mov	r0, r3
 80027ea:	f005 f88f 	bl	800790c <sniprintf>
 80027ee:	e005      	b.n	80027fc <show_manual+0x38>
    else snprintf(line1,sizeof(line1),">Start    Back");
 80027f0:	463b      	mov	r3, r7
 80027f2:	4a0b      	ldr	r2, [pc, #44]	@ (8002820 <show_manual+0x5c>)
 80027f4:	2111      	movs	r1, #17
 80027f6:	4618      	mov	r0, r3
 80027f8:	f005 f888 	bl	800790c <sniprintf>
    lcd_line0(line0);
 80027fc:	f107 0314 	add.w	r3, r7, #20
 8002800:	4618      	mov	r0, r3
 8002802:	f7ff fe8b 	bl	800251c <lcd_line0>
    lcd_line1(line1);
 8002806:	463b      	mov	r3, r7
 8002808:	4618      	mov	r0, r3
 800280a:	f7ff fe93 	bl	8002534 <lcd_line1>
}
 800280e:	bf00      	nop
 8002810:	3728      	adds	r7, #40	@ 0x28
 8002812:	46bd      	mov	sp, r7
 8002814:	bd80      	pop	{r7, pc}
 8002816:	bf00      	nop
 8002818:	080084d8 	.word	0x080084d8
 800281c:	080085c8 	.word	0x080085c8
 8002820:	080085d8 	.word	0x080085d8

08002824 <show_semi_auto>:

static void show_semi_auto(void){
 8002824:	b580      	push	{r7, lr}
 8002826:	b08a      	sub	sp, #40	@ 0x28
 8002828:	af00      	add	r7, sp, #0
    char line0[17], line1[17];
    snprintf(line0,sizeof(line0),"Semi-Auto Mode");
 800282a:	f107 0314 	add.w	r3, r7, #20
 800282e:	4a11      	ldr	r2, [pc, #68]	@ (8002874 <show_semi_auto+0x50>)
 8002830:	2111      	movs	r1, #17
 8002832:	4618      	mov	r0, r3
 8002834:	f005 f86a 	bl	800790c <sniprintf>
    if (semiAutoEnabled) snprintf(line1,sizeof(line1),">Disable  Back");
 8002838:	4b0f      	ldr	r3, [pc, #60]	@ (8002878 <show_semi_auto+0x54>)
 800283a:	781b      	ldrb	r3, [r3, #0]
 800283c:	2b00      	cmp	r3, #0
 800283e:	d006      	beq.n	800284e <show_semi_auto+0x2a>
 8002840:	463b      	mov	r3, r7
 8002842:	4a0e      	ldr	r2, [pc, #56]	@ (800287c <show_semi_auto+0x58>)
 8002844:	2111      	movs	r1, #17
 8002846:	4618      	mov	r0, r3
 8002848:	f005 f860 	bl	800790c <sniprintf>
 800284c:	e005      	b.n	800285a <show_semi_auto+0x36>
    else snprintf(line1,sizeof(line1),">Enable   Back");
 800284e:	463b      	mov	r3, r7
 8002850:	4a0b      	ldr	r2, [pc, #44]	@ (8002880 <show_semi_auto+0x5c>)
 8002852:	2111      	movs	r1, #17
 8002854:	4618      	mov	r0, r3
 8002856:	f005 f859 	bl	800790c <sniprintf>
    lcd_line0(line0);
 800285a:	f107 0314 	add.w	r3, r7, #20
 800285e:	4618      	mov	r0, r3
 8002860:	f7ff fe5c 	bl	800251c <lcd_line0>
    lcd_line1(line1);
 8002864:	463b      	mov	r3, r7
 8002866:	4618      	mov	r0, r3
 8002868:	f7ff fe64 	bl	8002534 <lcd_line1>
}
 800286c:	bf00      	nop
 800286e:	3728      	adds	r7, #40	@ 0x28
 8002870:	46bd      	mov	sp, r7
 8002872:	bd80      	pop	{r7, pc}
 8002874:	080084e4 	.word	0x080084e4
 8002878:	200003e8 	.word	0x200003e8
 800287c:	080085e8 	.word	0x080085e8
 8002880:	080085f8 	.word	0x080085f8

08002884 <show_timer>:

static void show_timer(void){
 8002884:	b580      	push	{r7, lr}
 8002886:	b08c      	sub	sp, #48	@ 0x30
 8002888:	af02      	add	r7, sp, #8
    char l0[17], l1[17];
    snprintf(l0,sizeof(l0),"T1 ON %02d:%02d",edit_timer_on_h,edit_timer_on_m);
 800288a:	4b13      	ldr	r3, [pc, #76]	@ (80028d8 <show_timer+0x54>)
 800288c:	781b      	ldrb	r3, [r3, #0]
 800288e:	461a      	mov	r2, r3
 8002890:	4b12      	ldr	r3, [pc, #72]	@ (80028dc <show_timer+0x58>)
 8002892:	781b      	ldrb	r3, [r3, #0]
 8002894:	f107 0014 	add.w	r0, r7, #20
 8002898:	9300      	str	r3, [sp, #0]
 800289a:	4613      	mov	r3, r2
 800289c:	4a10      	ldr	r2, [pc, #64]	@ (80028e0 <show_timer+0x5c>)
 800289e:	2111      	movs	r1, #17
 80028a0:	f005 f834 	bl	800790c <sniprintf>
    snprintf(l1,sizeof(l1),"T1 OFF %02d:%02d",edit_timer_off_h,edit_timer_off_m);
 80028a4:	4b0f      	ldr	r3, [pc, #60]	@ (80028e4 <show_timer+0x60>)
 80028a6:	781b      	ldrb	r3, [r3, #0]
 80028a8:	461a      	mov	r2, r3
 80028aa:	4b0f      	ldr	r3, [pc, #60]	@ (80028e8 <show_timer+0x64>)
 80028ac:	781b      	ldrb	r3, [r3, #0]
 80028ae:	4638      	mov	r0, r7
 80028b0:	9300      	str	r3, [sp, #0]
 80028b2:	4613      	mov	r3, r2
 80028b4:	4a0d      	ldr	r2, [pc, #52]	@ (80028ec <show_timer+0x68>)
 80028b6:	2111      	movs	r1, #17
 80028b8:	f005 f828 	bl	800790c <sniprintf>
    lcd_line0(l0);
 80028bc:	f107 0314 	add.w	r3, r7, #20
 80028c0:	4618      	mov	r0, r3
 80028c2:	f7ff fe2b 	bl	800251c <lcd_line0>
    lcd_line1(l1);
 80028c6:	463b      	mov	r3, r7
 80028c8:	4618      	mov	r0, r3
 80028ca:	f7ff fe33 	bl	8002534 <lcd_line1>
}
 80028ce:	bf00      	nop
 80028d0:	3728      	adds	r7, #40	@ 0x28
 80028d2:	46bd      	mov	sp, r7
 80028d4:	bd80      	pop	{r7, pc}
 80028d6:	bf00      	nop
 80028d8:	20000054 	.word	0x20000054
 80028dc:	20000055 	.word	0x20000055
 80028e0:	08008608 	.word	0x08008608
 80028e4:	20000056 	.word	0x20000056
 80028e8:	20000057 	.word	0x20000057
 80028ec:	08008618 	.word	0x08008618

080028f0 <show_search>:

static void show_search(void){
 80028f0:	b580      	push	{r7, lr}
 80028f2:	b08c      	sub	sp, #48	@ 0x30
 80028f4:	af02      	add	r7, sp, #8
    char l0[17], l1[17];
    snprintf(l0,sizeof(l0),"Gap:%3ds Dry:%3ds",edit_search_gap_s,edit_search_dry_s);
 80028f6:	4b10      	ldr	r3, [pc, #64]	@ (8002938 <show_search+0x48>)
 80028f8:	881b      	ldrh	r3, [r3, #0]
 80028fa:	461a      	mov	r2, r3
 80028fc:	4b0f      	ldr	r3, [pc, #60]	@ (800293c <show_search+0x4c>)
 80028fe:	881b      	ldrh	r3, [r3, #0]
 8002900:	f107 0014 	add.w	r0, r7, #20
 8002904:	9300      	str	r3, [sp, #0]
 8002906:	4613      	mov	r3, r2
 8002908:	4a0d      	ldr	r2, [pc, #52]	@ (8002940 <show_search+0x50>)
 800290a:	2111      	movs	r1, #17
 800290c:	f004 fffe 	bl	800790c <sniprintf>
    snprintf(l1,sizeof(l1),">Edit     Back");
 8002910:	463b      	mov	r3, r7
 8002912:	4a0c      	ldr	r2, [pc, #48]	@ (8002944 <show_search+0x54>)
 8002914:	2111      	movs	r1, #17
 8002916:	4618      	mov	r0, r3
 8002918:	f004 fff8 	bl	800790c <sniprintf>
    lcd_line0(l0);
 800291c:	f107 0314 	add.w	r3, r7, #20
 8002920:	4618      	mov	r0, r3
 8002922:	f7ff fdfb 	bl	800251c <lcd_line0>
    lcd_line1(l1);
 8002926:	463b      	mov	r3, r7
 8002928:	4618      	mov	r0, r3
 800292a:	f7ff fe03 	bl	8002534 <lcd_line1>
}
 800292e:	bf00      	nop
 8002930:	3728      	adds	r7, #40	@ 0x28
 8002932:	46bd      	mov	sp, r7
 8002934:	bd80      	pop	{r7, pc}
 8002936:	bf00      	nop
 8002938:	20000058 	.word	0x20000058
 800293c:	2000005a 	.word	0x2000005a
 8002940:	0800862c 	.word	0x0800862c
 8002944:	08008640 	.word	0x08008640

08002948 <show_countdown>:

static void show_countdown(void){
 8002948:	b580      	push	{r7, lr}
 800294a:	b090      	sub	sp, #64	@ 0x40
 800294c:	af02      	add	r7, sp, #8
    char l0[17], l1[17];
    if (countdownActive) {
 800294e:	4b1f      	ldr	r3, [pc, #124]	@ (80029cc <show_countdown+0x84>)
 8002950:	781b      	ldrb	r3, [r3, #0]
 8002952:	b2db      	uxtb	r3, r3
 8002954:	2b00      	cmp	r3, #0
 8002956:	d01e      	beq.n	8002996 <show_countdown+0x4e>
        uint32_t sec = countdownDuration;
 8002958:	4b1d      	ldr	r3, [pc, #116]	@ (80029d0 <show_countdown+0x88>)
 800295a:	681b      	ldr	r3, [r3, #0]
 800295c:	637b      	str	r3, [r7, #52]	@ 0x34
        uint32_t min = sec/60;
 800295e:	6b7b      	ldr	r3, [r7, #52]	@ 0x34
 8002960:	4a1c      	ldr	r2, [pc, #112]	@ (80029d4 <show_countdown+0x8c>)
 8002962:	fba2 2303 	umull	r2, r3, r2, r3
 8002966:	095b      	lsrs	r3, r3, #5
 8002968:	633b      	str	r3, [r7, #48]	@ 0x30
        uint32_t s = sec%60;
 800296a:	6b7a      	ldr	r2, [r7, #52]	@ 0x34
 800296c:	4b19      	ldr	r3, [pc, #100]	@ (80029d4 <show_countdown+0x8c>)
 800296e:	fba3 1302 	umull	r1, r3, r3, r2
 8002972:	0959      	lsrs	r1, r3, #5
 8002974:	460b      	mov	r3, r1
 8002976:	011b      	lsls	r3, r3, #4
 8002978:	1a5b      	subs	r3, r3, r1
 800297a:	009b      	lsls	r3, r3, #2
 800297c:	1ad3      	subs	r3, r2, r3
 800297e:	62fb      	str	r3, [r7, #44]	@ 0x2c
        snprintf(l0,sizeof(l0),"Count %02d:%02d",(int)min,(int)s);
 8002980:	6b3a      	ldr	r2, [r7, #48]	@ 0x30
 8002982:	6afb      	ldr	r3, [r7, #44]	@ 0x2c
 8002984:	f107 0018 	add.w	r0, r7, #24
 8002988:	9300      	str	r3, [sp, #0]
 800298a:	4613      	mov	r3, r2
 800298c:	4a12      	ldr	r2, [pc, #72]	@ (80029d8 <show_countdown+0x90>)
 800298e:	2111      	movs	r1, #17
 8002990:	f004 ffbc 	bl	800790c <sniprintf>
 8002994:	e006      	b.n	80029a4 <show_countdown+0x5c>
    } else {
        snprintf(l0,sizeof(l0),"Countdown Inact");
 8002996:	f107 0318 	add.w	r3, r7, #24
 800299a:	4a10      	ldr	r2, [pc, #64]	@ (80029dc <show_countdown+0x94>)
 800299c:	2111      	movs	r1, #17
 800299e:	4618      	mov	r0, r3
 80029a0:	f004 ffb4 	bl	800790c <sniprintf>
    }
    snprintf(l1,sizeof(l1),">Set Start Back");
 80029a4:	1d3b      	adds	r3, r7, #4
 80029a6:	4a0e      	ldr	r2, [pc, #56]	@ (80029e0 <show_countdown+0x98>)
 80029a8:	2111      	movs	r1, #17
 80029aa:	4618      	mov	r0, r3
 80029ac:	f004 ffae 	bl	800790c <sniprintf>
    lcd_line0(l0);
 80029b0:	f107 0318 	add.w	r3, r7, #24
 80029b4:	4618      	mov	r0, r3
 80029b6:	f7ff fdb1 	bl	800251c <lcd_line0>
    lcd_line1(l1);
 80029ba:	1d3b      	adds	r3, r7, #4
 80029bc:	4618      	mov	r0, r3
 80029be:	f7ff fdb9 	bl	8002534 <lcd_line1>
}
 80029c2:	bf00      	nop
 80029c4:	3738      	adds	r7, #56	@ 0x38
 80029c6:	46bd      	mov	sp, r7
 80029c8:	bd80      	pop	{r7, pc}
 80029ca:	bf00      	nop
 80029cc:	20000359 	.word	0x20000359
 80029d0:	2000035c 	.word	0x2000035c
 80029d4:	88888889 	.word	0x88888889
 80029d8:	08008650 	.word	0x08008650
 80029dc:	08008660 	.word	0x08008660
 80029e0:	08008670 	.word	0x08008670

080029e4 <show_twist>:

static void show_twist(void){
 80029e4:	b580      	push	{r7, lr}
 80029e6:	b08a      	sub	sp, #40	@ 0x28
 80029e8:	af00      	add	r7, sp, #0
    char l0[17], l1[17];
    snprintf(l0,sizeof(l0),"Twist ON:%3ds",edit_twist_on_s);
 80029ea:	4b0e      	ldr	r3, [pc, #56]	@ (8002a24 <show_twist+0x40>)
 80029ec:	881b      	ldrh	r3, [r3, #0]
 80029ee:	f107 0014 	add.w	r0, r7, #20
 80029f2:	4a0d      	ldr	r2, [pc, #52]	@ (8002a28 <show_twist+0x44>)
 80029f4:	2111      	movs	r1, #17
 80029f6:	f004 ff89 	bl	800790c <sniprintf>
    snprintf(l1,sizeof(l1),"Twist OFF:%3ds",edit_twist_off_s);
 80029fa:	4b0c      	ldr	r3, [pc, #48]	@ (8002a2c <show_twist+0x48>)
 80029fc:	881b      	ldrh	r3, [r3, #0]
 80029fe:	4638      	mov	r0, r7
 8002a00:	4a0b      	ldr	r2, [pc, #44]	@ (8002a30 <show_twist+0x4c>)
 8002a02:	2111      	movs	r1, #17
 8002a04:	f004 ff82 	bl	800790c <sniprintf>
    lcd_line0(l0);
 8002a08:	f107 0314 	add.w	r3, r7, #20
 8002a0c:	4618      	mov	r0, r3
 8002a0e:	f7ff fd85 	bl	800251c <lcd_line0>
    lcd_line1(l1);
 8002a12:	463b      	mov	r3, r7
 8002a14:	4618      	mov	r0, r3
 8002a16:	f7ff fd8d 	bl	8002534 <lcd_line1>
}
 8002a1a:	bf00      	nop
 8002a1c:	3728      	adds	r7, #40	@ 0x28
 8002a1e:	46bd      	mov	sp, r7
 8002a20:	bd80      	pop	{r7, pc}
 8002a22:	bf00      	nop
 8002a24:	2000005c 	.word	0x2000005c
 8002a28:	08008680 	.word	0x08008680
 8002a2c:	2000005e 	.word	0x2000005e
 8002a30:	08008690 	.word	0x08008690

08002a34 <apply_search_settings>:
/* === apply + rest of code remains the same (no changes needed) === */
// (keep your Screen_Update, Screen_Init, Screen_HandleButton etc. logic untouched)
// Just keep all snprintf() lines trimmed to <=16 characters like above

/* ===== Apply functions (write edits to real settings) ===== */
static void apply_search_settings(void){
 8002a34:	b480      	push	{r7}
 8002a36:	af00      	add	r7, sp, #0
    searchSettings.testingGapSeconds = edit_search_gap_s;
 8002a38:	4b06      	ldr	r3, [pc, #24]	@ (8002a54 <apply_search_settings+0x20>)
 8002a3a:	881b      	ldrh	r3, [r3, #0]
 8002a3c:	461a      	mov	r2, r3
 8002a3e:	4b06      	ldr	r3, [pc, #24]	@ (8002a58 <apply_search_settings+0x24>)
 8002a40:	605a      	str	r2, [r3, #4]
    searchSettings.dryRunTimeSeconds = edit_search_dry_s;
 8002a42:	4b06      	ldr	r3, [pc, #24]	@ (8002a5c <apply_search_settings+0x28>)
 8002a44:	881b      	ldrh	r3, [r3, #0]
 8002a46:	461a      	mov	r2, r3
 8002a48:	4b03      	ldr	r3, [pc, #12]	@ (8002a58 <apply_search_settings+0x24>)
 8002a4a:	609a      	str	r2, [r3, #8]
    // If you need to call any apply function or save to non-volatile, do it here.
}
 8002a4c:	bf00      	nop
 8002a4e:	46bd      	mov	sp, r7
 8002a50:	bc80      	pop	{r7}
 8002a52:	4770      	bx	lr
 8002a54:	20000058 	.word	0x20000058
 8002a58:	2000001c 	.word	0x2000001c
 8002a5c:	2000005a 	.word	0x2000005a

08002a60 <apply_twist_settings>:

static void apply_twist_settings(void){
 8002a60:	b480      	push	{r7}
 8002a62:	af00      	add	r7, sp, #0
    twistSettings.onDurationSeconds = edit_twist_on_s;
 8002a64:	4b06      	ldr	r3, [pc, #24]	@ (8002a80 <apply_twist_settings+0x20>)
 8002a66:	881b      	ldrh	r3, [r3, #0]
 8002a68:	461a      	mov	r2, r3
 8002a6a:	4b06      	ldr	r3, [pc, #24]	@ (8002a84 <apply_twist_settings+0x24>)
 8002a6c:	605a      	str	r2, [r3, #4]
    twistSettings.offDurationSeconds = edit_twist_off_s;
 8002a6e:	4b06      	ldr	r3, [pc, #24]	@ (8002a88 <apply_twist_settings+0x28>)
 8002a70:	881b      	ldrh	r3, [r3, #0]
 8002a72:	461a      	mov	r2, r3
 8002a74:	4b03      	ldr	r3, [pc, #12]	@ (8002a84 <apply_twist_settings+0x24>)
 8002a76:	609a      	str	r2, [r3, #8]
}
 8002a78:	bf00      	nop
 8002a7a:	46bd      	mov	sp, r7
 8002a7c:	bc80      	pop	{r7}
 8002a7e:	4770      	bx	lr
 8002a80:	2000005c 	.word	0x2000005c
 8002a84:	20000028 	.word	0x20000028
 8002a88:	2000005e 	.word	0x2000005e

08002a8c <apply_countdown_settings>:

static void apply_countdown_settings(void){
 8002a8c:	b480      	push	{r7}
 8002a8e:	af00      	add	r7, sp, #0
    countdownDuration = (uint32_t)edit_countdown_min * 60u;
 8002a90:	4b06      	ldr	r3, [pc, #24]	@ (8002aac <apply_countdown_settings+0x20>)
 8002a92:	881b      	ldrh	r3, [r3, #0]
 8002a94:	461a      	mov	r2, r3
 8002a96:	4613      	mov	r3, r2
 8002a98:	011b      	lsls	r3, r3, #4
 8002a9a:	1a9b      	subs	r3, r3, r2
 8002a9c:	009b      	lsls	r3, r3, #2
 8002a9e:	461a      	mov	r2, r3
 8002aa0:	4b03      	ldr	r3, [pc, #12]	@ (8002ab0 <apply_countdown_settings+0x24>)
 8002aa2:	601a      	str	r2, [r3, #0]
}
 8002aa4:	bf00      	nop
 8002aa6:	46bd      	mov	sp, r7
 8002aa8:	bc80      	pop	{r7}
 8002aaa:	4770      	bx	lr
 8002aac:	20000060 	.word	0x20000060
 8002ab0:	2000035c 	.word	0x2000035c

08002ab4 <apply_timer_settings>:

static void apply_timer_settings(void){
 8002ab4:	b480      	push	{r7}
 8002ab6:	af00      	add	r7, sp, #0
    (void)edit_timer_on_h;
    (void)edit_timer_on_m;
    (void)edit_timer_off_h;
    (void)edit_timer_off_m;
    // e.g. timerSlots[0].onHour = edit_timer_on_h; ...
}
 8002ab8:	bf00      	nop
 8002aba:	46bd      	mov	sp, r7
 8002abc:	bc80      	pop	{r7}
 8002abe:	4770      	bx	lr

08002ac0 <Screen_Update>:

/* ===== Core Update Loop ===== */

void Screen_Update(void){
 8002ac0:	b580      	push	{r7, lr}
 8002ac2:	b0dc      	sub	sp, #368	@ 0x170
 8002ac4:	af00      	add	r7, sp, #0
    uint32_t now = HAL_GetTick();
 8002ac6:	f001 f913 	bl	8003cf0 <HAL_GetTick>
 8002aca:	f8c7 0168 	str.w	r0, [r7, #360]	@ 0x168

    // Cursor blink on menu and all edit screens
    bool cursorBlinkActive = false;
 8002ace:	2300      	movs	r3, #0
 8002ad0:	f887 316f 	strb.w	r3, [r7, #367]	@ 0x16f
    switch (ui) {
 8002ad4:	4bb7      	ldr	r3, [pc, #732]	@ (8002db4 <Screen_Update+0x2f4>)
 8002ad6:	781b      	ldrb	r3, [r3, #0]
 8002ad8:	2b11      	cmp	r3, #17
 8002ada:	bf8c      	ite	hi
 8002adc:	2201      	movhi	r2, #1
 8002ade:	2200      	movls	r2, #0
 8002ae0:	b2d2      	uxtb	r2, r2
 8002ae2:	2a00      	cmp	r2, #0
 8002ae4:	d10f      	bne.n	8002b06 <Screen_Update+0x46>
 8002ae6:	4ab4      	ldr	r2, [pc, #720]	@ (8002db8 <Screen_Update+0x2f8>)
 8002ae8:	fa22 f303 	lsr.w	r3, r2, r3
 8002aec:	f003 0301 	and.w	r3, r3, #1
 8002af0:	2b00      	cmp	r3, #0
 8002af2:	bf14      	ite	ne
 8002af4:	2301      	movne	r3, #1
 8002af6:	2300      	moveq	r3, #0
 8002af8:	b2db      	uxtb	r3, r3
 8002afa:	2b00      	cmp	r3, #0
 8002afc:	d003      	beq.n	8002b06 <Screen_Update+0x46>
        case UI_SEARCH_EDIT_GAP:
        case UI_SEARCH_EDIT_DRY:
        case UI_COUNTDOWN_EDIT_MIN:
        case UI_TWIST_EDIT_ON:
        case UI_TWIST_EDIT_OFF:
            cursorBlinkActive = true;
 8002afe:	2301      	movs	r3, #1
 8002b00:	f887 316f 	strb.w	r3, [r7, #367]	@ 0x16f
            break;
 8002b04:	e006      	b.n	8002b14 <Screen_Update+0x54>
        default:
            cursorBlinkActive = false;
 8002b06:	2300      	movs	r3, #0
 8002b08:	f887 316f 	strb.w	r3, [r7, #367]	@ 0x16f
            cursorVisible = true; // always visible outside blinking screens
 8002b0c:	4bab      	ldr	r3, [pc, #684]	@ (8002dbc <Screen_Update+0x2fc>)
 8002b0e:	2201      	movs	r2, #1
 8002b10:	701a      	strb	r2, [r3, #0]
            break;
 8002b12:	bf00      	nop
    }

    if (cursorBlinkActive && (now - lastCursorToggle >= CURSOR_BLINK_MS)) {
 8002b14:	f897 316f 	ldrb.w	r3, [r7, #367]	@ 0x16f
 8002b18:	2b00      	cmp	r3, #0
 8002b1a:	d01e      	beq.n	8002b5a <Screen_Update+0x9a>
 8002b1c:	4ba8      	ldr	r3, [pc, #672]	@ (8002dc0 <Screen_Update+0x300>)
 8002b1e:	681b      	ldr	r3, [r3, #0]
 8002b20:	f8d7 2168 	ldr.w	r2, [r7, #360]	@ 0x168
 8002b24:	1ad3      	subs	r3, r2, r3
 8002b26:	f44f 72fa 	mov.w	r2, #500	@ 0x1f4
 8002b2a:	4293      	cmp	r3, r2
 8002b2c:	d315      	bcc.n	8002b5a <Screen_Update+0x9a>
        cursorVisible = !cursorVisible;
 8002b2e:	4ba3      	ldr	r3, [pc, #652]	@ (8002dbc <Screen_Update+0x2fc>)
 8002b30:	781b      	ldrb	r3, [r3, #0]
 8002b32:	2b00      	cmp	r3, #0
 8002b34:	bf14      	ite	ne
 8002b36:	2301      	movne	r3, #1
 8002b38:	2300      	moveq	r3, #0
 8002b3a:	b2db      	uxtb	r3, r3
 8002b3c:	f083 0301 	eor.w	r3, r3, #1
 8002b40:	b2db      	uxtb	r3, r3
 8002b42:	f003 0301 	and.w	r3, r3, #1
 8002b46:	b2da      	uxtb	r2, r3
 8002b48:	4b9c      	ldr	r3, [pc, #624]	@ (8002dbc <Screen_Update+0x2fc>)
 8002b4a:	701a      	strb	r2, [r3, #0]
        lastCursorToggle = now;
 8002b4c:	4a9c      	ldr	r2, [pc, #624]	@ (8002dc0 <Screen_Update+0x300>)
 8002b4e:	f8d7 3168 	ldr.w	r3, [r7, #360]	@ 0x168
 8002b52:	6013      	str	r3, [r2, #0]
        screenNeedsRefresh = true;
 8002b54:	4b9b      	ldr	r3, [pc, #620]	@ (8002dc4 <Screen_Update+0x304>)
 8002b56:	2201      	movs	r2, #1
 8002b58:	701a      	strb	r2, [r3, #0]
    }

    /* Welcome timeout */
    if (ui == UI_WELCOME && now - lastLcdUpdateTime >= WELCOME_MS) {
 8002b5a:	4b96      	ldr	r3, [pc, #600]	@ (8002db4 <Screen_Update+0x2f4>)
 8002b5c:	781b      	ldrb	r3, [r3, #0]
 8002b5e:	2b00      	cmp	r3, #0
 8002b60:	d112      	bne.n	8002b88 <Screen_Update+0xc8>
 8002b62:	4b99      	ldr	r3, [pc, #612]	@ (8002dc8 <Screen_Update+0x308>)
 8002b64:	681b      	ldr	r3, [r3, #0]
 8002b66:	f8d7 2168 	ldr.w	r2, [r7, #360]	@ 0x168
 8002b6a:	1ad3      	subs	r3, r2, r3
 8002b6c:	f640 32b8 	movw	r2, #3000	@ 0xbb8
 8002b70:	4293      	cmp	r3, r2
 8002b72:	d309      	bcc.n	8002b88 <Screen_Update+0xc8>
        ui = UI_DASH;
 8002b74:	4b8f      	ldr	r3, [pc, #572]	@ (8002db4 <Screen_Update+0x2f4>)
 8002b76:	2201      	movs	r2, #1
 8002b78:	701a      	strb	r2, [r3, #0]
        lastLcdUpdateTime = now;
 8002b7a:	4a93      	ldr	r2, [pc, #588]	@ (8002dc8 <Screen_Update+0x308>)
 8002b7c:	f8d7 3168 	ldr.w	r3, [r7, #360]	@ 0x168
 8002b80:	6013      	str	r3, [r2, #0]
        screenNeedsRefresh = true;
 8002b82:	4b90      	ldr	r3, [pc, #576]	@ (8002dc4 <Screen_Update+0x304>)
 8002b84:	2201      	movs	r2, #1
 8002b86:	701a      	strb	r2, [r3, #0]
    }

    /* Optional auto-back to dashboard after inactivity in menus/edit screens */
    if (ui != UI_WELCOME && ui != UI_DASH && (now - lastUserAction >= AUTO_BACK_MS)) {
 8002b88:	4b8a      	ldr	r3, [pc, #552]	@ (8002db4 <Screen_Update+0x2f4>)
 8002b8a:	781b      	ldrb	r3, [r3, #0]
 8002b8c:	2b00      	cmp	r3, #0
 8002b8e:	d012      	beq.n	8002bb6 <Screen_Update+0xf6>
 8002b90:	4b88      	ldr	r3, [pc, #544]	@ (8002db4 <Screen_Update+0x2f4>)
 8002b92:	781b      	ldrb	r3, [r3, #0]
 8002b94:	2b01      	cmp	r3, #1
 8002b96:	d00e      	beq.n	8002bb6 <Screen_Update+0xf6>
 8002b98:	4b8c      	ldr	r3, [pc, #560]	@ (8002dcc <Screen_Update+0x30c>)
 8002b9a:	681b      	ldr	r3, [r3, #0]
 8002b9c:	f8d7 2168 	ldr.w	r2, [r7, #360]	@ 0x168
 8002ba0:	1ad3      	subs	r3, r2, r3
 8002ba2:	f64e 2260 	movw	r2, #60000	@ 0xea60
 8002ba6:	4293      	cmp	r3, r2
 8002ba8:	d305      	bcc.n	8002bb6 <Screen_Update+0xf6>
        ui = UI_DASH;
 8002baa:	4b82      	ldr	r3, [pc, #520]	@ (8002db4 <Screen_Update+0x2f4>)
 8002bac:	2201      	movs	r2, #1
 8002bae:	701a      	strb	r2, [r3, #0]
        screenNeedsRefresh = true;
 8002bb0:	4b84      	ldr	r3, [pc, #528]	@ (8002dc4 <Screen_Update+0x304>)
 8002bb2:	2201      	movs	r2, #1
 8002bb4:	701a      	strb	r2, [r3, #0]
    }

    // Always refresh dashboard every 1s
    if (ui == UI_DASH && (now - lastLcdUpdateTime >= 1000)) {
 8002bb6:	4b7f      	ldr	r3, [pc, #508]	@ (8002db4 <Screen_Update+0x2f4>)
 8002bb8:	781b      	ldrb	r3, [r3, #0]
 8002bba:	2b01      	cmp	r3, #1
 8002bbc:	d10e      	bne.n	8002bdc <Screen_Update+0x11c>
 8002bbe:	4b82      	ldr	r3, [pc, #520]	@ (8002dc8 <Screen_Update+0x308>)
 8002bc0:	681b      	ldr	r3, [r3, #0]
 8002bc2:	f8d7 2168 	ldr.w	r2, [r7, #360]	@ 0x168
 8002bc6:	1ad3      	subs	r3, r2, r3
 8002bc8:	f5b3 7f7a 	cmp.w	r3, #1000	@ 0x3e8
 8002bcc:	d306      	bcc.n	8002bdc <Screen_Update+0x11c>
        screenNeedsRefresh = true;
 8002bce:	4b7d      	ldr	r3, [pc, #500]	@ (8002dc4 <Screen_Update+0x304>)
 8002bd0:	2201      	movs	r2, #1
 8002bd2:	701a      	strb	r2, [r3, #0]
        lastLcdUpdateTime = now;
 8002bd4:	4a7c      	ldr	r2, [pc, #496]	@ (8002dc8 <Screen_Update+0x308>)
 8002bd6:	f8d7 3168 	ldr.w	r3, [r7, #360]	@ 0x168
 8002bda:	6013      	str	r3, [r2, #0]
    }

    if (screenNeedsRefresh || ui != last_ui) {
 8002bdc:	4b79      	ldr	r3, [pc, #484]	@ (8002dc4 <Screen_Update+0x304>)
 8002bde:	781b      	ldrb	r3, [r3, #0]
 8002be0:	2b00      	cmp	r3, #0
 8002be2:	d106      	bne.n	8002bf2 <Screen_Update+0x132>
 8002be4:	4b73      	ldr	r3, [pc, #460]	@ (8002db4 <Screen_Update+0x2f4>)
 8002be6:	781a      	ldrb	r2, [r3, #0]
 8002be8:	4b79      	ldr	r3, [pc, #484]	@ (8002dd0 <Screen_Update+0x310>)
 8002bea:	781b      	ldrb	r3, [r3, #0]
 8002bec:	429a      	cmp	r2, r3
 8002bee:	f000 8174 	beq.w	8002eda <Screen_Update+0x41a>
    	bool fullRedraw = (ui != last_ui);  // only clear if state changes
 8002bf2:	4b70      	ldr	r3, [pc, #448]	@ (8002db4 <Screen_Update+0x2f4>)
 8002bf4:	781a      	ldrb	r2, [r3, #0]
 8002bf6:	4b76      	ldr	r3, [pc, #472]	@ (8002dd0 <Screen_Update+0x310>)
 8002bf8:	781b      	ldrb	r3, [r3, #0]
 8002bfa:	429a      	cmp	r2, r3
 8002bfc:	bf14      	ite	ne
 8002bfe:	2301      	movne	r3, #1
 8002c00:	2300      	moveq	r3, #0
 8002c02:	f887 3167 	strb.w	r3, [r7, #359]	@ 0x167
        last_ui = ui;
 8002c06:	4b6b      	ldr	r3, [pc, #428]	@ (8002db4 <Screen_Update+0x2f4>)
 8002c08:	781a      	ldrb	r2, [r3, #0]
 8002c0a:	4b71      	ldr	r3, [pc, #452]	@ (8002dd0 <Screen_Update+0x310>)
 8002c0c:	701a      	strb	r2, [r3, #0]
        screenNeedsRefresh = false;
 8002c0e:	4b6d      	ldr	r3, [pc, #436]	@ (8002dc4 <Screen_Update+0x304>)
 8002c10:	2200      	movs	r2, #0
 8002c12:	701a      	strb	r2, [r3, #0]

        if (fullRedraw) {
 8002c14:	f897 3167 	ldrb.w	r3, [r7, #359]	@ 0x167
 8002c18:	2b00      	cmp	r3, #0
 8002c1a:	d001      	beq.n	8002c20 <Screen_Update+0x160>
               lcd_clear();   // clear only on state change
 8002c1c:	f7fe fa1b 	bl	8001056 <lcd_clear>
           }
        switch (ui) {
 8002c20:	4b64      	ldr	r3, [pc, #400]	@ (8002db4 <Screen_Update+0x2f4>)
 8002c22:	781b      	ldrb	r3, [r3, #0]
 8002c24:	2b11      	cmp	r3, #17
 8002c26:	f200 8151 	bhi.w	8002ecc <Screen_Update+0x40c>
 8002c2a:	a201      	add	r2, pc, #4	@ (adr r2, 8002c30 <Screen_Update+0x170>)
 8002c2c:	f852 f023 	ldr.w	pc, [r2, r3, lsl #2]
 8002c30:	08002c79 	.word	0x08002c79
 8002c34:	08002c7f 	.word	0x08002c7f
 8002c38:	08002c85 	.word	0x08002c85
 8002c3c:	08002c8b 	.word	0x08002c8b
 8002c40:	08002c91 	.word	0x08002c91
 8002c44:	08002c97 	.word	0x08002c97
 8002c48:	08002caf 	.word	0x08002caf
 8002c4c:	08002ce3 	.word	0x08002ce3
 8002c50:	08002d17 	.word	0x08002d17
 8002c54:	08002d4b 	.word	0x08002d4b
 8002c58:	08002c9d 	.word	0x08002c9d
 8002c5c:	08002d7f 	.word	0x08002d7f
 8002c60:	08002e01 	.word	0x08002e01
 8002c64:	08002ca3 	.word	0x08002ca3
 8002c68:	08002e35 	.word	0x08002e35
 8002c6c:	08002ca9 	.word	0x08002ca9
 8002c70:	08002e69 	.word	0x08002e69
 8002c74:	08002e9d 	.word	0x08002e9d
            case UI_WELCOME: show_welcome(); break;
 8002c78:	f7ff fcc2 	bl	8002600 <show_welcome>
 8002c7c:	e12d      	b.n	8002eda <Screen_Update+0x41a>
            case UI_DASH: show_dash(); break;
 8002c7e:	f7ff fccf 	bl	8002620 <show_dash>
 8002c82:	e12a      	b.n	8002eda <Screen_Update+0x41a>
            case UI_MENU: show_menu(); break;
 8002c84:	f7ff fd40 	bl	8002708 <show_menu>
 8002c88:	e127      	b.n	8002eda <Screen_Update+0x41a>
            case UI_MANUAL: show_manual(); break;
 8002c8a:	f7ff fd9b 	bl	80027c4 <show_manual>
 8002c8e:	e124      	b.n	8002eda <Screen_Update+0x41a>
            case UI_SEMI_AUTO: show_semi_auto(); break;
 8002c90:	f7ff fdc8 	bl	8002824 <show_semi_auto>
 8002c94:	e121      	b.n	8002eda <Screen_Update+0x41a>
            case UI_TIMER: show_timer(); break;
 8002c96:	f7ff fdf5 	bl	8002884 <show_timer>
 8002c9a:	e11e      	b.n	8002eda <Screen_Update+0x41a>
            case UI_SEARCH: show_search(); break;
 8002c9c:	f7ff fe28 	bl	80028f0 <show_search>
 8002ca0:	e11b      	b.n	8002eda <Screen_Update+0x41a>
            case UI_COUNTDOWN: show_countdown(); break;
 8002ca2:	f7ff fe51 	bl	8002948 <show_countdown>
 8002ca6:	e118      	b.n	8002eda <Screen_Update+0x41a>
            case UI_TWIST: show_twist(); break;
 8002ca8:	f7ff fe9c 	bl	80029e4 <show_twist>
 8002cac:	e115      	b.n	8002eda <Screen_Update+0x41a>

            /* Editing screens show a small edit UI permitting up/down to change value. */
            case UI_TIMER_EDIT_ON_H: {
                char l0[17], l1[17];
                snprintf(l0,sizeof(l0),"Edit ON Hour: %02d  ", edit_timer_on_h);
 8002cae:	4b49      	ldr	r3, [pc, #292]	@ (8002dd4 <Screen_Update+0x314>)
 8002cb0:	781b      	ldrb	r3, [r3, #0]
 8002cb2:	f507 70aa 	add.w	r0, r7, #340	@ 0x154
 8002cb6:	4a48      	ldr	r2, [pc, #288]	@ (8002dd8 <Screen_Update+0x318>)
 8002cb8:	2111      	movs	r1, #17
 8002cba:	f004 fe27 	bl	800790c <sniprintf>
                snprintf(l1,sizeof(l1),">Up +  Dn -  Sel OK");
 8002cbe:	f507 73a0 	add.w	r3, r7, #320	@ 0x140
 8002cc2:	4a46      	ldr	r2, [pc, #280]	@ (8002ddc <Screen_Update+0x31c>)
 8002cc4:	2111      	movs	r1, #17
 8002cc6:	4618      	mov	r0, r3
 8002cc8:	f004 fe20 	bl	800790c <sniprintf>
                lcd_line0(l0);
 8002ccc:	f507 73aa 	add.w	r3, r7, #340	@ 0x154
 8002cd0:	4618      	mov	r0, r3
 8002cd2:	f7ff fc23 	bl	800251c <lcd_line0>
                lcd_line1(l1);
 8002cd6:	f507 73a0 	add.w	r3, r7, #320	@ 0x140
 8002cda:	4618      	mov	r0, r3
 8002cdc:	f7ff fc2a 	bl	8002534 <lcd_line1>
                break;
 8002ce0:	e0fb      	b.n	8002eda <Screen_Update+0x41a>
            }
            case UI_TIMER_EDIT_ON_M: {
                char l0[17], l1[17];
                snprintf(l0,sizeof(l0),"Edit ON Min: %02d  ", edit_timer_on_m);
 8002ce2:	4b3f      	ldr	r3, [pc, #252]	@ (8002de0 <Screen_Update+0x320>)
 8002ce4:	781b      	ldrb	r3, [r3, #0]
 8002ce6:	f507 7096 	add.w	r0, r7, #300	@ 0x12c
 8002cea:	4a3e      	ldr	r2, [pc, #248]	@ (8002de4 <Screen_Update+0x324>)
 8002cec:	2111      	movs	r1, #17
 8002cee:	f004 fe0d 	bl	800790c <sniprintf>
                snprintf(l1,sizeof(l1),">Up +  Dn -  Sel OK");
 8002cf2:	f507 738c 	add.w	r3, r7, #280	@ 0x118
 8002cf6:	4a39      	ldr	r2, [pc, #228]	@ (8002ddc <Screen_Update+0x31c>)
 8002cf8:	2111      	movs	r1, #17
 8002cfa:	4618      	mov	r0, r3
 8002cfc:	f004 fe06 	bl	800790c <sniprintf>
                lcd_line0(l0);
 8002d00:	f507 7396 	add.w	r3, r7, #300	@ 0x12c
 8002d04:	4618      	mov	r0, r3
 8002d06:	f7ff fc09 	bl	800251c <lcd_line0>
                lcd_line1(l1);
 8002d0a:	f507 738c 	add.w	r3, r7, #280	@ 0x118
 8002d0e:	4618      	mov	r0, r3
 8002d10:	f7ff fc10 	bl	8002534 <lcd_line1>
                break;
 8002d14:	e0e1      	b.n	8002eda <Screen_Update+0x41a>
            }
            case UI_TIMER_EDIT_OFF_H: {
                char l0[17], l1[17];
                snprintf(l0,sizeof(l0),"Edit OFF Hr: %02d  ", edit_timer_off_h);
 8002d16:	4b34      	ldr	r3, [pc, #208]	@ (8002de8 <Screen_Update+0x328>)
 8002d18:	781b      	ldrb	r3, [r3, #0]
 8002d1a:	f507 7082 	add.w	r0, r7, #260	@ 0x104
 8002d1e:	4a33      	ldr	r2, [pc, #204]	@ (8002dec <Screen_Update+0x32c>)
 8002d20:	2111      	movs	r1, #17
 8002d22:	f004 fdf3 	bl	800790c <sniprintf>
                snprintf(l1,sizeof(l1),">Up +  Dn -  Sel OK");
 8002d26:	f107 03f0 	add.w	r3, r7, #240	@ 0xf0
 8002d2a:	4a2c      	ldr	r2, [pc, #176]	@ (8002ddc <Screen_Update+0x31c>)
 8002d2c:	2111      	movs	r1, #17
 8002d2e:	4618      	mov	r0, r3
 8002d30:	f004 fdec 	bl	800790c <sniprintf>
                lcd_line0(l0);
 8002d34:	f507 7382 	add.w	r3, r7, #260	@ 0x104
 8002d38:	4618      	mov	r0, r3
 8002d3a:	f7ff fbef 	bl	800251c <lcd_line0>
                lcd_line1(l1);
 8002d3e:	f107 03f0 	add.w	r3, r7, #240	@ 0xf0
 8002d42:	4618      	mov	r0, r3
 8002d44:	f7ff fbf6 	bl	8002534 <lcd_line1>
                break;
 8002d48:	e0c7      	b.n	8002eda <Screen_Update+0x41a>
            }
            case UI_TIMER_EDIT_OFF_M: {
                char l0[17], l1[17];
                snprintf(l0,sizeof(l0),"Edit OFF Mn: %02d  ", edit_timer_off_m);
 8002d4a:	4b29      	ldr	r3, [pc, #164]	@ (8002df0 <Screen_Update+0x330>)
 8002d4c:	781b      	ldrb	r3, [r3, #0]
 8002d4e:	f107 00dc 	add.w	r0, r7, #220	@ 0xdc
 8002d52:	4a28      	ldr	r2, [pc, #160]	@ (8002df4 <Screen_Update+0x334>)
 8002d54:	2111      	movs	r1, #17
 8002d56:	f004 fdd9 	bl	800790c <sniprintf>
                snprintf(l1,sizeof(l1),">Up +  Dn -  Sel OK");
 8002d5a:	f107 03c8 	add.w	r3, r7, #200	@ 0xc8
 8002d5e:	4a1f      	ldr	r2, [pc, #124]	@ (8002ddc <Screen_Update+0x31c>)
 8002d60:	2111      	movs	r1, #17
 8002d62:	4618      	mov	r0, r3
 8002d64:	f004 fdd2 	bl	800790c <sniprintf>
                lcd_line0(l0);
 8002d68:	f107 03dc 	add.w	r3, r7, #220	@ 0xdc
 8002d6c:	4618      	mov	r0, r3
 8002d6e:	f7ff fbd5 	bl	800251c <lcd_line0>
                lcd_line1(l1);
 8002d72:	f107 03c8 	add.w	r3, r7, #200	@ 0xc8
 8002d76:	4618      	mov	r0, r3
 8002d78:	f7ff fbdc 	bl	8002534 <lcd_line1>
                break;
 8002d7c:	e0ad      	b.n	8002eda <Screen_Update+0x41a>
            }
            case UI_SEARCH_EDIT_GAP: {
                char l0[17], l1[17];
                snprintf(l0,sizeof(l0),"Edit Gap: %3ds  ", edit_search_gap_s);
 8002d7e:	4b1e      	ldr	r3, [pc, #120]	@ (8002df8 <Screen_Update+0x338>)
 8002d80:	881b      	ldrh	r3, [r3, #0]
 8002d82:	f107 00b4 	add.w	r0, r7, #180	@ 0xb4
 8002d86:	4a1d      	ldr	r2, [pc, #116]	@ (8002dfc <Screen_Update+0x33c>)
 8002d88:	2111      	movs	r1, #17
 8002d8a:	f004 fdbf 	bl	800790c <sniprintf>
                snprintf(l1,sizeof(l1),">Up +  Dn -  Sel OK");
 8002d8e:	f107 03a0 	add.w	r3, r7, #160	@ 0xa0
 8002d92:	4a12      	ldr	r2, [pc, #72]	@ (8002ddc <Screen_Update+0x31c>)
 8002d94:	2111      	movs	r1, #17
 8002d96:	4618      	mov	r0, r3
 8002d98:	f004 fdb8 	bl	800790c <sniprintf>
                lcd_line0(l0);
 8002d9c:	f107 03b4 	add.w	r3, r7, #180	@ 0xb4
 8002da0:	4618      	mov	r0, r3
 8002da2:	f7ff fbbb 	bl	800251c <lcd_line0>
                lcd_line1(l1);
 8002da6:	f107 03a0 	add.w	r3, r7, #160	@ 0xa0
 8002daa:	4618      	mov	r0, r3
 8002dac:	f7ff fbc2 	bl	8002534 <lcd_line1>
                break;
 8002db0:	e093      	b.n	8002eda <Screen_Update+0x41a>
 8002db2:	bf00      	nop
 8002db4:	200003dc 	.word	0x200003dc
 8002db8:	00035bc4 	.word	0x00035bc4
 8002dbc:	20000035 	.word	0x20000035
 8002dc0:	200003e0 	.word	0x200003e0
 8002dc4:	200003dd 	.word	0x200003dd
 8002dc8:	200003d8 	.word	0x200003d8
 8002dcc:	200003e4 	.word	0x200003e4
 8002dd0:	20000034 	.word	0x20000034
 8002dd4:	20000054 	.word	0x20000054
 8002dd8:	080086a0 	.word	0x080086a0
 8002ddc:	080086b8 	.word	0x080086b8
 8002de0:	20000055 	.word	0x20000055
 8002de4:	080086cc 	.word	0x080086cc
 8002de8:	20000056 	.word	0x20000056
 8002dec:	080086e0 	.word	0x080086e0
 8002df0:	20000057 	.word	0x20000057
 8002df4:	080086f4 	.word	0x080086f4
 8002df8:	20000058 	.word	0x20000058
 8002dfc:	08008708 	.word	0x08008708
            }
            case UI_SEARCH_EDIT_DRY: {
                char l0[17], l1[17];
                snprintf(l0,sizeof(l0),"Edit Dry: %3ds  ", edit_search_dry_s);
 8002e00:	4b38      	ldr	r3, [pc, #224]	@ (8002ee4 <Screen_Update+0x424>)
 8002e02:	881b      	ldrh	r3, [r3, #0]
 8002e04:	f107 008c 	add.w	r0, r7, #140	@ 0x8c
 8002e08:	4a37      	ldr	r2, [pc, #220]	@ (8002ee8 <Screen_Update+0x428>)
 8002e0a:	2111      	movs	r1, #17
 8002e0c:	f004 fd7e 	bl	800790c <sniprintf>
                snprintf(l1,sizeof(l1),">Up +  Dn -  Sel OK");
 8002e10:	f107 0378 	add.w	r3, r7, #120	@ 0x78
 8002e14:	4a35      	ldr	r2, [pc, #212]	@ (8002eec <Screen_Update+0x42c>)
 8002e16:	2111      	movs	r1, #17
 8002e18:	4618      	mov	r0, r3
 8002e1a:	f004 fd77 	bl	800790c <sniprintf>
                lcd_line0(l0);
 8002e1e:	f107 038c 	add.w	r3, r7, #140	@ 0x8c
 8002e22:	4618      	mov	r0, r3
 8002e24:	f7ff fb7a 	bl	800251c <lcd_line0>
                lcd_line1(l1);
 8002e28:	f107 0378 	add.w	r3, r7, #120	@ 0x78
 8002e2c:	4618      	mov	r0, r3
 8002e2e:	f7ff fb81 	bl	8002534 <lcd_line1>
                break;
 8002e32:	e052      	b.n	8002eda <Screen_Update+0x41a>
            }
            case UI_COUNTDOWN_EDIT_MIN: {
                char l0[17], l1[17];
                snprintf(l0,sizeof(l0),"Set Min: %3d    ", edit_countdown_min);
 8002e34:	4b2e      	ldr	r3, [pc, #184]	@ (8002ef0 <Screen_Update+0x430>)
 8002e36:	881b      	ldrh	r3, [r3, #0]
 8002e38:	f107 0064 	add.w	r0, r7, #100	@ 0x64
 8002e3c:	4a2d      	ldr	r2, [pc, #180]	@ (8002ef4 <Screen_Update+0x434>)
 8002e3e:	2111      	movs	r1, #17
 8002e40:	f004 fd64 	bl	800790c <sniprintf>
                snprintf(l1,sizeof(l1),">Up +  Dn -  Sel Start");
 8002e44:	f107 0350 	add.w	r3, r7, #80	@ 0x50
 8002e48:	4a2b      	ldr	r2, [pc, #172]	@ (8002ef8 <Screen_Update+0x438>)
 8002e4a:	2111      	movs	r1, #17
 8002e4c:	4618      	mov	r0, r3
 8002e4e:	f004 fd5d 	bl	800790c <sniprintf>
                lcd_line0(l0);
 8002e52:	f107 0364 	add.w	r3, r7, #100	@ 0x64
 8002e56:	4618      	mov	r0, r3
 8002e58:	f7ff fb60 	bl	800251c <lcd_line0>
                lcd_line1(l1);
 8002e5c:	f107 0350 	add.w	r3, r7, #80	@ 0x50
 8002e60:	4618      	mov	r0, r3
 8002e62:	f7ff fb67 	bl	8002534 <lcd_line1>
                break;
 8002e66:	e038      	b.n	8002eda <Screen_Update+0x41a>
            }
            case UI_TWIST_EDIT_ON: {
                char l0[17], l1[17];
                snprintf(l0,sizeof(l0),"Edit T ON: %3ds  ", edit_twist_on_s);
 8002e68:	4b24      	ldr	r3, [pc, #144]	@ (8002efc <Screen_Update+0x43c>)
 8002e6a:	881b      	ldrh	r3, [r3, #0]
 8002e6c:	f107 003c 	add.w	r0, r7, #60	@ 0x3c
 8002e70:	4a23      	ldr	r2, [pc, #140]	@ (8002f00 <Screen_Update+0x440>)
 8002e72:	2111      	movs	r1, #17
 8002e74:	f004 fd4a 	bl	800790c <sniprintf>
                snprintf(l1,sizeof(l1),">Up +  Dn -  Sel OK");
 8002e78:	f107 0328 	add.w	r3, r7, #40	@ 0x28
 8002e7c:	4a1b      	ldr	r2, [pc, #108]	@ (8002eec <Screen_Update+0x42c>)
 8002e7e:	2111      	movs	r1, #17
 8002e80:	4618      	mov	r0, r3
 8002e82:	f004 fd43 	bl	800790c <sniprintf>
                lcd_line0(l0);
 8002e86:	f107 033c 	add.w	r3, r7, #60	@ 0x3c
 8002e8a:	4618      	mov	r0, r3
 8002e8c:	f7ff fb46 	bl	800251c <lcd_line0>
                lcd_line1(l1);
 8002e90:	f107 0328 	add.w	r3, r7, #40	@ 0x28
 8002e94:	4618      	mov	r0, r3
 8002e96:	f7ff fb4d 	bl	8002534 <lcd_line1>
                break;
 8002e9a:	e01e      	b.n	8002eda <Screen_Update+0x41a>
            }
            case UI_TWIST_EDIT_OFF: {
                char l0[17], l1[17];
                snprintf(l0,sizeof(l0),"Edit T OFF: %3ds ", edit_twist_off_s);
 8002e9c:	4b19      	ldr	r3, [pc, #100]	@ (8002f04 <Screen_Update+0x444>)
 8002e9e:	881b      	ldrh	r3, [r3, #0]
 8002ea0:	f107 0014 	add.w	r0, r7, #20
 8002ea4:	4a18      	ldr	r2, [pc, #96]	@ (8002f08 <Screen_Update+0x448>)
 8002ea6:	2111      	movs	r1, #17
 8002ea8:	f004 fd30 	bl	800790c <sniprintf>
                snprintf(l1,sizeof(l1),">Up +  Dn -  Sel OK");
 8002eac:	463b      	mov	r3, r7
 8002eae:	4a0f      	ldr	r2, [pc, #60]	@ (8002eec <Screen_Update+0x42c>)
 8002eb0:	2111      	movs	r1, #17
 8002eb2:	4618      	mov	r0, r3
 8002eb4:	f004 fd2a 	bl	800790c <sniprintf>
                lcd_line0(l0);
 8002eb8:	f107 0314 	add.w	r3, r7, #20
 8002ebc:	4618      	mov	r0, r3
 8002ebe:	f7ff fb2d 	bl	800251c <lcd_line0>
                lcd_line1(l1);
 8002ec2:	463b      	mov	r3, r7
 8002ec4:	4618      	mov	r0, r3
 8002ec6:	f7ff fb35 	bl	8002534 <lcd_line1>
                break;
 8002eca:	e006      	b.n	8002eda <Screen_Update+0x41a>
            }
            default:
                lcd_line0("Not Implemented   ");
 8002ecc:	480f      	ldr	r0, [pc, #60]	@ (8002f0c <Screen_Update+0x44c>)
 8002ece:	f7ff fb25 	bl	800251c <lcd_line0>
                lcd_line1("                  ");
 8002ed2:	480f      	ldr	r0, [pc, #60]	@ (8002f10 <Screen_Update+0x450>)
 8002ed4:	f7ff fb2e 	bl	8002534 <lcd_line1>
                break;
 8002ed8:	bf00      	nop
        }
    }
}
 8002eda:	bf00      	nop
 8002edc:	f507 77b8 	add.w	r7, r7, #368	@ 0x170
 8002ee0:	46bd      	mov	sp, r7
 8002ee2:	bd80      	pop	{r7, pc}
 8002ee4:	2000005a 	.word	0x2000005a
 8002ee8:	0800871c 	.word	0x0800871c
 8002eec:	080086b8 	.word	0x080086b8
 8002ef0:	20000060 	.word	0x20000060
 8002ef4:	08008730 	.word	0x08008730
 8002ef8:	08008744 	.word	0x08008744
 8002efc:	2000005c 	.word	0x2000005c
 8002f00:	0800875c 	.word	0x0800875c
 8002f04:	2000005e 	.word	0x2000005e
 8002f08:	08008770 	.word	0x08008770
 8002f0c:	08008784 	.word	0x08008784
 8002f10:	08008798 	.word	0x08008798

08002f14 <Screen_Init>:

/* ===== Initialization / Reset ===== */

void Screen_Init(void){
 8002f14:	b580      	push	{r7, lr}
 8002f16:	af00      	add	r7, sp, #0
    lcd_init();
 8002f18:	f7fe f8e1 	bl	80010de <lcd_init>
    ui = UI_WELCOME;
 8002f1c:	4b17      	ldr	r3, [pc, #92]	@ (8002f7c <Screen_Init+0x68>)
 8002f1e:	2200      	movs	r2, #0
 8002f20:	701a      	strb	r2, [r3, #0]
    last_ui = UI_MAX_;
 8002f22:	4b17      	ldr	r3, [pc, #92]	@ (8002f80 <Screen_Init+0x6c>)
 8002f24:	2212      	movs	r2, #18
 8002f26:	701a      	strb	r2, [r3, #0]
    screenNeedsRefresh = true;
 8002f28:	4b16      	ldr	r3, [pc, #88]	@ (8002f84 <Screen_Init+0x70>)
 8002f2a:	2201      	movs	r2, #1
 8002f2c:	701a      	strb	r2, [r3, #0]
    lastLcdUpdateTime = HAL_GetTick();
 8002f2e:	f000 fedf 	bl	8003cf0 <HAL_GetTick>
 8002f32:	4603      	mov	r3, r0
 8002f34:	4a14      	ldr	r2, [pc, #80]	@ (8002f88 <Screen_Init+0x74>)
 8002f36:	6013      	str	r3, [r2, #0]
    refreshInactivityTimer();
 8002f38:	f7ff fb08 	bl	800254c <refreshInactivityTimer>

    // initialize edits from actual settings
    edit_search_gap_s = searchSettings.testingGapSeconds;
 8002f3c:	4b13      	ldr	r3, [pc, #76]	@ (8002f8c <Screen_Init+0x78>)
 8002f3e:	685b      	ldr	r3, [r3, #4]
 8002f40:	b29a      	uxth	r2, r3
 8002f42:	4b13      	ldr	r3, [pc, #76]	@ (8002f90 <Screen_Init+0x7c>)
 8002f44:	801a      	strh	r2, [r3, #0]
    edit_search_dry_s = searchSettings.dryRunTimeSeconds;
 8002f46:	4b11      	ldr	r3, [pc, #68]	@ (8002f8c <Screen_Init+0x78>)
 8002f48:	689b      	ldr	r3, [r3, #8]
 8002f4a:	b29a      	uxth	r2, r3
 8002f4c:	4b11      	ldr	r3, [pc, #68]	@ (8002f94 <Screen_Init+0x80>)
 8002f4e:	801a      	strh	r2, [r3, #0]
    edit_twist_on_s = twistSettings.onDurationSeconds;
 8002f50:	4b11      	ldr	r3, [pc, #68]	@ (8002f98 <Screen_Init+0x84>)
 8002f52:	685b      	ldr	r3, [r3, #4]
 8002f54:	b29a      	uxth	r2, r3
 8002f56:	4b11      	ldr	r3, [pc, #68]	@ (8002f9c <Screen_Init+0x88>)
 8002f58:	801a      	strh	r2, [r3, #0]
    edit_twist_off_s = twistSettings.offDurationSeconds;
 8002f5a:	4b0f      	ldr	r3, [pc, #60]	@ (8002f98 <Screen_Init+0x84>)
 8002f5c:	689b      	ldr	r3, [r3, #8]
 8002f5e:	b29a      	uxth	r2, r3
 8002f60:	4b0f      	ldr	r3, [pc, #60]	@ (8002fa0 <Screen_Init+0x8c>)
 8002f62:	801a      	strh	r2, [r3, #0]
    // countdown: convert seconds to minutes if possible
    edit_countdown_min = (uint16_t)(countdownDuration / 60u);
 8002f64:	4b0f      	ldr	r3, [pc, #60]	@ (8002fa4 <Screen_Init+0x90>)
 8002f66:	681b      	ldr	r3, [r3, #0]
 8002f68:	4a0f      	ldr	r2, [pc, #60]	@ (8002fa8 <Screen_Init+0x94>)
 8002f6a:	fba2 2303 	umull	r2, r3, r2, r3
 8002f6e:	095b      	lsrs	r3, r3, #5
 8002f70:	b29a      	uxth	r2, r3
 8002f72:	4b0e      	ldr	r3, [pc, #56]	@ (8002fac <Screen_Init+0x98>)
 8002f74:	801a      	strh	r2, [r3, #0]
}
 8002f76:	bf00      	nop
 8002f78:	bd80      	pop	{r7, pc}
 8002f7a:	bf00      	nop
 8002f7c:	200003dc 	.word	0x200003dc
 8002f80:	20000034 	.word	0x20000034
 8002f84:	200003dd 	.word	0x200003dd
 8002f88:	200003d8 	.word	0x200003d8
 8002f8c:	2000001c 	.word	0x2000001c
 8002f90:	20000058 	.word	0x20000058
 8002f94:	2000005a 	.word	0x2000005a
 8002f98:	20000028 	.word	0x20000028
 8002f9c:	2000005c 	.word	0x2000005c
 8002fa0:	2000005e 	.word	0x2000005e
 8002fa4:	2000035c 	.word	0x2000035c
 8002fa8:	88888889 	.word	0x88888889
 8002fac:	20000060 	.word	0x20000060

08002fb0 <menu_move_up>:
    refreshInactivityTimer();
}

/* ===== Button actions ===== */

static void menu_move_up(void){
 8002fb0:	b580      	push	{r7, lr}
 8002fb2:	af00      	add	r7, sp, #0
    if (ui == UI_MENU) {
 8002fb4:	4b62      	ldr	r3, [pc, #392]	@ (8003140 <menu_move_up+0x190>)
 8002fb6:	781b      	ldrb	r3, [r3, #0]
 8002fb8:	2b02      	cmp	r3, #2
 8002fba:	d116      	bne.n	8002fea <menu_move_up+0x3a>
        if (menu_idx > 0) menu_idx--;
 8002fbc:	4b61      	ldr	r3, [pc, #388]	@ (8003144 <menu_move_up+0x194>)
 8002fbe:	681b      	ldr	r3, [r3, #0]
 8002fc0:	2b00      	cmp	r3, #0
 8002fc2:	dd04      	ble.n	8002fce <menu_move_up+0x1e>
 8002fc4:	4b5f      	ldr	r3, [pc, #380]	@ (8003144 <menu_move_up+0x194>)
 8002fc6:	681b      	ldr	r3, [r3, #0]
 8002fc8:	3b01      	subs	r3, #1
 8002fca:	4a5e      	ldr	r2, [pc, #376]	@ (8003144 <menu_move_up+0x194>)
 8002fcc:	6013      	str	r3, [r2, #0]
        // adjust view top
        if (menu_idx < menu_view_top) menu_view_top = menu_idx;
 8002fce:	4b5d      	ldr	r3, [pc, #372]	@ (8003144 <menu_move_up+0x194>)
 8002fd0:	681a      	ldr	r2, [r3, #0]
 8002fd2:	4b5d      	ldr	r3, [pc, #372]	@ (8003148 <menu_move_up+0x198>)
 8002fd4:	681b      	ldr	r3, [r3, #0]
 8002fd6:	429a      	cmp	r2, r3
 8002fd8:	da03      	bge.n	8002fe2 <menu_move_up+0x32>
 8002fda:	4b5a      	ldr	r3, [pc, #360]	@ (8003144 <menu_move_up+0x194>)
 8002fdc:	681b      	ldr	r3, [r3, #0]
 8002fde:	4a5a      	ldr	r2, [pc, #360]	@ (8003148 <menu_move_up+0x198>)
 8002fe0:	6013      	str	r3, [r2, #0]
        screenNeedsRefresh = true;
 8002fe2:	4b5a      	ldr	r3, [pc, #360]	@ (800314c <menu_move_up+0x19c>)
 8002fe4:	2201      	movs	r2, #1
 8002fe6:	701a      	strb	r2, [r3, #0]
 8002fe8:	e0a5      	b.n	8003136 <menu_move_up+0x186>
    } else if (ui == UI_MANUAL) {
 8002fea:	4b55      	ldr	r3, [pc, #340]	@ (8003140 <menu_move_up+0x190>)
 8002fec:	781b      	ldrb	r3, [r3, #0]
 8002fee:	2b03      	cmp	r3, #3
 8002ff0:	f000 80a1 	beq.w	8003136 <menu_move_up+0x186>
        // Manual: UP/DOWN unused (you could implement speed or similar)
    } else {
        // in edit screens: increment value
        switch (ui){
 8002ff4:	4b52      	ldr	r3, [pc, #328]	@ (8003140 <menu_move_up+0x190>)
 8002ff6:	781b      	ldrb	r3, [r3, #0]
 8002ff8:	3b06      	subs	r3, #6
 8002ffa:	2b0b      	cmp	r3, #11
 8002ffc:	f200 8085 	bhi.w	800310a <menu_move_up+0x15a>
 8003000:	a201      	add	r2, pc, #4	@ (adr r2, 8003008 <menu_move_up+0x58>)
 8003002:	f852 f023 	ldr.w	pc, [r2, r3, lsl #2]
 8003006:	bf00      	nop
 8003008:	08003039 	.word	0x08003039
 800300c:	0800304f 	.word	0x0800304f
 8003010:	08003065 	.word	0x08003065
 8003014:	0800307b 	.word	0x0800307b
 8003018:	0800310b 	.word	0x0800310b
 800301c:	08003091 	.word	0x08003091
 8003020:	080030a9 	.word	0x080030a9
 8003024:	0800310b 	.word	0x0800310b
 8003028:	080030c1 	.word	0x080030c1
 800302c:	0800310b 	.word	0x0800310b
 8003030:	080030db 	.word	0x080030db
 8003034:	080030f3 	.word	0x080030f3
            case UI_TIMER_EDIT_ON_H: if (edit_timer_on_h < 23) edit_timer_on_h++; break;
 8003038:	4b45      	ldr	r3, [pc, #276]	@ (8003150 <menu_move_up+0x1a0>)
 800303a:	781b      	ldrb	r3, [r3, #0]
 800303c:	2b16      	cmp	r3, #22
 800303e:	d866      	bhi.n	800310e <menu_move_up+0x15e>
 8003040:	4b43      	ldr	r3, [pc, #268]	@ (8003150 <menu_move_up+0x1a0>)
 8003042:	781b      	ldrb	r3, [r3, #0]
 8003044:	3301      	adds	r3, #1
 8003046:	b2da      	uxtb	r2, r3
 8003048:	4b41      	ldr	r3, [pc, #260]	@ (8003150 <menu_move_up+0x1a0>)
 800304a:	701a      	strb	r2, [r3, #0]
 800304c:	e05f      	b.n	800310e <menu_move_up+0x15e>
            case UI_TIMER_EDIT_ON_M: if (edit_timer_on_m < 59) edit_timer_on_m++; break;
 800304e:	4b41      	ldr	r3, [pc, #260]	@ (8003154 <menu_move_up+0x1a4>)
 8003050:	781b      	ldrb	r3, [r3, #0]
 8003052:	2b3a      	cmp	r3, #58	@ 0x3a
 8003054:	d85d      	bhi.n	8003112 <menu_move_up+0x162>
 8003056:	4b3f      	ldr	r3, [pc, #252]	@ (8003154 <menu_move_up+0x1a4>)
 8003058:	781b      	ldrb	r3, [r3, #0]
 800305a:	3301      	adds	r3, #1
 800305c:	b2da      	uxtb	r2, r3
 800305e:	4b3d      	ldr	r3, [pc, #244]	@ (8003154 <menu_move_up+0x1a4>)
 8003060:	701a      	strb	r2, [r3, #0]
 8003062:	e056      	b.n	8003112 <menu_move_up+0x162>
            case UI_TIMER_EDIT_OFF_H: if (edit_timer_off_h < 23) edit_timer_off_h++; break;
 8003064:	4b3c      	ldr	r3, [pc, #240]	@ (8003158 <menu_move_up+0x1a8>)
 8003066:	781b      	ldrb	r3, [r3, #0]
 8003068:	2b16      	cmp	r3, #22
 800306a:	d854      	bhi.n	8003116 <menu_move_up+0x166>
 800306c:	4b3a      	ldr	r3, [pc, #232]	@ (8003158 <menu_move_up+0x1a8>)
 800306e:	781b      	ldrb	r3, [r3, #0]
 8003070:	3301      	adds	r3, #1
 8003072:	b2da      	uxtb	r2, r3
 8003074:	4b38      	ldr	r3, [pc, #224]	@ (8003158 <menu_move_up+0x1a8>)
 8003076:	701a      	strb	r2, [r3, #0]
 8003078:	e04d      	b.n	8003116 <menu_move_up+0x166>
            case UI_TIMER_EDIT_OFF_M: if (edit_timer_off_m < 59) edit_timer_off_m++; break;
 800307a:	4b38      	ldr	r3, [pc, #224]	@ (800315c <menu_move_up+0x1ac>)
 800307c:	781b      	ldrb	r3, [r3, #0]
 800307e:	2b3a      	cmp	r3, #58	@ 0x3a
 8003080:	d84b      	bhi.n	800311a <menu_move_up+0x16a>
 8003082:	4b36      	ldr	r3, [pc, #216]	@ (800315c <menu_move_up+0x1ac>)
 8003084:	781b      	ldrb	r3, [r3, #0]
 8003086:	3301      	adds	r3, #1
 8003088:	b2da      	uxtb	r2, r3
 800308a:	4b34      	ldr	r3, [pc, #208]	@ (800315c <menu_move_up+0x1ac>)
 800308c:	701a      	strb	r2, [r3, #0]
 800308e:	e044      	b.n	800311a <menu_move_up+0x16a>
            case UI_SEARCH_EDIT_GAP: if (edit_search_gap_s < 3600) edit_search_gap_s += 1; break;
 8003090:	4b33      	ldr	r3, [pc, #204]	@ (8003160 <menu_move_up+0x1b0>)
 8003092:	881b      	ldrh	r3, [r3, #0]
 8003094:	f5b3 6f61 	cmp.w	r3, #3600	@ 0xe10
 8003098:	d241      	bcs.n	800311e <menu_move_up+0x16e>
 800309a:	4b31      	ldr	r3, [pc, #196]	@ (8003160 <menu_move_up+0x1b0>)
 800309c:	881b      	ldrh	r3, [r3, #0]
 800309e:	3301      	adds	r3, #1
 80030a0:	b29a      	uxth	r2, r3
 80030a2:	4b2f      	ldr	r3, [pc, #188]	@ (8003160 <menu_move_up+0x1b0>)
 80030a4:	801a      	strh	r2, [r3, #0]
 80030a6:	e03a      	b.n	800311e <menu_move_up+0x16e>
            case UI_SEARCH_EDIT_DRY: if (edit_search_dry_s < 3600) edit_search_dry_s += 1; break;
 80030a8:	4b2e      	ldr	r3, [pc, #184]	@ (8003164 <menu_move_up+0x1b4>)
 80030aa:	881b      	ldrh	r3, [r3, #0]
 80030ac:	f5b3 6f61 	cmp.w	r3, #3600	@ 0xe10
 80030b0:	d237      	bcs.n	8003122 <menu_move_up+0x172>
 80030b2:	4b2c      	ldr	r3, [pc, #176]	@ (8003164 <menu_move_up+0x1b4>)
 80030b4:	881b      	ldrh	r3, [r3, #0]
 80030b6:	3301      	adds	r3, #1
 80030b8:	b29a      	uxth	r2, r3
 80030ba:	4b2a      	ldr	r3, [pc, #168]	@ (8003164 <menu_move_up+0x1b4>)
 80030bc:	801a      	strh	r2, [r3, #0]
 80030be:	e030      	b.n	8003122 <menu_move_up+0x172>
            case UI_COUNTDOWN_EDIT_MIN: if (edit_countdown_min < 999) edit_countdown_min += 1; break;
 80030c0:	4b29      	ldr	r3, [pc, #164]	@ (8003168 <menu_move_up+0x1b8>)
 80030c2:	881b      	ldrh	r3, [r3, #0]
 80030c4:	f240 32e6 	movw	r2, #998	@ 0x3e6
 80030c8:	4293      	cmp	r3, r2
 80030ca:	d82c      	bhi.n	8003126 <menu_move_up+0x176>
 80030cc:	4b26      	ldr	r3, [pc, #152]	@ (8003168 <menu_move_up+0x1b8>)
 80030ce:	881b      	ldrh	r3, [r3, #0]
 80030d0:	3301      	adds	r3, #1
 80030d2:	b29a      	uxth	r2, r3
 80030d4:	4b24      	ldr	r3, [pc, #144]	@ (8003168 <menu_move_up+0x1b8>)
 80030d6:	801a      	strh	r2, [r3, #0]
 80030d8:	e025      	b.n	8003126 <menu_move_up+0x176>
            case UI_TWIST_EDIT_ON: if (edit_twist_on_s < 3600) edit_twist_on_s += 1; break;
 80030da:	4b24      	ldr	r3, [pc, #144]	@ (800316c <menu_move_up+0x1bc>)
 80030dc:	881b      	ldrh	r3, [r3, #0]
 80030de:	f5b3 6f61 	cmp.w	r3, #3600	@ 0xe10
 80030e2:	d222      	bcs.n	800312a <menu_move_up+0x17a>
 80030e4:	4b21      	ldr	r3, [pc, #132]	@ (800316c <menu_move_up+0x1bc>)
 80030e6:	881b      	ldrh	r3, [r3, #0]
 80030e8:	3301      	adds	r3, #1
 80030ea:	b29a      	uxth	r2, r3
 80030ec:	4b1f      	ldr	r3, [pc, #124]	@ (800316c <menu_move_up+0x1bc>)
 80030ee:	801a      	strh	r2, [r3, #0]
 80030f0:	e01b      	b.n	800312a <menu_move_up+0x17a>
            case UI_TWIST_EDIT_OFF: if (edit_twist_off_s < 3600) edit_twist_off_s += 1; break;
 80030f2:	4b1f      	ldr	r3, [pc, #124]	@ (8003170 <menu_move_up+0x1c0>)
 80030f4:	881b      	ldrh	r3, [r3, #0]
 80030f6:	f5b3 6f61 	cmp.w	r3, #3600	@ 0xe10
 80030fa:	d218      	bcs.n	800312e <menu_move_up+0x17e>
 80030fc:	4b1c      	ldr	r3, [pc, #112]	@ (8003170 <menu_move_up+0x1c0>)
 80030fe:	881b      	ldrh	r3, [r3, #0]
 8003100:	3301      	adds	r3, #1
 8003102:	b29a      	uxth	r2, r3
 8003104:	4b1a      	ldr	r3, [pc, #104]	@ (8003170 <menu_move_up+0x1c0>)
 8003106:	801a      	strh	r2, [r3, #0]
 8003108:	e011      	b.n	800312e <menu_move_up+0x17e>
            default: break;
 800310a:	bf00      	nop
 800310c:	e010      	b.n	8003130 <menu_move_up+0x180>
            case UI_TIMER_EDIT_ON_H: if (edit_timer_on_h < 23) edit_timer_on_h++; break;
 800310e:	bf00      	nop
 8003110:	e00e      	b.n	8003130 <menu_move_up+0x180>
            case UI_TIMER_EDIT_ON_M: if (edit_timer_on_m < 59) edit_timer_on_m++; break;
 8003112:	bf00      	nop
 8003114:	e00c      	b.n	8003130 <menu_move_up+0x180>
            case UI_TIMER_EDIT_OFF_H: if (edit_timer_off_h < 23) edit_timer_off_h++; break;
 8003116:	bf00      	nop
 8003118:	e00a      	b.n	8003130 <menu_move_up+0x180>
            case UI_TIMER_EDIT_OFF_M: if (edit_timer_off_m < 59) edit_timer_off_m++; break;
 800311a:	bf00      	nop
 800311c:	e008      	b.n	8003130 <menu_move_up+0x180>
            case UI_SEARCH_EDIT_GAP: if (edit_search_gap_s < 3600) edit_search_gap_s += 1; break;
 800311e:	bf00      	nop
 8003120:	e006      	b.n	8003130 <menu_move_up+0x180>
            case UI_SEARCH_EDIT_DRY: if (edit_search_dry_s < 3600) edit_search_dry_s += 1; break;
 8003122:	bf00      	nop
 8003124:	e004      	b.n	8003130 <menu_move_up+0x180>
            case UI_COUNTDOWN_EDIT_MIN: if (edit_countdown_min < 999) edit_countdown_min += 1; break;
 8003126:	bf00      	nop
 8003128:	e002      	b.n	8003130 <menu_move_up+0x180>
            case UI_TWIST_EDIT_ON: if (edit_twist_on_s < 3600) edit_twist_on_s += 1; break;
 800312a:	bf00      	nop
 800312c:	e000      	b.n	8003130 <menu_move_up+0x180>
            case UI_TWIST_EDIT_OFF: if (edit_twist_off_s < 3600) edit_twist_off_s += 1; break;
 800312e:	bf00      	nop
        }
        screenNeedsRefresh = true;
 8003130:	4b06      	ldr	r3, [pc, #24]	@ (800314c <menu_move_up+0x19c>)
 8003132:	2201      	movs	r2, #1
 8003134:	701a      	strb	r2, [r3, #0]
    }
    refreshInactivityTimer();
 8003136:	f7ff fa09 	bl	800254c <refreshInactivityTimer>
}
 800313a:	bf00      	nop
 800313c:	bd80      	pop	{r7, pc}
 800313e:	bf00      	nop
 8003140:	200003dc 	.word	0x200003dc
 8003144:	200003ec 	.word	0x200003ec
 8003148:	200003f0 	.word	0x200003f0
 800314c:	200003dd 	.word	0x200003dd
 8003150:	20000054 	.word	0x20000054
 8003154:	20000055 	.word	0x20000055
 8003158:	20000056 	.word	0x20000056
 800315c:	20000057 	.word	0x20000057
 8003160:	20000058 	.word	0x20000058
 8003164:	2000005a 	.word	0x2000005a
 8003168:	20000060 	.word	0x20000060
 800316c:	2000005c 	.word	0x2000005c
 8003170:	2000005e 	.word	0x2000005e

08003174 <menu_move_down>:

static void menu_move_down(void){
 8003174:	b580      	push	{r7, lr}
 8003176:	af00      	add	r7, sp, #0
    if (ui == UI_MENU) {
 8003178:	4b5d      	ldr	r3, [pc, #372]	@ (80032f0 <menu_move_down+0x17c>)
 800317a:	781b      	ldrb	r3, [r3, #0]
 800317c:	2b02      	cmp	r3, #2
 800317e:	d118      	bne.n	80031b2 <menu_move_down+0x3e>
        if (menu_idx < (MAIN_MENU_COUNT-1)) menu_idx++;
 8003180:	4b5c      	ldr	r3, [pc, #368]	@ (80032f4 <menu_move_down+0x180>)
 8003182:	681b      	ldr	r3, [r3, #0]
 8003184:	2b05      	cmp	r3, #5
 8003186:	d804      	bhi.n	8003192 <menu_move_down+0x1e>
 8003188:	4b5a      	ldr	r3, [pc, #360]	@ (80032f4 <menu_move_down+0x180>)
 800318a:	681b      	ldr	r3, [r3, #0]
 800318c:	3301      	adds	r3, #1
 800318e:	4a59      	ldr	r2, [pc, #356]	@ (80032f4 <menu_move_down+0x180>)
 8003190:	6013      	str	r3, [r2, #0]
        // adjust view top
        if (menu_idx > menu_view_top + 1) menu_view_top = menu_idx - 1;
 8003192:	4b59      	ldr	r3, [pc, #356]	@ (80032f8 <menu_move_down+0x184>)
 8003194:	681b      	ldr	r3, [r3, #0]
 8003196:	1c5a      	adds	r2, r3, #1
 8003198:	4b56      	ldr	r3, [pc, #344]	@ (80032f4 <menu_move_down+0x180>)
 800319a:	681b      	ldr	r3, [r3, #0]
 800319c:	429a      	cmp	r2, r3
 800319e:	da04      	bge.n	80031aa <menu_move_down+0x36>
 80031a0:	4b54      	ldr	r3, [pc, #336]	@ (80032f4 <menu_move_down+0x180>)
 80031a2:	681b      	ldr	r3, [r3, #0]
 80031a4:	3b01      	subs	r3, #1
 80031a6:	4a54      	ldr	r2, [pc, #336]	@ (80032f8 <menu_move_down+0x184>)
 80031a8:	6013      	str	r3, [r2, #0]
        screenNeedsRefresh = true;
 80031aa:	4b54      	ldr	r3, [pc, #336]	@ (80032fc <menu_move_down+0x188>)
 80031ac:	2201      	movs	r2, #1
 80031ae:	701a      	strb	r2, [r3, #0]
 80031b0:	e099      	b.n	80032e6 <menu_move_down+0x172>
    } else {
        // edit screens: decrement value
        switch (ui){
 80031b2:	4b4f      	ldr	r3, [pc, #316]	@ (80032f0 <menu_move_down+0x17c>)
 80031b4:	781b      	ldrb	r3, [r3, #0]
 80031b6:	3b06      	subs	r3, #6
 80031b8:	2b0b      	cmp	r3, #11
 80031ba:	d87e      	bhi.n	80032ba <menu_move_down+0x146>
 80031bc:	a201      	add	r2, pc, #4	@ (adr r2, 80031c4 <menu_move_down+0x50>)
 80031be:	f852 f023 	ldr.w	pc, [r2, r3, lsl #2]
 80031c2:	bf00      	nop
 80031c4:	080031f5 	.word	0x080031f5
 80031c8:	0800320b 	.word	0x0800320b
 80031cc:	08003221 	.word	0x08003221
 80031d0:	08003237 	.word	0x08003237
 80031d4:	080032bb 	.word	0x080032bb
 80031d8:	0800324d 	.word	0x0800324d
 80031dc:	08003263 	.word	0x08003263
 80031e0:	080032bb 	.word	0x080032bb
 80031e4:	08003279 	.word	0x08003279
 80031e8:	080032bb 	.word	0x080032bb
 80031ec:	0800328f 	.word	0x0800328f
 80031f0:	080032a5 	.word	0x080032a5
            case UI_TIMER_EDIT_ON_H: if (edit_timer_on_h > 0) edit_timer_on_h--; break;
 80031f4:	4b42      	ldr	r3, [pc, #264]	@ (8003300 <menu_move_down+0x18c>)
 80031f6:	781b      	ldrb	r3, [r3, #0]
 80031f8:	2b00      	cmp	r3, #0
 80031fa:	d060      	beq.n	80032be <menu_move_down+0x14a>
 80031fc:	4b40      	ldr	r3, [pc, #256]	@ (8003300 <menu_move_down+0x18c>)
 80031fe:	781b      	ldrb	r3, [r3, #0]
 8003200:	3b01      	subs	r3, #1
 8003202:	b2da      	uxtb	r2, r3
 8003204:	4b3e      	ldr	r3, [pc, #248]	@ (8003300 <menu_move_down+0x18c>)
 8003206:	701a      	strb	r2, [r3, #0]
 8003208:	e059      	b.n	80032be <menu_move_down+0x14a>
            case UI_TIMER_EDIT_ON_M: if (edit_timer_on_m > 0) edit_timer_on_m--; break;
 800320a:	4b3e      	ldr	r3, [pc, #248]	@ (8003304 <menu_move_down+0x190>)
 800320c:	781b      	ldrb	r3, [r3, #0]
 800320e:	2b00      	cmp	r3, #0
 8003210:	d057      	beq.n	80032c2 <menu_move_down+0x14e>
 8003212:	4b3c      	ldr	r3, [pc, #240]	@ (8003304 <menu_move_down+0x190>)
 8003214:	781b      	ldrb	r3, [r3, #0]
 8003216:	3b01      	subs	r3, #1
 8003218:	b2da      	uxtb	r2, r3
 800321a:	4b3a      	ldr	r3, [pc, #232]	@ (8003304 <menu_move_down+0x190>)
 800321c:	701a      	strb	r2, [r3, #0]
 800321e:	e050      	b.n	80032c2 <menu_move_down+0x14e>
            case UI_TIMER_EDIT_OFF_H: if (edit_timer_off_h > 0) edit_timer_off_h--; break;
 8003220:	4b39      	ldr	r3, [pc, #228]	@ (8003308 <menu_move_down+0x194>)
 8003222:	781b      	ldrb	r3, [r3, #0]
 8003224:	2b00      	cmp	r3, #0
 8003226:	d04e      	beq.n	80032c6 <menu_move_down+0x152>
 8003228:	4b37      	ldr	r3, [pc, #220]	@ (8003308 <menu_move_down+0x194>)
 800322a:	781b      	ldrb	r3, [r3, #0]
 800322c:	3b01      	subs	r3, #1
 800322e:	b2da      	uxtb	r2, r3
 8003230:	4b35      	ldr	r3, [pc, #212]	@ (8003308 <menu_move_down+0x194>)
 8003232:	701a      	strb	r2, [r3, #0]
 8003234:	e047      	b.n	80032c6 <menu_move_down+0x152>
            case UI_TIMER_EDIT_OFF_M: if (edit_timer_off_m > 0) edit_timer_off_m--; break;
 8003236:	4b35      	ldr	r3, [pc, #212]	@ (800330c <menu_move_down+0x198>)
 8003238:	781b      	ldrb	r3, [r3, #0]
 800323a:	2b00      	cmp	r3, #0
 800323c:	d045      	beq.n	80032ca <menu_move_down+0x156>
 800323e:	4b33      	ldr	r3, [pc, #204]	@ (800330c <menu_move_down+0x198>)
 8003240:	781b      	ldrb	r3, [r3, #0]
 8003242:	3b01      	subs	r3, #1
 8003244:	b2da      	uxtb	r2, r3
 8003246:	4b31      	ldr	r3, [pc, #196]	@ (800330c <menu_move_down+0x198>)
 8003248:	701a      	strb	r2, [r3, #0]
 800324a:	e03e      	b.n	80032ca <menu_move_down+0x156>
            case UI_SEARCH_EDIT_GAP: if (edit_search_gap_s > 1) edit_search_gap_s -= 1; break;
 800324c:	4b30      	ldr	r3, [pc, #192]	@ (8003310 <menu_move_down+0x19c>)
 800324e:	881b      	ldrh	r3, [r3, #0]
 8003250:	2b01      	cmp	r3, #1
 8003252:	d93c      	bls.n	80032ce <menu_move_down+0x15a>
 8003254:	4b2e      	ldr	r3, [pc, #184]	@ (8003310 <menu_move_down+0x19c>)
 8003256:	881b      	ldrh	r3, [r3, #0]
 8003258:	3b01      	subs	r3, #1
 800325a:	b29a      	uxth	r2, r3
 800325c:	4b2c      	ldr	r3, [pc, #176]	@ (8003310 <menu_move_down+0x19c>)
 800325e:	801a      	strh	r2, [r3, #0]
 8003260:	e035      	b.n	80032ce <menu_move_down+0x15a>
            case UI_SEARCH_EDIT_DRY: if (edit_search_dry_s > 1) edit_search_dry_s -= 1; break;
 8003262:	4b2c      	ldr	r3, [pc, #176]	@ (8003314 <menu_move_down+0x1a0>)
 8003264:	881b      	ldrh	r3, [r3, #0]
 8003266:	2b01      	cmp	r3, #1
 8003268:	d933      	bls.n	80032d2 <menu_move_down+0x15e>
 800326a:	4b2a      	ldr	r3, [pc, #168]	@ (8003314 <menu_move_down+0x1a0>)
 800326c:	881b      	ldrh	r3, [r3, #0]
 800326e:	3b01      	subs	r3, #1
 8003270:	b29a      	uxth	r2, r3
 8003272:	4b28      	ldr	r3, [pc, #160]	@ (8003314 <menu_move_down+0x1a0>)
 8003274:	801a      	strh	r2, [r3, #0]
 8003276:	e02c      	b.n	80032d2 <menu_move_down+0x15e>
            case UI_COUNTDOWN_EDIT_MIN: if (edit_countdown_min > 0) edit_countdown_min -= 1; break;
 8003278:	4b27      	ldr	r3, [pc, #156]	@ (8003318 <menu_move_down+0x1a4>)
 800327a:	881b      	ldrh	r3, [r3, #0]
 800327c:	2b00      	cmp	r3, #0
 800327e:	d02a      	beq.n	80032d6 <menu_move_down+0x162>
 8003280:	4b25      	ldr	r3, [pc, #148]	@ (8003318 <menu_move_down+0x1a4>)
 8003282:	881b      	ldrh	r3, [r3, #0]
 8003284:	3b01      	subs	r3, #1
 8003286:	b29a      	uxth	r2, r3
 8003288:	4b23      	ldr	r3, [pc, #140]	@ (8003318 <menu_move_down+0x1a4>)
 800328a:	801a      	strh	r2, [r3, #0]
 800328c:	e023      	b.n	80032d6 <menu_move_down+0x162>
            case UI_TWIST_EDIT_ON: if (edit_twist_on_s > 1) edit_twist_on_s -= 1; break;
 800328e:	4b23      	ldr	r3, [pc, #140]	@ (800331c <menu_move_down+0x1a8>)
 8003290:	881b      	ldrh	r3, [r3, #0]
 8003292:	2b01      	cmp	r3, #1
 8003294:	d921      	bls.n	80032da <menu_move_down+0x166>
 8003296:	4b21      	ldr	r3, [pc, #132]	@ (800331c <menu_move_down+0x1a8>)
 8003298:	881b      	ldrh	r3, [r3, #0]
 800329a:	3b01      	subs	r3, #1
 800329c:	b29a      	uxth	r2, r3
 800329e:	4b1f      	ldr	r3, [pc, #124]	@ (800331c <menu_move_down+0x1a8>)
 80032a0:	801a      	strh	r2, [r3, #0]
 80032a2:	e01a      	b.n	80032da <menu_move_down+0x166>
            case UI_TWIST_EDIT_OFF: if (edit_twist_off_s > 1) edit_twist_off_s -= 1; break;
 80032a4:	4b1e      	ldr	r3, [pc, #120]	@ (8003320 <menu_move_down+0x1ac>)
 80032a6:	881b      	ldrh	r3, [r3, #0]
 80032a8:	2b01      	cmp	r3, #1
 80032aa:	d918      	bls.n	80032de <menu_move_down+0x16a>
 80032ac:	4b1c      	ldr	r3, [pc, #112]	@ (8003320 <menu_move_down+0x1ac>)
 80032ae:	881b      	ldrh	r3, [r3, #0]
 80032b0:	3b01      	subs	r3, #1
 80032b2:	b29a      	uxth	r2, r3
 80032b4:	4b1a      	ldr	r3, [pc, #104]	@ (8003320 <menu_move_down+0x1ac>)
 80032b6:	801a      	strh	r2, [r3, #0]
 80032b8:	e011      	b.n	80032de <menu_move_down+0x16a>
            default: break;
 80032ba:	bf00      	nop
 80032bc:	e010      	b.n	80032e0 <menu_move_down+0x16c>
            case UI_TIMER_EDIT_ON_H: if (edit_timer_on_h > 0) edit_timer_on_h--; break;
 80032be:	bf00      	nop
 80032c0:	e00e      	b.n	80032e0 <menu_move_down+0x16c>
            case UI_TIMER_EDIT_ON_M: if (edit_timer_on_m > 0) edit_timer_on_m--; break;
 80032c2:	bf00      	nop
 80032c4:	e00c      	b.n	80032e0 <menu_move_down+0x16c>
            case UI_TIMER_EDIT_OFF_H: if (edit_timer_off_h > 0) edit_timer_off_h--; break;
 80032c6:	bf00      	nop
 80032c8:	e00a      	b.n	80032e0 <menu_move_down+0x16c>
            case UI_TIMER_EDIT_OFF_M: if (edit_timer_off_m > 0) edit_timer_off_m--; break;
 80032ca:	bf00      	nop
 80032cc:	e008      	b.n	80032e0 <menu_move_down+0x16c>
            case UI_SEARCH_EDIT_GAP: if (edit_search_gap_s > 1) edit_search_gap_s -= 1; break;
 80032ce:	bf00      	nop
 80032d0:	e006      	b.n	80032e0 <menu_move_down+0x16c>
            case UI_SEARCH_EDIT_DRY: if (edit_search_dry_s > 1) edit_search_dry_s -= 1; break;
 80032d2:	bf00      	nop
 80032d4:	e004      	b.n	80032e0 <menu_move_down+0x16c>
            case UI_COUNTDOWN_EDIT_MIN: if (edit_countdown_min > 0) edit_countdown_min -= 1; break;
 80032d6:	bf00      	nop
 80032d8:	e002      	b.n	80032e0 <menu_move_down+0x16c>
            case UI_TWIST_EDIT_ON: if (edit_twist_on_s > 1) edit_twist_on_s -= 1; break;
 80032da:	bf00      	nop
 80032dc:	e000      	b.n	80032e0 <menu_move_down+0x16c>
            case UI_TWIST_EDIT_OFF: if (edit_twist_off_s > 1) edit_twist_off_s -= 1; break;
 80032de:	bf00      	nop
        }
        screenNeedsRefresh = true;
 80032e0:	4b06      	ldr	r3, [pc, #24]	@ (80032fc <menu_move_down+0x188>)
 80032e2:	2201      	movs	r2, #1
 80032e4:	701a      	strb	r2, [r3, #0]
    }
    refreshInactivityTimer();
 80032e6:	f7ff f931 	bl	800254c <refreshInactivityTimer>
}
 80032ea:	bf00      	nop
 80032ec:	bd80      	pop	{r7, pc}
 80032ee:	bf00      	nop
 80032f0:	200003dc 	.word	0x200003dc
 80032f4:	200003ec 	.word	0x200003ec
 80032f8:	200003f0 	.word	0x200003f0
 80032fc:	200003dd 	.word	0x200003dd
 8003300:	20000054 	.word	0x20000054
 8003304:	20000055 	.word	0x20000055
 8003308:	20000056 	.word	0x20000056
 800330c:	20000057 	.word	0x20000057
 8003310:	20000058 	.word	0x20000058
 8003314:	2000005a 	.word	0x2000005a
 8003318:	20000060 	.word	0x20000060
 800331c:	2000005c 	.word	0x2000005c
 8003320:	2000005e 	.word	0x2000005e

08003324 <menu_select>:

static void menu_select(void){
 8003324:	b580      	push	{r7, lr}
 8003326:	af00      	add	r7, sp, #0
    refreshInactivityTimer();
 8003328:	f7ff f910 	bl	800254c <refreshInactivityTimer>

    switch (ui){
 800332c:	4b71      	ldr	r3, [pc, #452]	@ (80034f4 <menu_select+0x1d0>)
 800332e:	781b      	ldrb	r3, [r3, #0]
 8003330:	2b11      	cmp	r3, #17
 8003332:	f200 80d5 	bhi.w	80034e0 <menu_select+0x1bc>
 8003336:	a201      	add	r2, pc, #4	@ (adr r2, 800333c <menu_select+0x18>)
 8003338:	f852 f023 	ldr.w	pc, [r2, r3, lsl #2]
 800333c:	08003385 	.word	0x08003385
 8003340:	0800338d 	.word	0x0800338d
 8003344:	08003399 	.word	0x08003399
 8003348:	08003407 	.word	0x08003407
 800334c:	08003427 	.word	0x08003427
 8003350:	0800344d 	.word	0x0800344d
 8003354:	08003455 	.word	0x08003455
 8003358:	0800345d 	.word	0x0800345d
 800335c:	08003465 	.word	0x08003465
 8003360:	0800346d 	.word	0x0800346d
 8003364:	08003479 	.word	0x08003479
 8003368:	08003481 	.word	0x08003481
 800336c:	0800348d 	.word	0x0800348d
 8003370:	08003499 	.word	0x08003499
 8003374:	080034b3 	.word	0x080034b3
 8003378:	080034c5 	.word	0x080034c5
 800337c:	080034cd 	.word	0x080034cd
 8003380:	080034d5 	.word	0x080034d5
        case UI_WELCOME:
            ui = UI_DASH;
 8003384:	4b5b      	ldr	r3, [pc, #364]	@ (80034f4 <menu_select+0x1d0>)
 8003386:	2201      	movs	r2, #1
 8003388:	701a      	strb	r2, [r3, #0]
            break;
 800338a:	e0ad      	b.n	80034e8 <menu_select+0x1c4>

        case UI_DASH:
            // Enter menu
            ui = UI_MENU;
 800338c:	4b59      	ldr	r3, [pc, #356]	@ (80034f4 <menu_select+0x1d0>)
 800338e:	2202      	movs	r2, #2
 8003390:	701a      	strb	r2, [r3, #0]
            goto_menu_top();
 8003392:	f7ff f8e7 	bl	8002564 <goto_menu_top>
            break;
 8003396:	e0a7      	b.n	80034e8 <menu_select+0x1c4>

        case UI_MENU:
            // perform action based on menu_idx
            switch (menu_idx){
 8003398:	4b57      	ldr	r3, [pc, #348]	@ (80034f8 <menu_select+0x1d4>)
 800339a:	681b      	ldr	r3, [r3, #0]
 800339c:	2b06      	cmp	r3, #6
 800339e:	d82d      	bhi.n	80033fc <menu_select+0xd8>
 80033a0:	a201      	add	r2, pc, #4	@ (adr r2, 80033a8 <menu_select+0x84>)
 80033a2:	f852 f023 	ldr.w	pc, [r2, r3, lsl #2]
 80033a6:	bf00      	nop
 80033a8:	080033c5 	.word	0x080033c5
 80033ac:	080033cd 	.word	0x080033cd
 80033b0:	080033d5 	.word	0x080033d5
 80033b4:	080033dd 	.word	0x080033dd
 80033b8:	080033e5 	.word	0x080033e5
 80033bc:	080033ed 	.word	0x080033ed
 80033c0:	080033f5 	.word	0x080033f5
                case 0: ui = UI_MANUAL; break;
 80033c4:	4b4b      	ldr	r3, [pc, #300]	@ (80034f4 <menu_select+0x1d0>)
 80033c6:	2203      	movs	r2, #3
 80033c8:	701a      	strb	r2, [r3, #0]
 80033ca:	e01b      	b.n	8003404 <menu_select+0xe0>
                case 1: ui = UI_SEMI_AUTO; break;
 80033cc:	4b49      	ldr	r3, [pc, #292]	@ (80034f4 <menu_select+0x1d0>)
 80033ce:	2204      	movs	r2, #4
 80033d0:	701a      	strb	r2, [r3, #0]
 80033d2:	e017      	b.n	8003404 <menu_select+0xe0>
                case 2: ui = UI_TIMER; break;
 80033d4:	4b47      	ldr	r3, [pc, #284]	@ (80034f4 <menu_select+0x1d0>)
 80033d6:	2205      	movs	r2, #5
 80033d8:	701a      	strb	r2, [r3, #0]
 80033da:	e013      	b.n	8003404 <menu_select+0xe0>
                case 3: ui = UI_SEARCH; break;
 80033dc:	4b45      	ldr	r3, [pc, #276]	@ (80034f4 <menu_select+0x1d0>)
 80033de:	220a      	movs	r2, #10
 80033e0:	701a      	strb	r2, [r3, #0]
 80033e2:	e00f      	b.n	8003404 <menu_select+0xe0>
                case 4: ui = UI_COUNTDOWN; break;
 80033e4:	4b43      	ldr	r3, [pc, #268]	@ (80034f4 <menu_select+0x1d0>)
 80033e6:	220d      	movs	r2, #13
 80033e8:	701a      	strb	r2, [r3, #0]
 80033ea:	e00b      	b.n	8003404 <menu_select+0xe0>
                case 5: ui = UI_TWIST; break;
 80033ec:	4b41      	ldr	r3, [pc, #260]	@ (80034f4 <menu_select+0x1d0>)
 80033ee:	220f      	movs	r2, #15
 80033f0:	701a      	strb	r2, [r3, #0]
 80033f2:	e007      	b.n	8003404 <menu_select+0xe0>
                case 6: ui = UI_DASH; break;
 80033f4:	4b3f      	ldr	r3, [pc, #252]	@ (80034f4 <menu_select+0x1d0>)
 80033f6:	2201      	movs	r2, #1
 80033f8:	701a      	strb	r2, [r3, #0]
 80033fa:	e003      	b.n	8003404 <menu_select+0xe0>
                default: ui = UI_DASH; break;
 80033fc:	4b3d      	ldr	r3, [pc, #244]	@ (80034f4 <menu_select+0x1d0>)
 80033fe:	2201      	movs	r2, #1
 8003400:	701a      	strb	r2, [r3, #0]
 8003402:	bf00      	nop
            }
            break;
 8003404:	e070      	b.n	80034e8 <menu_select+0x1c4>

        case UI_MANUAL:
            // Toggle motor on select
            if (Motor_GetStatus()) {
 8003406:	f7fe ff5b 	bl	80022c0 <Motor_GetStatus>
 800340a:	4603      	mov	r3, r0
 800340c:	2b00      	cmp	r3, #0
 800340e:	d003      	beq.n	8003418 <menu_select+0xf4>
            	motorStatus = 0;
 8003410:	4b3a      	ldr	r3, [pc, #232]	@ (80034fc <menu_select+0x1d8>)
 8003412:	2200      	movs	r2, #0
 8003414:	701a      	strb	r2, [r3, #0]
 8003416:	e002      	b.n	800341e <menu_select+0xfa>
            } else {
            	motorStatus = 1;
 8003418:	4b38      	ldr	r3, [pc, #224]	@ (80034fc <menu_select+0x1d8>)
 800341a:	2201      	movs	r2, #1
 800341c:	701a      	strb	r2, [r3, #0]
            }
            screenNeedsRefresh = true;
 800341e:	4b38      	ldr	r3, [pc, #224]	@ (8003500 <menu_select+0x1dc>)
 8003420:	2201      	movs	r2, #1
 8003422:	701a      	strb	r2, [r3, #0]
            break;
 8003424:	e060      	b.n	80034e8 <menu_select+0x1c4>

        case UI_SEMI_AUTO:
            semiAutoEnabled = !semiAutoEnabled;
 8003426:	4b37      	ldr	r3, [pc, #220]	@ (8003504 <menu_select+0x1e0>)
 8003428:	781b      	ldrb	r3, [r3, #0]
 800342a:	2b00      	cmp	r3, #0
 800342c:	bf14      	ite	ne
 800342e:	2301      	movne	r3, #1
 8003430:	2300      	moveq	r3, #0
 8003432:	b2db      	uxtb	r3, r3
 8003434:	f083 0301 	eor.w	r3, r3, #1
 8003438:	b2db      	uxtb	r3, r3
 800343a:	f003 0301 	and.w	r3, r3, #1
 800343e:	b2da      	uxtb	r2, r3
 8003440:	4b30      	ldr	r3, [pc, #192]	@ (8003504 <menu_select+0x1e0>)
 8003442:	701a      	strb	r2, [r3, #0]
            screenNeedsRefresh = true;
 8003444:	4b2e      	ldr	r3, [pc, #184]	@ (8003500 <menu_select+0x1dc>)
 8003446:	2201      	movs	r2, #1
 8003448:	701a      	strb	r2, [r3, #0]
            break;
 800344a:	e04d      	b.n	80034e8 <menu_select+0x1c4>

        case UI_TIMER:
            // From timer display, SELECT enters editing ON time first
            ui = UI_TIMER_EDIT_ON_H;
 800344c:	4b29      	ldr	r3, [pc, #164]	@ (80034f4 <menu_select+0x1d0>)
 800344e:	2206      	movs	r2, #6
 8003450:	701a      	strb	r2, [r3, #0]
            break;
 8003452:	e049      	b.n	80034e8 <menu_select+0x1c4>

        case UI_TIMER_EDIT_ON_H:
            ui = UI_TIMER_EDIT_ON_M; break;
 8003454:	4b27      	ldr	r3, [pc, #156]	@ (80034f4 <menu_select+0x1d0>)
 8003456:	2207      	movs	r2, #7
 8003458:	701a      	strb	r2, [r3, #0]
 800345a:	e045      	b.n	80034e8 <menu_select+0x1c4>
        case UI_TIMER_EDIT_ON_M:
            ui = UI_TIMER_EDIT_OFF_H; break;
 800345c:	4b25      	ldr	r3, [pc, #148]	@ (80034f4 <menu_select+0x1d0>)
 800345e:	2208      	movs	r2, #8
 8003460:	701a      	strb	r2, [r3, #0]
 8003462:	e041      	b.n	80034e8 <menu_select+0x1c4>
        case UI_TIMER_EDIT_OFF_H:
            ui = UI_TIMER_EDIT_OFF_M; break;
 8003464:	4b23      	ldr	r3, [pc, #140]	@ (80034f4 <menu_select+0x1d0>)
 8003466:	2209      	movs	r2, #9
 8003468:	701a      	strb	r2, [r3, #0]
 800346a:	e03d      	b.n	80034e8 <menu_select+0x1c4>
        case UI_TIMER_EDIT_OFF_M:
            // finished editing timer; apply
            apply_timer_settings();
 800346c:	f7ff fb22 	bl	8002ab4 <apply_timer_settings>
            ui = UI_TIMER; break;
 8003470:	4b20      	ldr	r3, [pc, #128]	@ (80034f4 <menu_select+0x1d0>)
 8003472:	2205      	movs	r2, #5
 8003474:	701a      	strb	r2, [r3, #0]
 8003476:	e037      	b.n	80034e8 <menu_select+0x1c4>

        case UI_SEARCH:
            // enter edit gap
            ui = UI_SEARCH_EDIT_GAP; break;
 8003478:	4b1e      	ldr	r3, [pc, #120]	@ (80034f4 <menu_select+0x1d0>)
 800347a:	220b      	movs	r2, #11
 800347c:	701a      	strb	r2, [r3, #0]
 800347e:	e033      	b.n	80034e8 <menu_select+0x1c4>

        case UI_SEARCH_EDIT_GAP:
            // after editing gap go to dry
            apply_search_settings(); // partial apply
 8003480:	f7ff fad8 	bl	8002a34 <apply_search_settings>
            ui = UI_SEARCH_EDIT_DRY; break;
 8003484:	4b1b      	ldr	r3, [pc, #108]	@ (80034f4 <menu_select+0x1d0>)
 8003486:	220c      	movs	r2, #12
 8003488:	701a      	strb	r2, [r3, #0]
 800348a:	e02d      	b.n	80034e8 <menu_select+0x1c4>
        case UI_SEARCH_EDIT_DRY:
            apply_search_settings();
 800348c:	f7ff fad2 	bl	8002a34 <apply_search_settings>
            ui = UI_SEARCH; break;
 8003490:	4b18      	ldr	r3, [pc, #96]	@ (80034f4 <menu_select+0x1d0>)
 8003492:	220a      	movs	r2, #10
 8003494:	701a      	strb	r2, [r3, #0]
 8003496:	e027      	b.n	80034e8 <menu_select+0x1c4>

        case UI_COUNTDOWN:
            // if countdown active, SELECT stops it, otherwise go to set/start
            if (countdownActive) {
 8003498:	4b1b      	ldr	r3, [pc, #108]	@ (8003508 <menu_select+0x1e4>)
 800349a:	781b      	ldrb	r3, [r3, #0]
 800349c:	b2db      	uxtb	r3, r3
 800349e:	2b00      	cmp	r3, #0
 80034a0:	d003      	beq.n	80034aa <menu_select+0x186>
                countdownActive = false;
 80034a2:	4b19      	ldr	r3, [pc, #100]	@ (8003508 <menu_select+0x1e4>)
 80034a4:	2200      	movs	r2, #0
 80034a6:	701a      	strb	r2, [r3, #0]
            } else {
                ui = UI_COUNTDOWN_EDIT_MIN;
            }
            break;
 80034a8:	e01e      	b.n	80034e8 <menu_select+0x1c4>
                ui = UI_COUNTDOWN_EDIT_MIN;
 80034aa:	4b12      	ldr	r3, [pc, #72]	@ (80034f4 <menu_select+0x1d0>)
 80034ac:	220e      	movs	r2, #14
 80034ae:	701a      	strb	r2, [r3, #0]
            break;
 80034b0:	e01a      	b.n	80034e8 <menu_select+0x1c4>
        case UI_COUNTDOWN_EDIT_MIN:
            apply_countdown_settings();
 80034b2:	f7ff faeb 	bl	8002a8c <apply_countdown_settings>
            // start countdown
            countdownActive = true;
 80034b6:	4b14      	ldr	r3, [pc, #80]	@ (8003508 <menu_select+0x1e4>)
 80034b8:	2201      	movs	r2, #1
 80034ba:	701a      	strb	r2, [r3, #0]
            ui = UI_COUNTDOWN;
 80034bc:	4b0d      	ldr	r3, [pc, #52]	@ (80034f4 <menu_select+0x1d0>)
 80034be:	220d      	movs	r2, #13
 80034c0:	701a      	strb	r2, [r3, #0]
            break;
 80034c2:	e011      	b.n	80034e8 <menu_select+0x1c4>

        case UI_TWIST:
            // SELECT enters edit ON duration
            ui = UI_TWIST_EDIT_ON; break;
 80034c4:	4b0b      	ldr	r3, [pc, #44]	@ (80034f4 <menu_select+0x1d0>)
 80034c6:	2210      	movs	r2, #16
 80034c8:	701a      	strb	r2, [r3, #0]
 80034ca:	e00d      	b.n	80034e8 <menu_select+0x1c4>
        case UI_TWIST_EDIT_ON:
            // next selects edit off
            ui = UI_TWIST_EDIT_OFF; break;
 80034cc:	4b09      	ldr	r3, [pc, #36]	@ (80034f4 <menu_select+0x1d0>)
 80034ce:	2211      	movs	r2, #17
 80034d0:	701a      	strb	r2, [r3, #0]
 80034d2:	e009      	b.n	80034e8 <menu_select+0x1c4>
        case UI_TWIST_EDIT_OFF:
            // finished editing twist -> apply
            apply_twist_settings();
 80034d4:	f7ff fac4 	bl	8002a60 <apply_twist_settings>
            ui = UI_TWIST; break;
 80034d8:	4b06      	ldr	r3, [pc, #24]	@ (80034f4 <menu_select+0x1d0>)
 80034da:	220f      	movs	r2, #15
 80034dc:	701a      	strb	r2, [r3, #0]
 80034de:	e003      	b.n	80034e8 <menu_select+0x1c4>

        /* Edit screens handled above */
        default:
            ui = UI_DASH;
 80034e0:	4b04      	ldr	r3, [pc, #16]	@ (80034f4 <menu_select+0x1d0>)
 80034e2:	2201      	movs	r2, #1
 80034e4:	701a      	strb	r2, [r3, #0]
            break;
 80034e6:	bf00      	nop
    }

    screenNeedsRefresh = true;
 80034e8:	4b05      	ldr	r3, [pc, #20]	@ (8003500 <menu_select+0x1dc>)
 80034ea:	2201      	movs	r2, #1
 80034ec:	701a      	strb	r2, [r3, #0]
}
 80034ee:	bf00      	nop
 80034f0:	bd80      	pop	{r7, pc}
 80034f2:	bf00      	nop
 80034f4:	200003dc 	.word	0x200003dc
 80034f8:	200003ec 	.word	0x200003ec
 80034fc:	20000358 	.word	0x20000358
 8003500:	200003dd 	.word	0x200003dd
 8003504:	200003e8 	.word	0x200003e8
 8003508:	20000359 	.word	0x20000359

0800350c <menu_reset>:

static void menu_reset(void){
 800350c:	b580      	push	{r7, lr}
 800350e:	af00      	add	r7, sp, #0
    // act as back/home
    refreshInactivityTimer();
 8003510:	f7ff f81c 	bl	800254c <refreshInactivityTimer>

    switch (ui){
 8003514:	4b22      	ldr	r3, [pc, #136]	@ (80035a0 <menu_reset+0x94>)
 8003516:	781b      	ldrb	r3, [r3, #0]
 8003518:	2b11      	cmp	r3, #17
 800351a:	dc36      	bgt.n	800358a <menu_reset+0x7e>
 800351c:	2b02      	cmp	r3, #2
 800351e:	da04      	bge.n	800352a <menu_reset+0x1e>
 8003520:	2b00      	cmp	r3, #0
 8003522:	d036      	beq.n	8003592 <menu_reset+0x86>
 8003524:	2b01      	cmp	r3, #1
 8003526:	d020      	beq.n	800356a <menu_reset+0x5e>
 8003528:	e02f      	b.n	800358a <menu_reset+0x7e>
 800352a:	461a      	mov	r2, r3
 800352c:	2301      	movs	r3, #1
 800352e:	4093      	lsls	r3, r2
 8003530:	4a1c      	ldr	r2, [pc, #112]	@ (80035a4 <menu_reset+0x98>)
 8003532:	401a      	ands	r2, r3
 8003534:	2a00      	cmp	r2, #0
 8003536:	bf14      	ite	ne
 8003538:	2201      	movne	r2, #1
 800353a:	2200      	moveq	r2, #0
 800353c:	b2d2      	uxtb	r2, r2
 800353e:	2a00      	cmp	r2, #0
 8003540:	d11f      	bne.n	8003582 <menu_reset+0x76>
 8003542:	f24a 4238 	movw	r2, #42040	@ 0xa438
 8003546:	401a      	ands	r2, r3
 8003548:	2a00      	cmp	r2, #0
 800354a:	bf14      	ite	ne
 800354c:	2201      	movne	r2, #1
 800354e:	2200      	moveq	r2, #0
 8003550:	b2d2      	uxtb	r2, r2
 8003552:	2a00      	cmp	r2, #0
 8003554:	d111      	bne.n	800357a <menu_reset+0x6e>
 8003556:	f003 0304 	and.w	r3, r3, #4
 800355a:	2b00      	cmp	r3, #0
 800355c:	bf14      	ite	ne
 800355e:	2301      	movne	r3, #1
 8003560:	2300      	moveq	r3, #0
 8003562:	b2db      	uxtb	r3, r3
 8003564:	2b00      	cmp	r3, #0
 8003566:	d104      	bne.n	8003572 <menu_reset+0x66>
 8003568:	e00f      	b.n	800358a <menu_reset+0x7e>
        case UI_WELCOME:
            // do nothing
            break;
        case UI_DASH:
            // already at dash - go to welcome
            ui = UI_WELCOME;
 800356a:	4b0d      	ldr	r3, [pc, #52]	@ (80035a0 <menu_reset+0x94>)
 800356c:	2200      	movs	r2, #0
 800356e:	701a      	strb	r2, [r3, #0]
            break;
 8003570:	e010      	b.n	8003594 <menu_reset+0x88>
        case UI_MENU:
            // go back to dash
            ui = UI_DASH;
 8003572:	4b0b      	ldr	r3, [pc, #44]	@ (80035a0 <menu_reset+0x94>)
 8003574:	2201      	movs	r2, #1
 8003576:	701a      	strb	r2, [r3, #0]
            break;
 8003578:	e00c      	b.n	8003594 <menu_reset+0x88>
        case UI_TIMER:
        case UI_SEARCH:
        case UI_COUNTDOWN:
        case UI_TWIST:
            // return to menu
            ui = UI_MENU;
 800357a:	4b09      	ldr	r3, [pc, #36]	@ (80035a0 <menu_reset+0x94>)
 800357c:	2202      	movs	r2, #2
 800357e:	701a      	strb	r2, [r3, #0]
            break;
 8003580:	e008      	b.n	8003594 <menu_reset+0x88>
        case UI_SEARCH_EDIT_DRY:
        case UI_COUNTDOWN_EDIT_MIN:
        case UI_TWIST_EDIT_ON:
        case UI_TWIST_EDIT_OFF:
            // cancel edits, go to parent screen (menu for simplicity)
            ui = UI_MENU;
 8003582:	4b07      	ldr	r3, [pc, #28]	@ (80035a0 <menu_reset+0x94>)
 8003584:	2202      	movs	r2, #2
 8003586:	701a      	strb	r2, [r3, #0]
            break;
 8003588:	e004      	b.n	8003594 <menu_reset+0x88>
        default:
            ui = UI_DASH;
 800358a:	4b05      	ldr	r3, [pc, #20]	@ (80035a0 <menu_reset+0x94>)
 800358c:	2201      	movs	r2, #1
 800358e:	701a      	strb	r2, [r3, #0]
            break;
 8003590:	e000      	b.n	8003594 <menu_reset+0x88>
            break;
 8003592:	bf00      	nop
    }
    screenNeedsRefresh = true;
 8003594:	4b04      	ldr	r3, [pc, #16]	@ (80035a8 <menu_reset+0x9c>)
 8003596:	2201      	movs	r2, #1
 8003598:	701a      	strb	r2, [r3, #0]
}
 800359a:	bf00      	nop
 800359c:	bd80      	pop	{r7, pc}
 800359e:	bf00      	nop
 80035a0:	200003dc 	.word	0x200003dc
 80035a4:	00035bc0 	.word	0x00035bc0
 80035a8:	200003dd 	.word	0x200003dd

080035ac <Screen_HandleButton>:

/* Public button handler used by switch polling */
void Screen_HandleButton(UiButton b){
 80035ac:	b580      	push	{r7, lr}
 80035ae:	b082      	sub	sp, #8
 80035b0:	af00      	add	r7, sp, #0
 80035b2:	4603      	mov	r3, r0
 80035b4:	71fb      	strb	r3, [r7, #7]
    if (b == BTN_RESET){ menu_reset(); return; }
 80035b6:	79fb      	ldrb	r3, [r7, #7]
 80035b8:	2b01      	cmp	r3, #1
 80035ba:	d102      	bne.n	80035c2 <Screen_HandleButton+0x16>
 80035bc:	f7ff ffa6 	bl	800350c <menu_reset>
 80035c0:	e011      	b.n	80035e6 <Screen_HandleButton+0x3a>
    if (b == BTN_UP) { menu_move_up(); return; }
 80035c2:	79fb      	ldrb	r3, [r7, #7]
 80035c4:	2b03      	cmp	r3, #3
 80035c6:	d102      	bne.n	80035ce <Screen_HandleButton+0x22>
 80035c8:	f7ff fcf2 	bl	8002fb0 <menu_move_up>
 80035cc:	e00b      	b.n	80035e6 <Screen_HandleButton+0x3a>
    if (b == BTN_DOWN) { menu_move_down(); return; }
 80035ce:	79fb      	ldrb	r3, [r7, #7]
 80035d0:	2b04      	cmp	r3, #4
 80035d2:	d102      	bne.n	80035da <Screen_HandleButton+0x2e>
 80035d4:	f7ff fdce 	bl	8003174 <menu_move_down>
 80035d8:	e005      	b.n	80035e6 <Screen_HandleButton+0x3a>
    if (b == BTN_SELECT) { menu_select(); return; }
 80035da:	79fb      	ldrb	r3, [r7, #7]
 80035dc:	2b02      	cmp	r3, #2
 80035de:	d102      	bne.n	80035e6 <Screen_HandleButton+0x3a>
 80035e0:	f7ff fea0 	bl	8003324 <menu_select>
 80035e4:	bf00      	nop
}
 80035e6:	3708      	adds	r7, #8
 80035e8:	46bd      	mov	sp, r7
 80035ea:	bd80      	pop	{r7, pc}

080035ec <Screen_HandleSwitches>:

/* Generic switch handler - keeps your previous mapping style (change ports/pins if different) */
void Screen_HandleSwitches(void){
 80035ec:	b580      	push	{r7, lr}
 80035ee:	b082      	sub	sp, #8
 80035f0:	af00      	add	r7, sp, #0
        {SWITCH3_GPIO_Port, SWITCH3_Pin, BTN_UP, LED3_Pin},
        {SWITCH4_GPIO_Port, SWITCH4_Pin, BTN_DOWN, LED4_Pin}
    };
    static bool prev[4] = {true,true,true,true};

    for (int i=0; i<4; i++){
 80035f2:	2300      	movs	r3, #0
 80035f4:	607b      	str	r3, [r7, #4]
 80035f6:	e056      	b.n	80036a6 <Screen_HandleSwitches+0xba>
        bool pressed = (HAL_GPIO_ReadPin(switchMap[i].port, switchMap[i].pin) == GPIO_PIN_RESET);
 80035f8:	492f      	ldr	r1, [pc, #188]	@ (80036b8 <Screen_HandleSwitches+0xcc>)
 80035fa:	687a      	ldr	r2, [r7, #4]
 80035fc:	4613      	mov	r3, r2
 80035fe:	005b      	lsls	r3, r3, #1
 8003600:	4413      	add	r3, r2
 8003602:	009b      	lsls	r3, r3, #2
 8003604:	440b      	add	r3, r1
 8003606:	6818      	ldr	r0, [r3, #0]
 8003608:	492b      	ldr	r1, [pc, #172]	@ (80036b8 <Screen_HandleSwitches+0xcc>)
 800360a:	687a      	ldr	r2, [r7, #4]
 800360c:	4613      	mov	r3, r2
 800360e:	005b      	lsls	r3, r3, #1
 8003610:	4413      	add	r3, r2
 8003612:	009b      	lsls	r3, r3, #2
 8003614:	440b      	add	r3, r1
 8003616:	3304      	adds	r3, #4
 8003618:	881b      	ldrh	r3, [r3, #0]
 800361a:	4619      	mov	r1, r3
 800361c:	f001 fb04 	bl	8004c28 <HAL_GPIO_ReadPin>
 8003620:	4603      	mov	r3, r0
 8003622:	2b00      	cmp	r3, #0
 8003624:	bf0c      	ite	eq
 8003626:	2301      	moveq	r3, #1
 8003628:	2300      	movne	r3, #0
 800362a:	70fb      	strb	r3, [r7, #3]
        if (pressed && prev[i]) {
 800362c:	78fb      	ldrb	r3, [r7, #3]
 800362e:	2b00      	cmp	r3, #0
 8003630:	d02b      	beq.n	800368a <Screen_HandleSwitches+0x9e>
 8003632:	4a22      	ldr	r2, [pc, #136]	@ (80036bc <Screen_HandleSwitches+0xd0>)
 8003634:	687b      	ldr	r3, [r7, #4]
 8003636:	4413      	add	r3, r2
 8003638:	781b      	ldrb	r3, [r3, #0]
 800363a:	2b00      	cmp	r3, #0
 800363c:	d025      	beq.n	800368a <Screen_HandleSwitches+0x9e>
            prev[i] = false;
 800363e:	4a1f      	ldr	r2, [pc, #124]	@ (80036bc <Screen_HandleSwitches+0xd0>)
 8003640:	687b      	ldr	r3, [r7, #4]
 8003642:	4413      	add	r3, r2
 8003644:	2200      	movs	r2, #0
 8003646:	701a      	strb	r2, [r3, #0]
            // toggle corresponding indicator LED (assuming LED pin is on same port)
            HAL_GPIO_TogglePin(switchMap[i].port, switchMap[i].ledPin);
 8003648:	491b      	ldr	r1, [pc, #108]	@ (80036b8 <Screen_HandleSwitches+0xcc>)
 800364a:	687a      	ldr	r2, [r7, #4]
 800364c:	4613      	mov	r3, r2
 800364e:	005b      	lsls	r3, r3, #1
 8003650:	4413      	add	r3, r2
 8003652:	009b      	lsls	r3, r3, #2
 8003654:	440b      	add	r3, r1
 8003656:	6818      	ldr	r0, [r3, #0]
 8003658:	4917      	ldr	r1, [pc, #92]	@ (80036b8 <Screen_HandleSwitches+0xcc>)
 800365a:	687a      	ldr	r2, [r7, #4]
 800365c:	4613      	mov	r3, r2
 800365e:	005b      	lsls	r3, r3, #1
 8003660:	4413      	add	r3, r2
 8003662:	009b      	lsls	r3, r3, #2
 8003664:	440b      	add	r3, r1
 8003666:	3308      	adds	r3, #8
 8003668:	881b      	ldrh	r3, [r3, #0]
 800366a:	4619      	mov	r1, r3
 800366c:	f001 fb0b 	bl	8004c86 <HAL_GPIO_TogglePin>
            Screen_HandleButton(switchMap[i].btn);
 8003670:	4911      	ldr	r1, [pc, #68]	@ (80036b8 <Screen_HandleSwitches+0xcc>)
 8003672:	687a      	ldr	r2, [r7, #4]
 8003674:	4613      	mov	r3, r2
 8003676:	005b      	lsls	r3, r3, #1
 8003678:	4413      	add	r3, r2
 800367a:	009b      	lsls	r3, r3, #2
 800367c:	440b      	add	r3, r1
 800367e:	3306      	adds	r3, #6
 8003680:	781b      	ldrb	r3, [r3, #0]
 8003682:	4618      	mov	r0, r3
 8003684:	f7ff ff92 	bl	80035ac <Screen_HandleButton>
 8003688:	e00a      	b.n	80036a0 <Screen_HandleSwitches+0xb4>
        } else if (!pressed) prev[i] = true;
 800368a:	78fb      	ldrb	r3, [r7, #3]
 800368c:	f083 0301 	eor.w	r3, r3, #1
 8003690:	b2db      	uxtb	r3, r3
 8003692:	2b00      	cmp	r3, #0
 8003694:	d004      	beq.n	80036a0 <Screen_HandleSwitches+0xb4>
 8003696:	4a09      	ldr	r2, [pc, #36]	@ (80036bc <Screen_HandleSwitches+0xd0>)
 8003698:	687b      	ldr	r3, [r7, #4]
 800369a:	4413      	add	r3, r2
 800369c:	2201      	movs	r2, #1
 800369e:	701a      	strb	r2, [r3, #0]
    for (int i=0; i<4; i++){
 80036a0:	687b      	ldr	r3, [r7, #4]
 80036a2:	3301      	adds	r3, #1
 80036a4:	607b      	str	r3, [r7, #4]
 80036a6:	687b      	ldr	r3, [r7, #4]
 80036a8:	2b03      	cmp	r3, #3
 80036aa:	dda5      	ble.n	80035f8 <Screen_HandleSwitches+0xc>
    }
}
 80036ac:	bf00      	nop
 80036ae:	bf00      	nop
 80036b0:	3708      	adds	r7, #8
 80036b2:	46bd      	mov	sp, r7
 80036b4:	bd80      	pop	{r7, pc}
 80036b6:	bf00      	nop
 80036b8:	080087e0 	.word	0x080087e0
 80036bc:	20000064 	.word	0x20000064

080036c0 <HAL_MspInit>:
/* USER CODE END 0 */
/**
  * Initializes the Global MSP.
  */
void HAL_MspInit(void)
{
 80036c0:	b480      	push	{r7}
 80036c2:	b085      	sub	sp, #20
 80036c4:	af00      	add	r7, sp, #0

  /* USER CODE BEGIN MspInit 0 */

  /* USER CODE END MspInit 0 */

  __HAL_RCC_AFIO_CLK_ENABLE();
 80036c6:	4b15      	ldr	r3, [pc, #84]	@ (800371c <HAL_MspInit+0x5c>)
 80036c8:	699b      	ldr	r3, [r3, #24]
 80036ca:	4a14      	ldr	r2, [pc, #80]	@ (800371c <HAL_MspInit+0x5c>)
 80036cc:	f043 0301 	orr.w	r3, r3, #1
 80036d0:	6193      	str	r3, [r2, #24]
 80036d2:	4b12      	ldr	r3, [pc, #72]	@ (800371c <HAL_MspInit+0x5c>)
 80036d4:	699b      	ldr	r3, [r3, #24]
 80036d6:	f003 0301 	and.w	r3, r3, #1
 80036da:	60bb      	str	r3, [r7, #8]
 80036dc:	68bb      	ldr	r3, [r7, #8]
  __HAL_RCC_PWR_CLK_ENABLE();
 80036de:	4b0f      	ldr	r3, [pc, #60]	@ (800371c <HAL_MspInit+0x5c>)
 80036e0:	69db      	ldr	r3, [r3, #28]
 80036e2:	4a0e      	ldr	r2, [pc, #56]	@ (800371c <HAL_MspInit+0x5c>)
 80036e4:	f043 5380 	orr.w	r3, r3, #268435456	@ 0x10000000
 80036e8:	61d3      	str	r3, [r2, #28]
 80036ea:	4b0c      	ldr	r3, [pc, #48]	@ (800371c <HAL_MspInit+0x5c>)
 80036ec:	69db      	ldr	r3, [r3, #28]
 80036ee:	f003 5380 	and.w	r3, r3, #268435456	@ 0x10000000
 80036f2:	607b      	str	r3, [r7, #4]
 80036f4:	687b      	ldr	r3, [r7, #4]

  /* System interrupt init*/

  /** NOJTAG: JTAG-DP Disabled and SW-DP Enabled
  */
  __HAL_AFIO_REMAP_SWJ_NOJTAG();
 80036f6:	4b0a      	ldr	r3, [pc, #40]	@ (8003720 <HAL_MspInit+0x60>)
 80036f8:	685b      	ldr	r3, [r3, #4]
 80036fa:	60fb      	str	r3, [r7, #12]
 80036fc:	68fb      	ldr	r3, [r7, #12]
 80036fe:	f023 63e0 	bic.w	r3, r3, #117440512	@ 0x7000000
 8003702:	60fb      	str	r3, [r7, #12]
 8003704:	68fb      	ldr	r3, [r7, #12]
 8003706:	f043 7300 	orr.w	r3, r3, #33554432	@ 0x2000000
 800370a:	60fb      	str	r3, [r7, #12]
 800370c:	4a04      	ldr	r2, [pc, #16]	@ (8003720 <HAL_MspInit+0x60>)
 800370e:	68fb      	ldr	r3, [r7, #12]
 8003710:	6053      	str	r3, [r2, #4]

  /* USER CODE BEGIN MspInit 1 */

  /* USER CODE END MspInit 1 */
}
 8003712:	bf00      	nop
 8003714:	3714      	adds	r7, #20
 8003716:	46bd      	mov	sp, r7
 8003718:	bc80      	pop	{r7}
 800371a:	4770      	bx	lr
 800371c:	40021000 	.word	0x40021000
 8003720:	40010000 	.word	0x40010000

08003724 <HAL_ADC_MspInit>:
  * This function configures the hardware resources used in this example
  * @param hadc: ADC handle pointer
  * @retval None
  */
void HAL_ADC_MspInit(ADC_HandleTypeDef* hadc)
{
 8003724:	b580      	push	{r7, lr}
 8003726:	b088      	sub	sp, #32
 8003728:	af00      	add	r7, sp, #0
 800372a:	6078      	str	r0, [r7, #4]
  GPIO_InitTypeDef GPIO_InitStruct = {0};
 800372c:	f107 0310 	add.w	r3, r7, #16
 8003730:	2200      	movs	r2, #0
 8003732:	601a      	str	r2, [r3, #0]
 8003734:	605a      	str	r2, [r3, #4]
 8003736:	609a      	str	r2, [r3, #8]
 8003738:	60da      	str	r2, [r3, #12]
  if(hadc->Instance==ADC1)
 800373a:	687b      	ldr	r3, [r7, #4]
 800373c:	681b      	ldr	r3, [r3, #0]
 800373e:	4a14      	ldr	r2, [pc, #80]	@ (8003790 <HAL_ADC_MspInit+0x6c>)
 8003740:	4293      	cmp	r3, r2
 8003742:	d121      	bne.n	8003788 <HAL_ADC_MspInit+0x64>
  {
    /* USER CODE BEGIN ADC1_MspInit 0 */

    /* USER CODE END ADC1_MspInit 0 */
    /* Peripheral clock enable */
    __HAL_RCC_ADC1_CLK_ENABLE();
 8003744:	4b13      	ldr	r3, [pc, #76]	@ (8003794 <HAL_ADC_MspInit+0x70>)
 8003746:	699b      	ldr	r3, [r3, #24]
 8003748:	4a12      	ldr	r2, [pc, #72]	@ (8003794 <HAL_ADC_MspInit+0x70>)
 800374a:	f443 7300 	orr.w	r3, r3, #512	@ 0x200
 800374e:	6193      	str	r3, [r2, #24]
 8003750:	4b10      	ldr	r3, [pc, #64]	@ (8003794 <HAL_ADC_MspInit+0x70>)
 8003752:	699b      	ldr	r3, [r3, #24]
 8003754:	f403 7300 	and.w	r3, r3, #512	@ 0x200
 8003758:	60fb      	str	r3, [r7, #12]
 800375a:	68fb      	ldr	r3, [r7, #12]

    __HAL_RCC_GPIOA_CLK_ENABLE();
 800375c:	4b0d      	ldr	r3, [pc, #52]	@ (8003794 <HAL_ADC_MspInit+0x70>)
 800375e:	699b      	ldr	r3, [r3, #24]
 8003760:	4a0c      	ldr	r2, [pc, #48]	@ (8003794 <HAL_ADC_MspInit+0x70>)
 8003762:	f043 0304 	orr.w	r3, r3, #4
 8003766:	6193      	str	r3, [r2, #24]
 8003768:	4b0a      	ldr	r3, [pc, #40]	@ (8003794 <HAL_ADC_MspInit+0x70>)
 800376a:	699b      	ldr	r3, [r3, #24]
 800376c:	f003 0304 	and.w	r3, r3, #4
 8003770:	60bb      	str	r3, [r7, #8]
 8003772:	68bb      	ldr	r3, [r7, #8]
    PA2     ------> ADC1_IN2
    PA3     ------> ADC1_IN3
    PA4     ------> ADC1_IN4
    PA5     ------> ADC1_IN5
    */
    GPIO_InitStruct.Pin = GPIO_PIN_0|GPIO_PIN_1|GPIO_PIN_2|GPIO_PIN_3
 8003774:	233f      	movs	r3, #63	@ 0x3f
 8003776:	613b      	str	r3, [r7, #16]
                          |GPIO_PIN_4|GPIO_PIN_5;
    GPIO_InitStruct.Mode = GPIO_MODE_ANALOG;
 8003778:	2303      	movs	r3, #3
 800377a:	617b      	str	r3, [r7, #20]
    HAL_GPIO_Init(GPIOA, &GPIO_InitStruct);
 800377c:	f107 0310 	add.w	r3, r7, #16
 8003780:	4619      	mov	r1, r3
 8003782:	4805      	ldr	r0, [pc, #20]	@ (8003798 <HAL_ADC_MspInit+0x74>)
 8003784:	f001 f8cc 	bl	8004920 <HAL_GPIO_Init>

    /* USER CODE END ADC1_MspInit 1 */

  }

}
 8003788:	bf00      	nop
 800378a:	3720      	adds	r7, #32
 800378c:	46bd      	mov	sp, r7
 800378e:	bd80      	pop	{r7, pc}
 8003790:	40012400 	.word	0x40012400
 8003794:	40021000 	.word	0x40021000
 8003798:	40010800 	.word	0x40010800

0800379c <HAL_I2C_MspInit>:
  * This function configures the hardware resources used in this example
  * @param hi2c: I2C handle pointer
  * @retval None
  */
void HAL_I2C_MspInit(I2C_HandleTypeDef* hi2c)
{
 800379c:	b580      	push	{r7, lr}
 800379e:	b088      	sub	sp, #32
 80037a0:	af00      	add	r7, sp, #0
 80037a2:	6078      	str	r0, [r7, #4]
  GPIO_InitTypeDef GPIO_InitStruct = {0};
 80037a4:	f107 0310 	add.w	r3, r7, #16
 80037a8:	2200      	movs	r2, #0
 80037aa:	601a      	str	r2, [r3, #0]
 80037ac:	605a      	str	r2, [r3, #4]
 80037ae:	609a      	str	r2, [r3, #8]
 80037b0:	60da      	str	r2, [r3, #12]
  if(hi2c->Instance==I2C2)
 80037b2:	687b      	ldr	r3, [r7, #4]
 80037b4:	681b      	ldr	r3, [r3, #0]
 80037b6:	4a16      	ldr	r2, [pc, #88]	@ (8003810 <HAL_I2C_MspInit+0x74>)
 80037b8:	4293      	cmp	r3, r2
 80037ba:	d124      	bne.n	8003806 <HAL_I2C_MspInit+0x6a>
  {
    /* USER CODE BEGIN I2C2_MspInit 0 */

    /* USER CODE END I2C2_MspInit 0 */

    __HAL_RCC_GPIOB_CLK_ENABLE();
 80037bc:	4b15      	ldr	r3, [pc, #84]	@ (8003814 <HAL_I2C_MspInit+0x78>)
 80037be:	699b      	ldr	r3, [r3, #24]
 80037c0:	4a14      	ldr	r2, [pc, #80]	@ (8003814 <HAL_I2C_MspInit+0x78>)
 80037c2:	f043 0308 	orr.w	r3, r3, #8
 80037c6:	6193      	str	r3, [r2, #24]
 80037c8:	4b12      	ldr	r3, [pc, #72]	@ (8003814 <HAL_I2C_MspInit+0x78>)
 80037ca:	699b      	ldr	r3, [r3, #24]
 80037cc:	f003 0308 	and.w	r3, r3, #8
 80037d0:	60fb      	str	r3, [r7, #12]
 80037d2:	68fb      	ldr	r3, [r7, #12]
    /**I2C2 GPIO Configuration
    PB10     ------> I2C2_SCL
    PB11     ------> I2C2_SDA
    */
    GPIO_InitStruct.Pin = GPIO_PIN_10|GPIO_PIN_11;
 80037d4:	f44f 6340 	mov.w	r3, #3072	@ 0xc00
 80037d8:	613b      	str	r3, [r7, #16]
    GPIO_InitStruct.Mode = GPIO_MODE_AF_OD;
 80037da:	2312      	movs	r3, #18
 80037dc:	617b      	str	r3, [r7, #20]
    GPIO_InitStruct.Speed = GPIO_SPEED_FREQ_HIGH;
 80037de:	2303      	movs	r3, #3
 80037e0:	61fb      	str	r3, [r7, #28]
    HAL_GPIO_Init(GPIOB, &GPIO_InitStruct);
 80037e2:	f107 0310 	add.w	r3, r7, #16
 80037e6:	4619      	mov	r1, r3
 80037e8:	480b      	ldr	r0, [pc, #44]	@ (8003818 <HAL_I2C_MspInit+0x7c>)
 80037ea:	f001 f899 	bl	8004920 <HAL_GPIO_Init>

    /* Peripheral clock enable */
    __HAL_RCC_I2C2_CLK_ENABLE();
 80037ee:	4b09      	ldr	r3, [pc, #36]	@ (8003814 <HAL_I2C_MspInit+0x78>)
 80037f0:	69db      	ldr	r3, [r3, #28]
 80037f2:	4a08      	ldr	r2, [pc, #32]	@ (8003814 <HAL_I2C_MspInit+0x78>)
 80037f4:	f443 0380 	orr.w	r3, r3, #4194304	@ 0x400000
 80037f8:	61d3      	str	r3, [r2, #28]
 80037fa:	4b06      	ldr	r3, [pc, #24]	@ (8003814 <HAL_I2C_MspInit+0x78>)
 80037fc:	69db      	ldr	r3, [r3, #28]
 80037fe:	f403 0380 	and.w	r3, r3, #4194304	@ 0x400000
 8003802:	60bb      	str	r3, [r7, #8]
 8003804:	68bb      	ldr	r3, [r7, #8]

    /* USER CODE END I2C2_MspInit 1 */

  }

}
 8003806:	bf00      	nop
 8003808:	3720      	adds	r7, #32
 800380a:	46bd      	mov	sp, r7
 800380c:	bd80      	pop	{r7, pc}
 800380e:	bf00      	nop
 8003810:	40005800 	.word	0x40005800
 8003814:	40021000 	.word	0x40021000
 8003818:	40010c00 	.word	0x40010c00

0800381c <HAL_SPI_MspInit>:
  * This function configures the hardware resources used in this example
  * @param hspi: SPI handle pointer
  * @retval None
  */
void HAL_SPI_MspInit(SPI_HandleTypeDef* hspi)
{
 800381c:	b580      	push	{r7, lr}
 800381e:	b08a      	sub	sp, #40	@ 0x28
 8003820:	af00      	add	r7, sp, #0
 8003822:	6078      	str	r0, [r7, #4]
  GPIO_InitTypeDef GPIO_InitStruct = {0};
 8003824:	f107 0314 	add.w	r3, r7, #20
 8003828:	2200      	movs	r2, #0
 800382a:	601a      	str	r2, [r3, #0]
 800382c:	605a      	str	r2, [r3, #4]
 800382e:	609a      	str	r2, [r3, #8]
 8003830:	60da      	str	r2, [r3, #12]
  if(hspi->Instance==SPI1)
 8003832:	687b      	ldr	r3, [r7, #4]
 8003834:	681b      	ldr	r3, [r3, #0]
 8003836:	4a22      	ldr	r2, [pc, #136]	@ (80038c0 <HAL_SPI_MspInit+0xa4>)
 8003838:	4293      	cmp	r3, r2
 800383a:	d13d      	bne.n	80038b8 <HAL_SPI_MspInit+0x9c>
  {
    /* USER CODE BEGIN SPI1_MspInit 0 */

    /* USER CODE END SPI1_MspInit 0 */
    /* Peripheral clock enable */
    __HAL_RCC_SPI1_CLK_ENABLE();
 800383c:	4b21      	ldr	r3, [pc, #132]	@ (80038c4 <HAL_SPI_MspInit+0xa8>)
 800383e:	699b      	ldr	r3, [r3, #24]
 8003840:	4a20      	ldr	r2, [pc, #128]	@ (80038c4 <HAL_SPI_MspInit+0xa8>)
 8003842:	f443 5380 	orr.w	r3, r3, #4096	@ 0x1000
 8003846:	6193      	str	r3, [r2, #24]
 8003848:	4b1e      	ldr	r3, [pc, #120]	@ (80038c4 <HAL_SPI_MspInit+0xa8>)
 800384a:	699b      	ldr	r3, [r3, #24]
 800384c:	f403 5380 	and.w	r3, r3, #4096	@ 0x1000
 8003850:	613b      	str	r3, [r7, #16]
 8003852:	693b      	ldr	r3, [r7, #16]

    __HAL_RCC_GPIOB_CLK_ENABLE();
 8003854:	4b1b      	ldr	r3, [pc, #108]	@ (80038c4 <HAL_SPI_MspInit+0xa8>)
 8003856:	699b      	ldr	r3, [r3, #24]
 8003858:	4a1a      	ldr	r2, [pc, #104]	@ (80038c4 <HAL_SPI_MspInit+0xa8>)
 800385a:	f043 0308 	orr.w	r3, r3, #8
 800385e:	6193      	str	r3, [r2, #24]
 8003860:	4b18      	ldr	r3, [pc, #96]	@ (80038c4 <HAL_SPI_MspInit+0xa8>)
 8003862:	699b      	ldr	r3, [r3, #24]
 8003864:	f003 0308 	and.w	r3, r3, #8
 8003868:	60fb      	str	r3, [r7, #12]
 800386a:	68fb      	ldr	r3, [r7, #12]
    /**SPI1 GPIO Configuration
    PB3     ------> SPI1_SCK
    PB4     ------> SPI1_MISO
    PB5     ------> SPI1_MOSI
    */
    GPIO_InitStruct.Pin = GPIO_PIN_3|GPIO_PIN_5;
 800386c:	2328      	movs	r3, #40	@ 0x28
 800386e:	617b      	str	r3, [r7, #20]
    GPIO_InitStruct.Mode = GPIO_MODE_AF_PP;
 8003870:	2302      	movs	r3, #2
 8003872:	61bb      	str	r3, [r7, #24]
    GPIO_InitStruct.Speed = GPIO_SPEED_FREQ_HIGH;
 8003874:	2303      	movs	r3, #3
 8003876:	623b      	str	r3, [r7, #32]
    HAL_GPIO_Init(GPIOB, &GPIO_InitStruct);
 8003878:	f107 0314 	add.w	r3, r7, #20
 800387c:	4619      	mov	r1, r3
 800387e:	4812      	ldr	r0, [pc, #72]	@ (80038c8 <HAL_SPI_MspInit+0xac>)
 8003880:	f001 f84e 	bl	8004920 <HAL_GPIO_Init>

    GPIO_InitStruct.Pin = GPIO_PIN_4;
 8003884:	2310      	movs	r3, #16
 8003886:	617b      	str	r3, [r7, #20]
    GPIO_InitStruct.Mode = GPIO_MODE_INPUT;
 8003888:	2300      	movs	r3, #0
 800388a:	61bb      	str	r3, [r7, #24]
    GPIO_InitStruct.Pull = GPIO_NOPULL;
 800388c:	2300      	movs	r3, #0
 800388e:	61fb      	str	r3, [r7, #28]
    HAL_GPIO_Init(GPIOB, &GPIO_InitStruct);
 8003890:	f107 0314 	add.w	r3, r7, #20
 8003894:	4619      	mov	r1, r3
 8003896:	480c      	ldr	r0, [pc, #48]	@ (80038c8 <HAL_SPI_MspInit+0xac>)
 8003898:	f001 f842 	bl	8004920 <HAL_GPIO_Init>

    __HAL_AFIO_REMAP_SPI1_ENABLE();
 800389c:	4b0b      	ldr	r3, [pc, #44]	@ (80038cc <HAL_SPI_MspInit+0xb0>)
 800389e:	685b      	ldr	r3, [r3, #4]
 80038a0:	627b      	str	r3, [r7, #36]	@ 0x24
 80038a2:	6a7b      	ldr	r3, [r7, #36]	@ 0x24
 80038a4:	f043 63e0 	orr.w	r3, r3, #117440512	@ 0x7000000
 80038a8:	627b      	str	r3, [r7, #36]	@ 0x24
 80038aa:	6a7b      	ldr	r3, [r7, #36]	@ 0x24
 80038ac:	f043 0301 	orr.w	r3, r3, #1
 80038b0:	627b      	str	r3, [r7, #36]	@ 0x24
 80038b2:	4a06      	ldr	r2, [pc, #24]	@ (80038cc <HAL_SPI_MspInit+0xb0>)
 80038b4:	6a7b      	ldr	r3, [r7, #36]	@ 0x24
 80038b6:	6053      	str	r3, [r2, #4]

    /* USER CODE END SPI1_MspInit 1 */

  }

}
 80038b8:	bf00      	nop
 80038ba:	3728      	adds	r7, #40	@ 0x28
 80038bc:	46bd      	mov	sp, r7
 80038be:	bd80      	pop	{r7, pc}
 80038c0:	40013000 	.word	0x40013000
 80038c4:	40021000 	.word	0x40021000
 80038c8:	40010c00 	.word	0x40010c00
 80038cc:	40010000 	.word	0x40010000

080038d0 <HAL_UART_MspInit>:
  * This function configures the hardware resources used in this example
  * @param huart: UART handle pointer
  * @retval None
  */
void HAL_UART_MspInit(UART_HandleTypeDef* huart)
{
 80038d0:	b580      	push	{r7, lr}
 80038d2:	b088      	sub	sp, #32
 80038d4:	af00      	add	r7, sp, #0
 80038d6:	6078      	str	r0, [r7, #4]
  GPIO_InitTypeDef GPIO_InitStruct = {0};
 80038d8:	f107 0310 	add.w	r3, r7, #16
 80038dc:	2200      	movs	r2, #0
 80038de:	601a      	str	r2, [r3, #0]
 80038e0:	605a      	str	r2, [r3, #4]
 80038e2:	609a      	str	r2, [r3, #8]
 80038e4:	60da      	str	r2, [r3, #12]
  if(huart->Instance==USART1)
 80038e6:	687b      	ldr	r3, [r7, #4]
 80038e8:	681b      	ldr	r3, [r3, #0]
 80038ea:	4a1c      	ldr	r2, [pc, #112]	@ (800395c <HAL_UART_MspInit+0x8c>)
 80038ec:	4293      	cmp	r3, r2
 80038ee:	d131      	bne.n	8003954 <HAL_UART_MspInit+0x84>
  {
    /* USER CODE BEGIN USART1_MspInit 0 */

    /* USER CODE END USART1_MspInit 0 */
    /* Peripheral clock enable */
    __HAL_RCC_USART1_CLK_ENABLE();
 80038f0:	4b1b      	ldr	r3, [pc, #108]	@ (8003960 <HAL_UART_MspInit+0x90>)
 80038f2:	699b      	ldr	r3, [r3, #24]
 80038f4:	4a1a      	ldr	r2, [pc, #104]	@ (8003960 <HAL_UART_MspInit+0x90>)
 80038f6:	f443 4380 	orr.w	r3, r3, #16384	@ 0x4000
 80038fa:	6193      	str	r3, [r2, #24]
 80038fc:	4b18      	ldr	r3, [pc, #96]	@ (8003960 <HAL_UART_MspInit+0x90>)
 80038fe:	699b      	ldr	r3, [r3, #24]
 8003900:	f403 4380 	and.w	r3, r3, #16384	@ 0x4000
 8003904:	60fb      	str	r3, [r7, #12]
 8003906:	68fb      	ldr	r3, [r7, #12]

    __HAL_RCC_GPIOA_CLK_ENABLE();
 8003908:	4b15      	ldr	r3, [pc, #84]	@ (8003960 <HAL_UART_MspInit+0x90>)
 800390a:	699b      	ldr	r3, [r3, #24]
 800390c:	4a14      	ldr	r2, [pc, #80]	@ (8003960 <HAL_UART_MspInit+0x90>)
 800390e:	f043 0304 	orr.w	r3, r3, #4
 8003912:	6193      	str	r3, [r2, #24]
 8003914:	4b12      	ldr	r3, [pc, #72]	@ (8003960 <HAL_UART_MspInit+0x90>)
 8003916:	699b      	ldr	r3, [r3, #24]
 8003918:	f003 0304 	and.w	r3, r3, #4
 800391c:	60bb      	str	r3, [r7, #8]
 800391e:	68bb      	ldr	r3, [r7, #8]
    /**USART1 GPIO Configuration
    PA9     ------> USART1_TX
    PA10     ------> USART1_RX
    */
    GPIO_InitStruct.Pin = GPIO_PIN_9;
 8003920:	f44f 7300 	mov.w	r3, #512	@ 0x200
 8003924:	613b      	str	r3, [r7, #16]
    GPIO_InitStruct.Mode = GPIO_MODE_AF_PP;
 8003926:	2302      	movs	r3, #2
 8003928:	617b      	str	r3, [r7, #20]
    GPIO_InitStruct.Speed = GPIO_SPEED_FREQ_HIGH;
 800392a:	2303      	movs	r3, #3
 800392c:	61fb      	str	r3, [r7, #28]
    HAL_GPIO_Init(GPIOA, &GPIO_InitStruct);
 800392e:	f107 0310 	add.w	r3, r7, #16
 8003932:	4619      	mov	r1, r3
 8003934:	480b      	ldr	r0, [pc, #44]	@ (8003964 <HAL_UART_MspInit+0x94>)
 8003936:	f000 fff3 	bl	8004920 <HAL_GPIO_Init>

    GPIO_InitStruct.Pin = GPIO_PIN_10;
 800393a:	f44f 6380 	mov.w	r3, #1024	@ 0x400
 800393e:	613b      	str	r3, [r7, #16]
    GPIO_InitStruct.Mode = GPIO_MODE_INPUT;
 8003940:	2300      	movs	r3, #0
 8003942:	617b      	str	r3, [r7, #20]
    GPIO_InitStruct.Pull = GPIO_NOPULL;
 8003944:	2300      	movs	r3, #0
 8003946:	61bb      	str	r3, [r7, #24]
    HAL_GPIO_Init(GPIOA, &GPIO_InitStruct);
 8003948:	f107 0310 	add.w	r3, r7, #16
 800394c:	4619      	mov	r1, r3
 800394e:	4805      	ldr	r0, [pc, #20]	@ (8003964 <HAL_UART_MspInit+0x94>)
 8003950:	f000 ffe6 	bl	8004920 <HAL_GPIO_Init>

    /* USER CODE END USART1_MspInit 1 */

  }

}
 8003954:	bf00      	nop
 8003956:	3720      	adds	r7, #32
 8003958:	46bd      	mov	sp, r7
 800395a:	bd80      	pop	{r7, pc}
 800395c:	40013800 	.word	0x40013800
 8003960:	40021000 	.word	0x40021000
 8003964:	40010800 	.word	0x40010800

08003968 <NMI_Handler>:
/******************************************************************************/
/**
  * @brief This function handles Non maskable interrupt.
  */
void NMI_Handler(void)
{
 8003968:	b480      	push	{r7}
 800396a:	af00      	add	r7, sp, #0
  /* USER CODE BEGIN NonMaskableInt_IRQn 0 */

  /* USER CODE END NonMaskableInt_IRQn 0 */
  /* USER CODE BEGIN NonMaskableInt_IRQn 1 */
   while (1)
 800396c:	bf00      	nop
 800396e:	e7fd      	b.n	800396c <NMI_Handler+0x4>

08003970 <HardFault_Handler>:

/**
  * @brief This function handles Hard fault interrupt.
  */
void HardFault_Handler(void)
{
 8003970:	b480      	push	{r7}
 8003972:	af00      	add	r7, sp, #0
  /* USER CODE BEGIN HardFault_IRQn 0 */

  /* USER CODE END HardFault_IRQn 0 */
  while (1)
 8003974:	bf00      	nop
 8003976:	e7fd      	b.n	8003974 <HardFault_Handler+0x4>

08003978 <MemManage_Handler>:

/**
  * @brief This function handles Memory management fault.
  */
void MemManage_Handler(void)
{
 8003978:	b480      	push	{r7}
 800397a:	af00      	add	r7, sp, #0
  /* USER CODE BEGIN MemoryManagement_IRQn 0 */

  /* USER CODE END MemoryManagement_IRQn 0 */
  while (1)
 800397c:	bf00      	nop
 800397e:	e7fd      	b.n	800397c <MemManage_Handler+0x4>

08003980 <BusFault_Handler>:

/**
  * @brief This function handles Prefetch fault, memory access fault.
  */
void BusFault_Handler(void)
{
 8003980:	b480      	push	{r7}
 8003982:	af00      	add	r7, sp, #0
  /* USER CODE BEGIN BusFault_IRQn 0 */

  /* USER CODE END BusFault_IRQn 0 */
  while (1)
 8003984:	bf00      	nop
 8003986:	e7fd      	b.n	8003984 <BusFault_Handler+0x4>

08003988 <UsageFault_Handler>:

/**
  * @brief This function handles Undefined instruction or illegal state.
  */
void UsageFault_Handler(void)
{
 8003988:	b480      	push	{r7}
 800398a:	af00      	add	r7, sp, #0
  /* USER CODE BEGIN UsageFault_IRQn 0 */

  /* USER CODE END UsageFault_IRQn 0 */
  while (1)
 800398c:	bf00      	nop
 800398e:	e7fd      	b.n	800398c <UsageFault_Handler+0x4>

08003990 <SVC_Handler>:

/**
  * @brief This function handles System service call via SWI instruction.
  */
void SVC_Handler(void)
{
 8003990:	b480      	push	{r7}
 8003992:	af00      	add	r7, sp, #0

  /* USER CODE END SVCall_IRQn 0 */
  /* USER CODE BEGIN SVCall_IRQn 1 */

  /* USER CODE END SVCall_IRQn 1 */
}
 8003994:	bf00      	nop
 8003996:	46bd      	mov	sp, r7
 8003998:	bc80      	pop	{r7}
 800399a:	4770      	bx	lr

0800399c <DebugMon_Handler>:

/**
  * @brief This function handles Debug monitor.
  */
void DebugMon_Handler(void)
{
 800399c:	b480      	push	{r7}
 800399e:	af00      	add	r7, sp, #0

  /* USER CODE END DebugMonitor_IRQn 0 */
  /* USER CODE BEGIN DebugMonitor_IRQn 1 */

  /* USER CODE END DebugMonitor_IRQn 1 */
}
 80039a0:	bf00      	nop
 80039a2:	46bd      	mov	sp, r7
 80039a4:	bc80      	pop	{r7}
 80039a6:	4770      	bx	lr

080039a8 <PendSV_Handler>:

/**
  * @brief This function handles Pendable request for system service.
  */
void PendSV_Handler(void)
{
 80039a8:	b480      	push	{r7}
 80039aa:	af00      	add	r7, sp, #0

  /* USER CODE END PendSV_IRQn 0 */
  /* USER CODE BEGIN PendSV_IRQn 1 */

  /* USER CODE END PendSV_IRQn 1 */
}
 80039ac:	bf00      	nop
 80039ae:	46bd      	mov	sp, r7
 80039b0:	bc80      	pop	{r7}
 80039b2:	4770      	bx	lr

080039b4 <SysTick_Handler>:

/**
  * @brief This function handles System tick timer.
  */
void SysTick_Handler(void)
{
 80039b4:	b580      	push	{r7, lr}
 80039b6:	af00      	add	r7, sp, #0
  /* USER CODE BEGIN SysTick_IRQn 0 */

  /* USER CODE END SysTick_IRQn 0 */
  HAL_IncTick();
 80039b8:	f000 f988 	bl	8003ccc <HAL_IncTick>
  /* USER CODE BEGIN SysTick_IRQn 1 */

  /* USER CODE END SysTick_IRQn 1 */
}
 80039bc:	bf00      	nop
 80039be:	bd80      	pop	{r7, pc}

080039c0 <RTC_Alarm_IRQHandler>:

/**
  * @brief This function handles RTC alarm interrupt through EXTI line 17.
  */
void RTC_Alarm_IRQHandler(void)
{
 80039c0:	b580      	push	{r7, lr}
 80039c2:	af00      	add	r7, sp, #0
  /* USER CODE BEGIN RTC_Alarm_IRQn 0 */

  /* USER CODE END RTC_Alarm_IRQn 0 */
  HAL_RTC_AlarmIRQHandler(&hrtc);
 80039c4:	4802      	ldr	r0, [pc, #8]	@ (80039d0 <RTC_Alarm_IRQHandler+0x10>)
 80039c6:	f002 ff55 	bl	8006874 <HAL_RTC_AlarmIRQHandler>
  /* USER CODE BEGIN RTC_Alarm_IRQn 1 */

  /* USER CODE END RTC_Alarm_IRQn 1 */
}
 80039ca:	bf00      	nop
 80039cc:	bd80      	pop	{r7, pc}
 80039ce:	bf00      	nop
 80039d0:	20000238 	.word	0x20000238

080039d4 <now_ms>:
static GPIO_PinState last_raw[SWITCH_COUNT];       // last sampled raw pin

static uint32_t      press_start_ms[SWITCH_COUNT]; // for long press
static bool          long_fired[SWITCH_COUNT];

static inline uint32_t now_ms(void) { return HAL_GetTick(); }
 80039d4:	b580      	push	{r7, lr}
 80039d6:	af00      	add	r7, sp, #0
 80039d8:	f000 f98a 	bl	8003cf0 <HAL_GetTick>
 80039dc:	4603      	mov	r3, r0
 80039de:	4618      	mov	r0, r3
 80039e0:	bd80      	pop	{r7, pc}
	...

080039e4 <Switches_Init>:
    }
}

/* --- Init all switches as input pullup --- */
void Switches_Init(void)
{
 80039e4:	b580      	push	{r7, lr}
 80039e6:	b086      	sub	sp, #24
 80039e8:	af00      	add	r7, sp, #0
    GPIO_InitTypeDef GPIO_InitStruct = {0};
 80039ea:	1d3b      	adds	r3, r7, #4
 80039ec:	2200      	movs	r2, #0
 80039ee:	601a      	str	r2, [r3, #0]
 80039f0:	605a      	str	r2, [r3, #4]
 80039f2:	609a      	str	r2, [r3, #8]
 80039f4:	60da      	str	r2, [r3, #12]
    __HAL_RCC_GPIOB_CLK_ENABLE();
 80039f6:	4b20      	ldr	r3, [pc, #128]	@ (8003a78 <Switches_Init+0x94>)
 80039f8:	699b      	ldr	r3, [r3, #24]
 80039fa:	4a1f      	ldr	r2, [pc, #124]	@ (8003a78 <Switches_Init+0x94>)
 80039fc:	f043 0308 	orr.w	r3, r3, #8
 8003a00:	6193      	str	r3, [r2, #24]
 8003a02:	4b1d      	ldr	r3, [pc, #116]	@ (8003a78 <Switches_Init+0x94>)
 8003a04:	699b      	ldr	r3, [r3, #24]
 8003a06:	f003 0308 	and.w	r3, r3, #8
 8003a0a:	603b      	str	r3, [r7, #0]
 8003a0c:	683b      	ldr	r3, [r7, #0]

    GPIO_InitStruct.Mode = GPIO_MODE_INPUT;
 8003a0e:	2300      	movs	r3, #0
 8003a10:	60bb      	str	r3, [r7, #8]
    GPIO_InitStruct.Pull = GPIO_PULLUP;
 8003a12:	2301      	movs	r3, #1
 8003a14:	60fb      	str	r3, [r7, #12]
    GPIO_InitStruct.Pin  = SWITCH1_Pin|SWITCH2_Pin|SWITCH3_Pin|SWITCH4_Pin;
 8003a16:	f44f 4370 	mov.w	r3, #61440	@ 0xf000
 8003a1a:	607b      	str	r3, [r7, #4]
    HAL_GPIO_Init(SWITCH1_GPIO_Port, &GPIO_InitStruct);
 8003a1c:	1d3b      	adds	r3, r7, #4
 8003a1e:	4619      	mov	r1, r3
 8003a20:	4816      	ldr	r0, [pc, #88]	@ (8003a7c <Switches_Init+0x98>)
 8003a22:	f000 ff7d 	bl	8004920 <HAL_GPIO_Init>

    for (int i = 0; i < SWITCH_COUNT; ++i) {
 8003a26:	2300      	movs	r3, #0
 8003a28:	617b      	str	r3, [r7, #20]
 8003a2a:	e01d      	b.n	8003a68 <Switches_Init+0x84>
        stable_state[i]   = GPIO_PIN_SET;  // released
 8003a2c:	4a14      	ldr	r2, [pc, #80]	@ (8003a80 <Switches_Init+0x9c>)
 8003a2e:	697b      	ldr	r3, [r7, #20]
 8003a30:	4413      	add	r3, r2
 8003a32:	2201      	movs	r2, #1
 8003a34:	701a      	strb	r2, [r3, #0]
        last_raw[i]       = GPIO_PIN_SET;
 8003a36:	4a13      	ldr	r2, [pc, #76]	@ (8003a84 <Switches_Init+0xa0>)
 8003a38:	697b      	ldr	r3, [r7, #20]
 8003a3a:	4413      	add	r3, r2
 8003a3c:	2201      	movs	r2, #1
 8003a3e:	701a      	strb	r2, [r3, #0]
        last_change[i]    = now_ms();
 8003a40:	f7ff ffc8 	bl	80039d4 <now_ms>
 8003a44:	4602      	mov	r2, r0
 8003a46:	4910      	ldr	r1, [pc, #64]	@ (8003a88 <Switches_Init+0xa4>)
 8003a48:	697b      	ldr	r3, [r7, #20]
 8003a4a:	f841 2023 	str.w	r2, [r1, r3, lsl #2]
        press_start_ms[i] = 0;
 8003a4e:	4a0f      	ldr	r2, [pc, #60]	@ (8003a8c <Switches_Init+0xa8>)
 8003a50:	697b      	ldr	r3, [r7, #20]
 8003a52:	2100      	movs	r1, #0
 8003a54:	f842 1023 	str.w	r1, [r2, r3, lsl #2]
        long_fired[i]     = false;
 8003a58:	4a0d      	ldr	r2, [pc, #52]	@ (8003a90 <Switches_Init+0xac>)
 8003a5a:	697b      	ldr	r3, [r7, #20]
 8003a5c:	4413      	add	r3, r2
 8003a5e:	2200      	movs	r2, #0
 8003a60:	701a      	strb	r2, [r3, #0]
    for (int i = 0; i < SWITCH_COUNT; ++i) {
 8003a62:	697b      	ldr	r3, [r7, #20]
 8003a64:	3301      	adds	r3, #1
 8003a66:	617b      	str	r3, [r7, #20]
 8003a68:	697b      	ldr	r3, [r7, #20]
 8003a6a:	2b03      	cmp	r3, #3
 8003a6c:	ddde      	ble.n	8003a2c <Switches_Init+0x48>
    }
}
 8003a6e:	bf00      	nop
 8003a70:	bf00      	nop
 8003a72:	3718      	adds	r7, #24
 8003a74:	46bd      	mov	sp, r7
 8003a76:	bd80      	pop	{r7, pc}
 8003a78:	40021000 	.word	0x40021000
 8003a7c:	40010c00 	.word	0x40010c00
 8003a80:	200003f4 	.word	0x200003f4
 8003a84:	20000408 	.word	0x20000408
 8003a88:	200003f8 	.word	0x200003f8
 8003a8c:	2000040c 	.word	0x2000040c
 8003a90:	2000041c 	.word	0x2000041c

08003a94 <_sbrk>:
 *
 * @param incr Memory size
 * @return Pointer to allocated memory
 */
void *_sbrk(ptrdiff_t incr)
{
 8003a94:	b580      	push	{r7, lr}
 8003a96:	b086      	sub	sp, #24
 8003a98:	af00      	add	r7, sp, #0
 8003a9a:	6078      	str	r0, [r7, #4]
  extern uint8_t _end; /* Symbol defined in the linker script */
  extern uint8_t _estack; /* Symbol defined in the linker script */
  extern uint32_t _Min_Stack_Size; /* Symbol defined in the linker script */
  const uint32_t stack_limit = (uint32_t)&_estack - (uint32_t)&_Min_Stack_Size;
 8003a9c:	4a14      	ldr	r2, [pc, #80]	@ (8003af0 <_sbrk+0x5c>)
 8003a9e:	4b15      	ldr	r3, [pc, #84]	@ (8003af4 <_sbrk+0x60>)
 8003aa0:	1ad3      	subs	r3, r2, r3
 8003aa2:	617b      	str	r3, [r7, #20]
  const uint8_t *max_heap = (uint8_t *)stack_limit;
 8003aa4:	697b      	ldr	r3, [r7, #20]
 8003aa6:	613b      	str	r3, [r7, #16]
  uint8_t *prev_heap_end;

  /* Initialize heap end at first call */
  if (NULL == __sbrk_heap_end)
 8003aa8:	4b13      	ldr	r3, [pc, #76]	@ (8003af8 <_sbrk+0x64>)
 8003aaa:	681b      	ldr	r3, [r3, #0]
 8003aac:	2b00      	cmp	r3, #0
 8003aae:	d102      	bne.n	8003ab6 <_sbrk+0x22>
  {
    __sbrk_heap_end = &_end;
 8003ab0:	4b11      	ldr	r3, [pc, #68]	@ (8003af8 <_sbrk+0x64>)
 8003ab2:	4a12      	ldr	r2, [pc, #72]	@ (8003afc <_sbrk+0x68>)
 8003ab4:	601a      	str	r2, [r3, #0]
  }

  /* Protect heap from growing into the reserved MSP stack */
  if (__sbrk_heap_end + incr > max_heap)
 8003ab6:	4b10      	ldr	r3, [pc, #64]	@ (8003af8 <_sbrk+0x64>)
 8003ab8:	681a      	ldr	r2, [r3, #0]
 8003aba:	687b      	ldr	r3, [r7, #4]
 8003abc:	4413      	add	r3, r2
 8003abe:	693a      	ldr	r2, [r7, #16]
 8003ac0:	429a      	cmp	r2, r3
 8003ac2:	d207      	bcs.n	8003ad4 <_sbrk+0x40>
  {
    errno = ENOMEM;
 8003ac4:	f003 ff96 	bl	80079f4 <__errno>
 8003ac8:	4603      	mov	r3, r0
 8003aca:	220c      	movs	r2, #12
 8003acc:	601a      	str	r2, [r3, #0]
    return (void *)-1;
 8003ace:	f04f 33ff 	mov.w	r3, #4294967295
 8003ad2:	e009      	b.n	8003ae8 <_sbrk+0x54>
  }

  prev_heap_end = __sbrk_heap_end;
 8003ad4:	4b08      	ldr	r3, [pc, #32]	@ (8003af8 <_sbrk+0x64>)
 8003ad6:	681b      	ldr	r3, [r3, #0]
 8003ad8:	60fb      	str	r3, [r7, #12]
  __sbrk_heap_end += incr;
 8003ada:	4b07      	ldr	r3, [pc, #28]	@ (8003af8 <_sbrk+0x64>)
 8003adc:	681a      	ldr	r2, [r3, #0]
 8003ade:	687b      	ldr	r3, [r7, #4]
 8003ae0:	4413      	add	r3, r2
 8003ae2:	4a05      	ldr	r2, [pc, #20]	@ (8003af8 <_sbrk+0x64>)
 8003ae4:	6013      	str	r3, [r2, #0]

  return (void *)prev_heap_end;
 8003ae6:	68fb      	ldr	r3, [r7, #12]
}
 8003ae8:	4618      	mov	r0, r3
 8003aea:	3718      	adds	r7, #24
 8003aec:	46bd      	mov	sp, r7
 8003aee:	bd80      	pop	{r7, pc}
 8003af0:	20005000 	.word	0x20005000
 8003af4:	00000400 	.word	0x00000400
 8003af8:	20000420 	.word	0x20000420
 8003afc:	200005b8 	.word	0x200005b8

08003b00 <SystemInit>:
  * @note   This function should be used only after reset.
  * @param  None
  * @retval None
  */
void SystemInit (void)
{
 8003b00:	b480      	push	{r7}
 8003b02:	af00      	add	r7, sp, #0

  /* Configure the Vector Table location -------------------------------------*/
#if defined(USER_VECT_TAB_ADDRESS)
  SCB->VTOR = VECT_TAB_BASE_ADDRESS | VECT_TAB_OFFSET; /* Vector Table Relocation in Internal SRAM. */
#endif /* USER_VECT_TAB_ADDRESS */
}
 8003b04:	bf00      	nop
 8003b06:	46bd      	mov	sp, r7
 8003b08:	bc80      	pop	{r7}
 8003b0a:	4770      	bx	lr

08003b0c <UART_Init>:

/**
  * @brief Initialize UART reception (interrupt mode, one byte at a time).
  */
void UART_Init(void)
{
 8003b0c:	b580      	push	{r7, lr}
 8003b0e:	af00      	add	r7, sp, #0
    // Clear the buffer and reset index
    memset(rxBuffer, 0, sizeof(rxBuffer));
 8003b10:	2240      	movs	r2, #64	@ 0x40
 8003b12:	2100      	movs	r1, #0
 8003b14:	4807      	ldr	r0, [pc, #28]	@ (8003b34 <UART_Init+0x28>)
 8003b16:	f003 ff51 	bl	80079bc <memset>
    rxIndex = 0;
 8003b1a:	4b07      	ldr	r3, [pc, #28]	@ (8003b38 <UART_Init+0x2c>)
 8003b1c:	2200      	movs	r2, #0
 8003b1e:	801a      	strh	r2, [r3, #0]
    packetReady = false;
 8003b20:	4b06      	ldr	r3, [pc, #24]	@ (8003b3c <UART_Init+0x30>)
 8003b22:	2200      	movs	r2, #0
 8003b24:	701a      	strb	r2, [r3, #0]

    // Start UART reception (non-blocking)
    HAL_UART_Receive_IT(&huart1, &rxByte, 1);
 8003b26:	2201      	movs	r2, #1
 8003b28:	4905      	ldr	r1, [pc, #20]	@ (8003b40 <UART_Init+0x34>)
 8003b2a:	4806      	ldr	r0, [pc, #24]	@ (8003b44 <UART_Init+0x38>)
 8003b2c:	f003 fd46 	bl	80075bc <HAL_UART_Receive_IT>
}
 8003b30:	bf00      	nop
 8003b32:	bd80      	pop	{r7, pc}
 8003b34:	20000428 	.word	0x20000428
 8003b38:	20000468 	.word	0x20000468
 8003b3c:	2000046a 	.word	0x2000046a
 8003b40:	20000424 	.word	0x20000424
 8003b44:	200002a4 	.word	0x200002a4

08003b48 <UART_TransmitString>:

/**
  * @brief Transmit a null-terminated string.
  */
void UART_TransmitString(UART_HandleTypeDef *huart, const char *str)
{
 8003b48:	b580      	push	{r7, lr}
 8003b4a:	b082      	sub	sp, #8
 8003b4c:	af00      	add	r7, sp, #0
 8003b4e:	6078      	str	r0, [r7, #4]
 8003b50:	6039      	str	r1, [r7, #0]
    HAL_UART_Transmit(huart, (uint8_t *)str, strlen(str), HAL_MAX_DELAY);
 8003b52:	6838      	ldr	r0, [r7, #0]
 8003b54:	f7fc fb04 	bl	8000160 <strlen>
 8003b58:	4603      	mov	r3, r0
 8003b5a:	b29a      	uxth	r2, r3
 8003b5c:	f04f 33ff 	mov.w	r3, #4294967295
 8003b60:	6839      	ldr	r1, [r7, #0]
 8003b62:	6878      	ldr	r0, [r7, #4]
 8003b64:	f003 fc9f 	bl	80074a6 <HAL_UART_Transmit>
}
 8003b68:	bf00      	nop
 8003b6a:	3708      	adds	r7, #8
 8003b6c:	46bd      	mov	sp, r7
 8003b6e:	bd80      	pop	{r7, pc}

08003b70 <UART_GetReceivedPacket>:
        HAL_UART_Receive_IT(&huart1, &rxByte, 1);
    }
}

bool UART_GetReceivedPacket(char *buffer, size_t buffer_size)
{
 8003b70:	b580      	push	{r7, lr}
 8003b72:	b084      	sub	sp, #16
 8003b74:	af00      	add	r7, sp, #0
 8003b76:	6078      	str	r0, [r7, #4]
 8003b78:	6039      	str	r1, [r7, #0]
    if (packetReady)
 8003b7a:	4b1b      	ldr	r3, [pc, #108]	@ (8003be8 <UART_GetReceivedPacket+0x78>)
 8003b7c:	781b      	ldrb	r3, [r3, #0]
 8003b7e:	2b00      	cmp	r3, #0
 8003b80:	d02c      	beq.n	8003bdc <UART_GetReceivedPacket+0x6c>
    {
        // Ensure destination buffer is large enough
        size_t len = strlen(rxBuffer);
 8003b82:	481a      	ldr	r0, [pc, #104]	@ (8003bec <UART_GetReceivedPacket+0x7c>)
 8003b84:	f7fc faec 	bl	8000160 <strlen>
 8003b88:	60f8      	str	r0, [r7, #12]
        if (len < buffer_size)
 8003b8a:	68fa      	ldr	r2, [r7, #12]
 8003b8c:	683b      	ldr	r3, [r7, #0]
 8003b8e:	429a      	cmp	r2, r3
 8003b90:	d219      	bcs.n	8003bc6 <UART_GetReceivedPacket+0x56>
        {
            strncpy(buffer, rxBuffer, buffer_size - 1);
 8003b92:	683b      	ldr	r3, [r7, #0]
 8003b94:	3b01      	subs	r3, #1
 8003b96:	461a      	mov	r2, r3
 8003b98:	4914      	ldr	r1, [pc, #80]	@ (8003bec <UART_GetReceivedPacket+0x7c>)
 8003b9a:	6878      	ldr	r0, [r7, #4]
 8003b9c:	f003 ff16 	bl	80079cc <strncpy>
            buffer[buffer_size - 1] = '\0'; // Ensure null-termination
 8003ba0:	683b      	ldr	r3, [r7, #0]
 8003ba2:	3b01      	subs	r3, #1
 8003ba4:	687a      	ldr	r2, [r7, #4]
 8003ba6:	4413      	add	r3, r2
 8003ba8:	2200      	movs	r2, #0
 8003baa:	701a      	strb	r2, [r3, #0]

            // Reset internal buffer for next packet
            memset(rxBuffer, 0, sizeof(rxBuffer));
 8003bac:	2240      	movs	r2, #64	@ 0x40
 8003bae:	2100      	movs	r1, #0
 8003bb0:	480e      	ldr	r0, [pc, #56]	@ (8003bec <UART_GetReceivedPacket+0x7c>)
 8003bb2:	f003 ff03 	bl	80079bc <memset>
            rxIndex = 0;
 8003bb6:	4b0e      	ldr	r3, [pc, #56]	@ (8003bf0 <UART_GetReceivedPacket+0x80>)
 8003bb8:	2200      	movs	r2, #0
 8003bba:	801a      	strh	r2, [r3, #0]
            packetReady = false;
 8003bbc:	4b0a      	ldr	r3, [pc, #40]	@ (8003be8 <UART_GetReceivedPacket+0x78>)
 8003bbe:	2200      	movs	r2, #0
 8003bc0:	701a      	strb	r2, [r3, #0]
            return true;
 8003bc2:	2301      	movs	r3, #1
 8003bc4:	e00b      	b.n	8003bde <UART_GetReceivedPacket+0x6e>
        }
        else
        {
            // Destination buffer too small, discard internal packet
            memset(rxBuffer, 0, sizeof(rxBuffer));
 8003bc6:	2240      	movs	r2, #64	@ 0x40
 8003bc8:	2100      	movs	r1, #0
 8003bca:	4808      	ldr	r0, [pc, #32]	@ (8003bec <UART_GetReceivedPacket+0x7c>)
 8003bcc:	f003 fef6 	bl	80079bc <memset>
            rxIndex = 0;
 8003bd0:	4b07      	ldr	r3, [pc, #28]	@ (8003bf0 <UART_GetReceivedPacket+0x80>)
 8003bd2:	2200      	movs	r2, #0
 8003bd4:	801a      	strh	r2, [r3, #0]
            packetReady = false;
 8003bd6:	4b04      	ldr	r3, [pc, #16]	@ (8003be8 <UART_GetReceivedPacket+0x78>)
 8003bd8:	2200      	movs	r2, #0
 8003bda:	701a      	strb	r2, [r3, #0]
            // Optionally, log an error
        }
    }
    return false; // Ensure to return false if no packet is ready
 8003bdc:	2300      	movs	r3, #0
}
 8003bde:	4618      	mov	r0, r3
 8003be0:	3710      	adds	r7, #16
 8003be2:	46bd      	mov	sp, r7
 8003be4:	bd80      	pop	{r7, pc}
 8003be6:	bf00      	nop
 8003be8:	2000046a 	.word	0x2000046a
 8003bec:	20000428 	.word	0x20000428
 8003bf0:	20000468 	.word	0x20000468

08003bf4 <Reset_Handler>:
  .weak Reset_Handler
  .type Reset_Handler, %function
Reset_Handler:

/* Call the clock system initialization function.*/
    bl  SystemInit
 8003bf4:	f7ff ff84 	bl	8003b00 <SystemInit>

/* Copy the data segment initializers from flash to SRAM */
  ldr r0, =_sdata
 8003bf8:	480b      	ldr	r0, [pc, #44]	@ (8003c28 <LoopFillZerobss+0xe>)
  ldr r1, =_edata
 8003bfa:	490c      	ldr	r1, [pc, #48]	@ (8003c2c <LoopFillZerobss+0x12>)
  ldr r2, =_sidata
 8003bfc:	4a0c      	ldr	r2, [pc, #48]	@ (8003c30 <LoopFillZerobss+0x16>)
  movs r3, #0
 8003bfe:	2300      	movs	r3, #0
  b LoopCopyDataInit
 8003c00:	e002      	b.n	8003c08 <LoopCopyDataInit>

08003c02 <CopyDataInit>:

CopyDataInit:
  ldr r4, [r2, r3]
 8003c02:	58d4      	ldr	r4, [r2, r3]
  str r4, [r0, r3]
 8003c04:	50c4      	str	r4, [r0, r3]
  adds r3, r3, #4
 8003c06:	3304      	adds	r3, #4

08003c08 <LoopCopyDataInit>:

LoopCopyDataInit:
  adds r4, r0, r3
 8003c08:	18c4      	adds	r4, r0, r3
  cmp r4, r1
 8003c0a:	428c      	cmp	r4, r1
  bcc CopyDataInit
 8003c0c:	d3f9      	bcc.n	8003c02 <CopyDataInit>
  
/* Zero fill the bss segment. */
  ldr r2, =_sbss
 8003c0e:	4a09      	ldr	r2, [pc, #36]	@ (8003c34 <LoopFillZerobss+0x1a>)
  ldr r4, =_ebss
 8003c10:	4c09      	ldr	r4, [pc, #36]	@ (8003c38 <LoopFillZerobss+0x1e>)
  movs r3, #0
 8003c12:	2300      	movs	r3, #0
  b LoopFillZerobss
 8003c14:	e001      	b.n	8003c1a <LoopFillZerobss>

08003c16 <FillZerobss>:

FillZerobss:
  str  r3, [r2]
 8003c16:	6013      	str	r3, [r2, #0]
  adds r2, r2, #4
 8003c18:	3204      	adds	r2, #4

08003c1a <LoopFillZerobss>:

LoopFillZerobss:
  cmp r2, r4
 8003c1a:	42a2      	cmp	r2, r4
  bcc FillZerobss
 8003c1c:	d3fb      	bcc.n	8003c16 <FillZerobss>

/* Call static constructors */
    bl __libc_init_array
 8003c1e:	f003 feef 	bl	8007a00 <__libc_init_array>
/* Call the application's entry point.*/
  bl main
 8003c22:	f7fd fea3 	bl	800196c <main>
  bx lr
 8003c26:	4770      	bx	lr
  ldr r0, =_sdata
 8003c28:	20000000 	.word	0x20000000
  ldr r1, =_edata
 8003c2c:	200000c4 	.word	0x200000c4
  ldr r2, =_sidata
 8003c30:	08008894 	.word	0x08008894
  ldr r2, =_sbss
 8003c34:	200000c4 	.word	0x200000c4
  ldr r4, =_ebss
 8003c38:	200005b8 	.word	0x200005b8

08003c3c <ADC1_2_IRQHandler>:
 * @retval : None
*/
    .section .text.Default_Handler,"ax",%progbits
Default_Handler:
Infinite_Loop:
  b Infinite_Loop
 8003c3c:	e7fe      	b.n	8003c3c <ADC1_2_IRQHandler>
	...

08003c40 <HAL_Init>:
  *         need to ensure that the SysTick time base is always set to 1 millisecond
  *         to have correct HAL operation.
  * @retval HAL status
  */
HAL_StatusTypeDef HAL_Init(void)
{
 8003c40:	b580      	push	{r7, lr}
 8003c42:	af00      	add	r7, sp, #0
    defined(STM32F102x6) || defined(STM32F102xB) || \
    defined(STM32F103x6) || defined(STM32F103xB) || defined(STM32F103xE) || defined(STM32F103xG) || \
    defined(STM32F105xC) || defined(STM32F107xC)

  /* Prefetch buffer is not available on value line devices */
  __HAL_FLASH_PREFETCH_BUFFER_ENABLE();
 8003c44:	4b08      	ldr	r3, [pc, #32]	@ (8003c68 <HAL_Init+0x28>)
 8003c46:	681b      	ldr	r3, [r3, #0]
 8003c48:	4a07      	ldr	r2, [pc, #28]	@ (8003c68 <HAL_Init+0x28>)
 8003c4a:	f043 0310 	orr.w	r3, r3, #16
 8003c4e:	6013      	str	r3, [r2, #0]
#endif
#endif /* PREFETCH_ENABLE */

  /* Set Interrupt Group Priority */
  HAL_NVIC_SetPriorityGrouping(NVIC_PRIORITYGROUP_4);
 8003c50:	2003      	movs	r0, #3
 8003c52:	f000 fe31 	bl	80048b8 <HAL_NVIC_SetPriorityGrouping>

  /* Use systick as time base source and configure 1ms tick (default clock after Reset is HSI) */
  HAL_InitTick(TICK_INT_PRIORITY);
 8003c56:	2000      	movs	r0, #0
 8003c58:	f000 f808 	bl	8003c6c <HAL_InitTick>

  /* Init the low level hardware */
  HAL_MspInit();
 8003c5c:	f7ff fd30 	bl	80036c0 <HAL_MspInit>

  /* Return function status */
  return HAL_OK;
 8003c60:	2300      	movs	r3, #0
}
 8003c62:	4618      	mov	r0, r3
 8003c64:	bd80      	pop	{r7, pc}
 8003c66:	bf00      	nop
 8003c68:	40022000 	.word	0x40022000

08003c6c <HAL_InitTick>:
  *       implementation  in user file.
  * @param TickPriority Tick interrupt priority.
  * @retval HAL status
  */
__weak HAL_StatusTypeDef HAL_InitTick(uint32_t TickPriority)
{
 8003c6c:	b580      	push	{r7, lr}
 8003c6e:	b082      	sub	sp, #8
 8003c70:	af00      	add	r7, sp, #0
 8003c72:	6078      	str	r0, [r7, #4]
  /* Configure the SysTick to have interrupt in 1ms time basis*/
  if (HAL_SYSTICK_Config(SystemCoreClock / (1000U / uwTickFreq)) > 0U)
 8003c74:	4b12      	ldr	r3, [pc, #72]	@ (8003cc0 <HAL_InitTick+0x54>)
 8003c76:	681a      	ldr	r2, [r3, #0]
 8003c78:	4b12      	ldr	r3, [pc, #72]	@ (8003cc4 <HAL_InitTick+0x58>)
 8003c7a:	781b      	ldrb	r3, [r3, #0]
 8003c7c:	4619      	mov	r1, r3
 8003c7e:	f44f 737a 	mov.w	r3, #1000	@ 0x3e8
 8003c82:	fbb3 f3f1 	udiv	r3, r3, r1
 8003c86:	fbb2 f3f3 	udiv	r3, r2, r3
 8003c8a:	4618      	mov	r0, r3
 8003c8c:	f000 fe3b 	bl	8004906 <HAL_SYSTICK_Config>
 8003c90:	4603      	mov	r3, r0
 8003c92:	2b00      	cmp	r3, #0
 8003c94:	d001      	beq.n	8003c9a <HAL_InitTick+0x2e>
  {
    return HAL_ERROR;
 8003c96:	2301      	movs	r3, #1
 8003c98:	e00e      	b.n	8003cb8 <HAL_InitTick+0x4c>
  }

  /* Configure the SysTick IRQ priority */
  if (TickPriority < (1UL << __NVIC_PRIO_BITS))
 8003c9a:	687b      	ldr	r3, [r7, #4]
 8003c9c:	2b0f      	cmp	r3, #15
 8003c9e:	d80a      	bhi.n	8003cb6 <HAL_InitTick+0x4a>
  {
    HAL_NVIC_SetPriority(SysTick_IRQn, TickPriority, 0U);
 8003ca0:	2200      	movs	r2, #0
 8003ca2:	6879      	ldr	r1, [r7, #4]
 8003ca4:	f04f 30ff 	mov.w	r0, #4294967295
 8003ca8:	f000 fe11 	bl	80048ce <HAL_NVIC_SetPriority>
    uwTickPrio = TickPriority;
 8003cac:	4a06      	ldr	r2, [pc, #24]	@ (8003cc8 <HAL_InitTick+0x5c>)
 8003cae:	687b      	ldr	r3, [r7, #4]
 8003cb0:	6013      	str	r3, [r2, #0]
  {
    return HAL_ERROR;
  }

  /* Return function status */
  return HAL_OK;
 8003cb2:	2300      	movs	r3, #0
 8003cb4:	e000      	b.n	8003cb8 <HAL_InitTick+0x4c>
    return HAL_ERROR;
 8003cb6:	2301      	movs	r3, #1
}
 8003cb8:	4618      	mov	r0, r3
 8003cba:	3708      	adds	r7, #8
 8003cbc:	46bd      	mov	sp, r7
 8003cbe:	bd80      	pop	{r7, pc}
 8003cc0:	20000068 	.word	0x20000068
 8003cc4:	20000070 	.word	0x20000070
 8003cc8:	2000006c 	.word	0x2000006c

08003ccc <HAL_IncTick>:
  * @note This function is declared as __weak to be overwritten in case of other
  *      implementations in user file.
  * @retval None
  */
__weak void HAL_IncTick(void)
{
 8003ccc:	b480      	push	{r7}
 8003cce:	af00      	add	r7, sp, #0
  uwTick += uwTickFreq;
 8003cd0:	4b05      	ldr	r3, [pc, #20]	@ (8003ce8 <HAL_IncTick+0x1c>)
 8003cd2:	781b      	ldrb	r3, [r3, #0]
 8003cd4:	461a      	mov	r2, r3
 8003cd6:	4b05      	ldr	r3, [pc, #20]	@ (8003cec <HAL_IncTick+0x20>)
 8003cd8:	681b      	ldr	r3, [r3, #0]
 8003cda:	4413      	add	r3, r2
 8003cdc:	4a03      	ldr	r2, [pc, #12]	@ (8003cec <HAL_IncTick+0x20>)
 8003cde:	6013      	str	r3, [r2, #0]
}
 8003ce0:	bf00      	nop
 8003ce2:	46bd      	mov	sp, r7
 8003ce4:	bc80      	pop	{r7}
 8003ce6:	4770      	bx	lr
 8003ce8:	20000070 	.word	0x20000070
 8003cec:	2000046c 	.word	0x2000046c

08003cf0 <HAL_GetTick>:
  * @note  This function is declared as __weak to be overwritten in case of other
  *       implementations in user file.
  * @retval tick value
  */
__weak uint32_t HAL_GetTick(void)
{
 8003cf0:	b480      	push	{r7}
 8003cf2:	af00      	add	r7, sp, #0
  return uwTick;
 8003cf4:	4b02      	ldr	r3, [pc, #8]	@ (8003d00 <HAL_GetTick+0x10>)
 8003cf6:	681b      	ldr	r3, [r3, #0]
}
 8003cf8:	4618      	mov	r0, r3
 8003cfa:	46bd      	mov	sp, r7
 8003cfc:	bc80      	pop	{r7}
 8003cfe:	4770      	bx	lr
 8003d00:	2000046c 	.word	0x2000046c

08003d04 <HAL_Delay>:
  *       implementations in user file.
  * @param Delay specifies the delay time length, in milliseconds.
  * @retval None
  */
__weak void HAL_Delay(uint32_t Delay)
{
 8003d04:	b580      	push	{r7, lr}
 8003d06:	b084      	sub	sp, #16
 8003d08:	af00      	add	r7, sp, #0
 8003d0a:	6078      	str	r0, [r7, #4]
  uint32_t tickstart = HAL_GetTick();
 8003d0c:	f7ff fff0 	bl	8003cf0 <HAL_GetTick>
 8003d10:	60b8      	str	r0, [r7, #8]
  uint32_t wait = Delay;
 8003d12:	687b      	ldr	r3, [r7, #4]
 8003d14:	60fb      	str	r3, [r7, #12]

  /* Add a freq to guarantee minimum wait */
  if (wait < HAL_MAX_DELAY)
 8003d16:	68fb      	ldr	r3, [r7, #12]
 8003d18:	f1b3 3fff 	cmp.w	r3, #4294967295
 8003d1c:	d005      	beq.n	8003d2a <HAL_Delay+0x26>
  {
    wait += (uint32_t)(uwTickFreq);
 8003d1e:	4b0a      	ldr	r3, [pc, #40]	@ (8003d48 <HAL_Delay+0x44>)
 8003d20:	781b      	ldrb	r3, [r3, #0]
 8003d22:	461a      	mov	r2, r3
 8003d24:	68fb      	ldr	r3, [r7, #12]
 8003d26:	4413      	add	r3, r2
 8003d28:	60fb      	str	r3, [r7, #12]
  }

  while ((HAL_GetTick() - tickstart) < wait)
 8003d2a:	bf00      	nop
 8003d2c:	f7ff ffe0 	bl	8003cf0 <HAL_GetTick>
 8003d30:	4602      	mov	r2, r0
 8003d32:	68bb      	ldr	r3, [r7, #8]
 8003d34:	1ad3      	subs	r3, r2, r3
 8003d36:	68fa      	ldr	r2, [r7, #12]
 8003d38:	429a      	cmp	r2, r3
 8003d3a:	d8f7      	bhi.n	8003d2c <HAL_Delay+0x28>
  {
  }
}
 8003d3c:	bf00      	nop
 8003d3e:	bf00      	nop
 8003d40:	3710      	adds	r7, #16
 8003d42:	46bd      	mov	sp, r7
 8003d44:	bd80      	pop	{r7, pc}
 8003d46:	bf00      	nop
 8003d48:	20000070 	.word	0x20000070

08003d4c <HAL_ADC_Init>:
  *         of structure "ADC_InitTypeDef".
  * @param  hadc: ADC handle
  * @retval HAL status
  */
HAL_StatusTypeDef HAL_ADC_Init(ADC_HandleTypeDef* hadc)
{
 8003d4c:	b580      	push	{r7, lr}
 8003d4e:	b086      	sub	sp, #24
 8003d50:	af00      	add	r7, sp, #0
 8003d52:	6078      	str	r0, [r7, #4]
  HAL_StatusTypeDef tmp_hal_status = HAL_OK;
 8003d54:	2300      	movs	r3, #0
 8003d56:	75fb      	strb	r3, [r7, #23]
  uint32_t tmp_cr1 = 0U;
 8003d58:	2300      	movs	r3, #0
 8003d5a:	613b      	str	r3, [r7, #16]
  uint32_t tmp_cr2 = 0U;
 8003d5c:	2300      	movs	r3, #0
 8003d5e:	60bb      	str	r3, [r7, #8]
  uint32_t tmp_sqr1 = 0U;
 8003d60:	2300      	movs	r3, #0
 8003d62:	60fb      	str	r3, [r7, #12]
  
  /* Check ADC handle */
  if(hadc == NULL)
 8003d64:	687b      	ldr	r3, [r7, #4]
 8003d66:	2b00      	cmp	r3, #0
 8003d68:	d101      	bne.n	8003d6e <HAL_ADC_Init+0x22>
  {
    return HAL_ERROR;
 8003d6a:	2301      	movs	r3, #1
 8003d6c:	e0be      	b.n	8003eec <HAL_ADC_Init+0x1a0>
  assert_param(IS_ADC_DATA_ALIGN(hadc->Init.DataAlign));
  assert_param(IS_ADC_SCAN_MODE(hadc->Init.ScanConvMode));
  assert_param(IS_FUNCTIONAL_STATE(hadc->Init.ContinuousConvMode));
  assert_param(IS_ADC_EXTTRIG(hadc->Init.ExternalTrigConv));
  
  if(hadc->Init.ScanConvMode != ADC_SCAN_DISABLE)
 8003d6e:	687b      	ldr	r3, [r7, #4]
 8003d70:	689b      	ldr	r3, [r3, #8]
 8003d72:	2b00      	cmp	r3, #0
  /* Refer to header of this file for more details on clock enabling          */
  /* procedure.                                                               */

  /* Actions performed only if ADC is coming from state reset:                */
  /* - Initialization of ADC MSP                                              */
  if (hadc->State == HAL_ADC_STATE_RESET)
 8003d74:	687b      	ldr	r3, [r7, #4]
 8003d76:	6a9b      	ldr	r3, [r3, #40]	@ 0x28
 8003d78:	2b00      	cmp	r3, #0
 8003d7a:	d109      	bne.n	8003d90 <HAL_ADC_Init+0x44>
  {
    /* Initialize ADC error code */
    ADC_CLEAR_ERRORCODE(hadc);
 8003d7c:	687b      	ldr	r3, [r7, #4]
 8003d7e:	2200      	movs	r2, #0
 8003d80:	62da      	str	r2, [r3, #44]	@ 0x2c
    
    /* Allocate lock resource and initialize it */
    hadc->Lock = HAL_UNLOCKED;
 8003d82:	687b      	ldr	r3, [r7, #4]
 8003d84:	2200      	movs	r2, #0
 8003d86:	f883 2024 	strb.w	r2, [r3, #36]	@ 0x24
    
    /* Init the low level hardware */
    hadc->MspInitCallback(hadc);
#else
    /* Init the low level hardware */
    HAL_ADC_MspInit(hadc);
 8003d8a:	6878      	ldr	r0, [r7, #4]
 8003d8c:	f7ff fcca 	bl	8003724 <HAL_ADC_MspInit>
  /* Stop potential conversion on going, on regular and injected groups */
  /* Disable ADC peripheral */
  /* Note: In case of ADC already enabled, precaution to not launch an        */
  /*       unwanted conversion while modifying register CR2 by writing 1 to   */
  /*       bit ADON.                                                          */
  tmp_hal_status = ADC_ConversionStop_Disable(hadc);
 8003d90:	6878      	ldr	r0, [r7, #4]
 8003d92:	f000 fbf1 	bl	8004578 <ADC_ConversionStop_Disable>
 8003d96:	4603      	mov	r3, r0
 8003d98:	75fb      	strb	r3, [r7, #23]
  
  
  /* Configuration of ADC parameters if previous preliminary actions are      */ 
  /* correctly completed.                                                     */
  if (HAL_IS_BIT_CLR(hadc->State, HAL_ADC_STATE_ERROR_INTERNAL) &&
 8003d9a:	687b      	ldr	r3, [r7, #4]
 8003d9c:	6a9b      	ldr	r3, [r3, #40]	@ 0x28
 8003d9e:	f003 0310 	and.w	r3, r3, #16
 8003da2:	2b00      	cmp	r3, #0
 8003da4:	f040 8099 	bne.w	8003eda <HAL_ADC_Init+0x18e>
 8003da8:	7dfb      	ldrb	r3, [r7, #23]
 8003daa:	2b00      	cmp	r3, #0
 8003dac:	f040 8095 	bne.w	8003eda <HAL_ADC_Init+0x18e>
      (tmp_hal_status == HAL_OK)                                  )
  {
    /* Set ADC state */
    ADC_STATE_CLR_SET(hadc->State,
 8003db0:	687b      	ldr	r3, [r7, #4]
 8003db2:	6a9b      	ldr	r3, [r3, #40]	@ 0x28
 8003db4:	f423 5388 	bic.w	r3, r3, #4352	@ 0x1100
 8003db8:	f023 0302 	bic.w	r3, r3, #2
 8003dbc:	f043 0202 	orr.w	r2, r3, #2
 8003dc0:	687b      	ldr	r3, [r7, #4]
 8003dc2:	629a      	str	r2, [r3, #40]	@ 0x28
    /*  - continuous conversion mode                                          */
    /* Note: External trigger polarity (ADC_CR2_EXTTRIG) is set into          */
    /*       HAL_ADC_Start_xxx functions because if set in this function,     */
    /*       a conversion on injected group would start a conversion also on  */
    /*       regular group after ADC enabling.                                */
    tmp_cr2 |= (hadc->Init.DataAlign                                          |
 8003dc4:	687b      	ldr	r3, [r7, #4]
 8003dc6:	685a      	ldr	r2, [r3, #4]
                ADC_CFGR_EXTSEL(hadc, hadc->Init.ExternalTrigConv)            |
 8003dc8:	687b      	ldr	r3, [r7, #4]
 8003dca:	69db      	ldr	r3, [r3, #28]
    tmp_cr2 |= (hadc->Init.DataAlign                                          |
 8003dcc:	431a      	orrs	r2, r3
                ADC_CR2_CONTINUOUS((uint32_t)hadc->Init.ContinuousConvMode)   );
 8003dce:	687b      	ldr	r3, [r7, #4]
 8003dd0:	7b1b      	ldrb	r3, [r3, #12]
 8003dd2:	005b      	lsls	r3, r3, #1
                ADC_CFGR_EXTSEL(hadc, hadc->Init.ExternalTrigConv)            |
 8003dd4:	4313      	orrs	r3, r2
    tmp_cr2 |= (hadc->Init.DataAlign                                          |
 8003dd6:	68ba      	ldr	r2, [r7, #8]
 8003dd8:	4313      	orrs	r3, r2
 8003dda:	60bb      	str	r3, [r7, #8]

    /* Configuration of ADC:                                                  */
    /*  - scan mode                                                           */
    /*  - discontinuous mode disable/enable                                   */
    /*  - discontinuous mode number of conversions                            */
    tmp_cr1 |= (ADC_CR1_SCAN_SET(hadc->Init.ScanConvMode));
 8003ddc:	687b      	ldr	r3, [r7, #4]
 8003dde:	689b      	ldr	r3, [r3, #8]
 8003de0:	f5b3 7f80 	cmp.w	r3, #256	@ 0x100
 8003de4:	d003      	beq.n	8003dee <HAL_ADC_Init+0xa2>
 8003de6:	687b      	ldr	r3, [r7, #4]
 8003de8:	689b      	ldr	r3, [r3, #8]
 8003dea:	2b01      	cmp	r3, #1
 8003dec:	d102      	bne.n	8003df4 <HAL_ADC_Init+0xa8>
 8003dee:	f44f 7380 	mov.w	r3, #256	@ 0x100
 8003df2:	e000      	b.n	8003df6 <HAL_ADC_Init+0xaa>
 8003df4:	2300      	movs	r3, #0
 8003df6:	693a      	ldr	r2, [r7, #16]
 8003df8:	4313      	orrs	r3, r2
 8003dfa:	613b      	str	r3, [r7, #16]
    
    /* Enable discontinuous mode only if continuous mode is disabled */
    /* Note: If parameter "Init.ScanConvMode" is set to disable, parameter    */
    /*       discontinuous is set anyway, but will have no effect on ADC HW.  */
    if (hadc->Init.DiscontinuousConvMode == ENABLE)
 8003dfc:	687b      	ldr	r3, [r7, #4]
 8003dfe:	7d1b      	ldrb	r3, [r3, #20]
 8003e00:	2b01      	cmp	r3, #1
 8003e02:	d119      	bne.n	8003e38 <HAL_ADC_Init+0xec>
    {
      if (hadc->Init.ContinuousConvMode == DISABLE)
 8003e04:	687b      	ldr	r3, [r7, #4]
 8003e06:	7b1b      	ldrb	r3, [r3, #12]
 8003e08:	2b00      	cmp	r3, #0
 8003e0a:	d109      	bne.n	8003e20 <HAL_ADC_Init+0xd4>
      {
        /* Enable the selected ADC regular discontinuous mode */
        /* Set the number of channels to be converted in discontinuous mode */
        SET_BIT(tmp_cr1, ADC_CR1_DISCEN                                            |
 8003e0c:	687b      	ldr	r3, [r7, #4]
 8003e0e:	699b      	ldr	r3, [r3, #24]
 8003e10:	3b01      	subs	r3, #1
 8003e12:	035a      	lsls	r2, r3, #13
 8003e14:	693b      	ldr	r3, [r7, #16]
 8003e16:	4313      	orrs	r3, r2
 8003e18:	f443 6300 	orr.w	r3, r3, #2048	@ 0x800
 8003e1c:	613b      	str	r3, [r7, #16]
 8003e1e:	e00b      	b.n	8003e38 <HAL_ADC_Init+0xec>
      {
        /* ADC regular group settings continuous and sequencer discontinuous*/
        /* cannot be enabled simultaneously.                                */
        
        /* Update ADC state machine to error */
        SET_BIT(hadc->State, HAL_ADC_STATE_ERROR_CONFIG);
 8003e20:	687b      	ldr	r3, [r7, #4]
 8003e22:	6a9b      	ldr	r3, [r3, #40]	@ 0x28
 8003e24:	f043 0220 	orr.w	r2, r3, #32
 8003e28:	687b      	ldr	r3, [r7, #4]
 8003e2a:	629a      	str	r2, [r3, #40]	@ 0x28
        
        /* Set ADC error code to ADC IP internal error */
        SET_BIT(hadc->ErrorCode, HAL_ADC_ERROR_INTERNAL);
 8003e2c:	687b      	ldr	r3, [r7, #4]
 8003e2e:	6adb      	ldr	r3, [r3, #44]	@ 0x2c
 8003e30:	f043 0201 	orr.w	r2, r3, #1
 8003e34:	687b      	ldr	r3, [r7, #4]
 8003e36:	62da      	str	r2, [r3, #44]	@ 0x2c
      }
    }
    
    /* Update ADC configuration register CR1 with previous settings */
      MODIFY_REG(hadc->Instance->CR1,
 8003e38:	687b      	ldr	r3, [r7, #4]
 8003e3a:	681b      	ldr	r3, [r3, #0]
 8003e3c:	685b      	ldr	r3, [r3, #4]
 8003e3e:	f423 4169 	bic.w	r1, r3, #59648	@ 0xe900
 8003e42:	687b      	ldr	r3, [r7, #4]
 8003e44:	681b      	ldr	r3, [r3, #0]
 8003e46:	693a      	ldr	r2, [r7, #16]
 8003e48:	430a      	orrs	r2, r1
 8003e4a:	605a      	str	r2, [r3, #4]
                 ADC_CR1_DISCEN  |
                 ADC_CR1_DISCNUM    ,
                 tmp_cr1             );
    
    /* Update ADC configuration register CR2 with previous settings */
      MODIFY_REG(hadc->Instance->CR2,
 8003e4c:	687b      	ldr	r3, [r7, #4]
 8003e4e:	681b      	ldr	r3, [r3, #0]
 8003e50:	689a      	ldr	r2, [r3, #8]
 8003e52:	4b28      	ldr	r3, [pc, #160]	@ (8003ef4 <HAL_ADC_Init+0x1a8>)
 8003e54:	4013      	ands	r3, r2
 8003e56:	687a      	ldr	r2, [r7, #4]
 8003e58:	6812      	ldr	r2, [r2, #0]
 8003e5a:	68b9      	ldr	r1, [r7, #8]
 8003e5c:	430b      	orrs	r3, r1
 8003e5e:	6093      	str	r3, [r2, #8]
    /*   Note: Scan mode is present by hardware on this device and, if        */
    /*   disabled, discards automatically nb of conversions. Anyway, nb of    */
    /*   conversions is forced to 0x00 for alignment over all STM32 devices.  */
    /* - if scan mode is enabled, regular channels sequence length is set to  */
    /*   parameter "NbrOfConversion"                                          */
    if (ADC_CR1_SCAN_SET(hadc->Init.ScanConvMode) == ADC_SCAN_ENABLE)
 8003e60:	687b      	ldr	r3, [r7, #4]
 8003e62:	689b      	ldr	r3, [r3, #8]
 8003e64:	f5b3 7f80 	cmp.w	r3, #256	@ 0x100
 8003e68:	d003      	beq.n	8003e72 <HAL_ADC_Init+0x126>
 8003e6a:	687b      	ldr	r3, [r7, #4]
 8003e6c:	689b      	ldr	r3, [r3, #8]
 8003e6e:	2b01      	cmp	r3, #1
 8003e70:	d104      	bne.n	8003e7c <HAL_ADC_Init+0x130>
    {
      tmp_sqr1 = ADC_SQR1_L_SHIFT(hadc->Init.NbrOfConversion);
 8003e72:	687b      	ldr	r3, [r7, #4]
 8003e74:	691b      	ldr	r3, [r3, #16]
 8003e76:	3b01      	subs	r3, #1
 8003e78:	051b      	lsls	r3, r3, #20
 8003e7a:	60fb      	str	r3, [r7, #12]
    }
      
    MODIFY_REG(hadc->Instance->SQR1,
 8003e7c:	687b      	ldr	r3, [r7, #4]
 8003e7e:	681b      	ldr	r3, [r3, #0]
 8003e80:	6adb      	ldr	r3, [r3, #44]	@ 0x2c
 8003e82:	f423 0170 	bic.w	r1, r3, #15728640	@ 0xf00000
 8003e86:	687b      	ldr	r3, [r7, #4]
 8003e88:	681b      	ldr	r3, [r3, #0]
 8003e8a:	68fa      	ldr	r2, [r7, #12]
 8003e8c:	430a      	orrs	r2, r1
 8003e8e:	62da      	str	r2, [r3, #44]	@ 0x2c
    /* ensure of no potential problem of ADC core IP clocking.                */
    /* Check through register CR2 (excluding bits set in other functions:     */
    /* execution control bits (ADON, JSWSTART, SWSTART), regular group bits   */
    /* (DMA), injected group bits (JEXTTRIG and JEXTSEL), channel internal    */
    /* measurement path bit (TSVREFE).                                        */
    if (READ_BIT(hadc->Instance->CR2, ~(ADC_CR2_ADON | ADC_CR2_DMA |
 8003e90:	687b      	ldr	r3, [r7, #4]
 8003e92:	681b      	ldr	r3, [r3, #0]
 8003e94:	689a      	ldr	r2, [r3, #8]
 8003e96:	4b18      	ldr	r3, [pc, #96]	@ (8003ef8 <HAL_ADC_Init+0x1ac>)
 8003e98:	4013      	ands	r3, r2
 8003e9a:	68ba      	ldr	r2, [r7, #8]
 8003e9c:	429a      	cmp	r2, r3
 8003e9e:	d10b      	bne.n	8003eb8 <HAL_ADC_Init+0x16c>
                                        ADC_CR2_JEXTTRIG | ADC_CR2_JEXTSEL |
                                        ADC_CR2_TSVREFE                     ))
         == tmp_cr2)
    {
      /* Set ADC error code to none */
      ADC_CLEAR_ERRORCODE(hadc);
 8003ea0:	687b      	ldr	r3, [r7, #4]
 8003ea2:	2200      	movs	r2, #0
 8003ea4:	62da      	str	r2, [r3, #44]	@ 0x2c
      
      /* Set the ADC state */
      ADC_STATE_CLR_SET(hadc->State,
 8003ea6:	687b      	ldr	r3, [r7, #4]
 8003ea8:	6a9b      	ldr	r3, [r3, #40]	@ 0x28
 8003eaa:	f023 0303 	bic.w	r3, r3, #3
 8003eae:	f043 0201 	orr.w	r2, r3, #1
 8003eb2:	687b      	ldr	r3, [r7, #4]
 8003eb4:	629a      	str	r2, [r3, #40]	@ 0x28
    if (READ_BIT(hadc->Instance->CR2, ~(ADC_CR2_ADON | ADC_CR2_DMA |
 8003eb6:	e018      	b.n	8003eea <HAL_ADC_Init+0x19e>
                        HAL_ADC_STATE_READY);
    }
    else
    {
      /* Update ADC state machine to error */
      ADC_STATE_CLR_SET(hadc->State,
 8003eb8:	687b      	ldr	r3, [r7, #4]
 8003eba:	6a9b      	ldr	r3, [r3, #40]	@ 0x28
 8003ebc:	f023 0312 	bic.w	r3, r3, #18
 8003ec0:	f043 0210 	orr.w	r2, r3, #16
 8003ec4:	687b      	ldr	r3, [r7, #4]
 8003ec6:	629a      	str	r2, [r3, #40]	@ 0x28
                        HAL_ADC_STATE_BUSY_INTERNAL,
                        HAL_ADC_STATE_ERROR_INTERNAL);
      
      /* Set ADC error code to ADC IP internal error */
      SET_BIT(hadc->ErrorCode, HAL_ADC_ERROR_INTERNAL);
 8003ec8:	687b      	ldr	r3, [r7, #4]
 8003eca:	6adb      	ldr	r3, [r3, #44]	@ 0x2c
 8003ecc:	f043 0201 	orr.w	r2, r3, #1
 8003ed0:	687b      	ldr	r3, [r7, #4]
 8003ed2:	62da      	str	r2, [r3, #44]	@ 0x2c
      
      tmp_hal_status = HAL_ERROR;
 8003ed4:	2301      	movs	r3, #1
 8003ed6:	75fb      	strb	r3, [r7, #23]
    if (READ_BIT(hadc->Instance->CR2, ~(ADC_CR2_ADON | ADC_CR2_DMA |
 8003ed8:	e007      	b.n	8003eea <HAL_ADC_Init+0x19e>
  
  }
  else
  {
    /* Update ADC state machine to error */
    SET_BIT(hadc->State, HAL_ADC_STATE_ERROR_INTERNAL);
 8003eda:	687b      	ldr	r3, [r7, #4]
 8003edc:	6a9b      	ldr	r3, [r3, #40]	@ 0x28
 8003ede:	f043 0210 	orr.w	r2, r3, #16
 8003ee2:	687b      	ldr	r3, [r7, #4]
 8003ee4:	629a      	str	r2, [r3, #40]	@ 0x28
        
    tmp_hal_status = HAL_ERROR;
 8003ee6:	2301      	movs	r3, #1
 8003ee8:	75fb      	strb	r3, [r7, #23]
  }
  
  /* Return function status */
  return tmp_hal_status;
 8003eea:	7dfb      	ldrb	r3, [r7, #23]
}
 8003eec:	4618      	mov	r0, r3
 8003eee:	3718      	adds	r7, #24
 8003ef0:	46bd      	mov	sp, r7
 8003ef2:	bd80      	pop	{r7, pc}
 8003ef4:	ffe1f7fd 	.word	0xffe1f7fd
 8003ef8:	ff1f0efe 	.word	0xff1f0efe

08003efc <HAL_ADC_Start>:
  *         Interruptions enabled in this function: None.
  * @param  hadc: ADC handle
  * @retval HAL status
  */
HAL_StatusTypeDef HAL_ADC_Start(ADC_HandleTypeDef* hadc)
{
 8003efc:	b580      	push	{r7, lr}
 8003efe:	b084      	sub	sp, #16
 8003f00:	af00      	add	r7, sp, #0
 8003f02:	6078      	str	r0, [r7, #4]
  HAL_StatusTypeDef tmp_hal_status = HAL_OK;
 8003f04:	2300      	movs	r3, #0
 8003f06:	73fb      	strb	r3, [r7, #15]
  
  /* Check the parameters */
  assert_param(IS_ADC_ALL_INSTANCE(hadc->Instance));
  
  /* Process locked */
  __HAL_LOCK(hadc);
 8003f08:	687b      	ldr	r3, [r7, #4]
 8003f0a:	f893 3024 	ldrb.w	r3, [r3, #36]	@ 0x24
 8003f0e:	2b01      	cmp	r3, #1
 8003f10:	d101      	bne.n	8003f16 <HAL_ADC_Start+0x1a>
 8003f12:	2302      	movs	r3, #2
 8003f14:	e098      	b.n	8004048 <HAL_ADC_Start+0x14c>
 8003f16:	687b      	ldr	r3, [r7, #4]
 8003f18:	2201      	movs	r2, #1
 8003f1a:	f883 2024 	strb.w	r2, [r3, #36]	@ 0x24
   
  /* Enable the ADC peripheral */
  tmp_hal_status = ADC_Enable(hadc);
 8003f1e:	6878      	ldr	r0, [r7, #4]
 8003f20:	f000 fad0 	bl	80044c4 <ADC_Enable>
 8003f24:	4603      	mov	r3, r0
 8003f26:	73fb      	strb	r3, [r7, #15]
  
  /* Start conversion if ADC is effectively enabled */
  if (tmp_hal_status == HAL_OK)
 8003f28:	7bfb      	ldrb	r3, [r7, #15]
 8003f2a:	2b00      	cmp	r3, #0
 8003f2c:	f040 8087 	bne.w	800403e <HAL_ADC_Start+0x142>
  {
    /* Set ADC state                                                          */
    /* - Clear state bitfield related to regular group conversion results     */
    /* - Set state bitfield related to regular operation                      */
    ADC_STATE_CLR_SET(hadc->State,
 8003f30:	687b      	ldr	r3, [r7, #4]
 8003f32:	6a9b      	ldr	r3, [r3, #40]	@ 0x28
 8003f34:	f423 7340 	bic.w	r3, r3, #768	@ 0x300
 8003f38:	f023 0301 	bic.w	r3, r3, #1
 8003f3c:	f443 7280 	orr.w	r2, r3, #256	@ 0x100
 8003f40:	687b      	ldr	r3, [r7, #4]
 8003f42:	629a      	str	r2, [r3, #40]	@ 0x28
                      HAL_ADC_STATE_REG_BUSY);
    
    /* Set group injected state (from auto-injection) and multimode state     */
    /* for all cases of multimode: independent mode, multimode ADC master     */
    /* or multimode ADC slave (for devices with several ADCs):                */
    if (ADC_NONMULTIMODE_OR_MULTIMODEMASTER(hadc))
 8003f44:	687b      	ldr	r3, [r7, #4]
 8003f46:	681b      	ldr	r3, [r3, #0]
 8003f48:	4a41      	ldr	r2, [pc, #260]	@ (8004050 <HAL_ADC_Start+0x154>)
 8003f4a:	4293      	cmp	r3, r2
 8003f4c:	d105      	bne.n	8003f5a <HAL_ADC_Start+0x5e>
 8003f4e:	4b41      	ldr	r3, [pc, #260]	@ (8004054 <HAL_ADC_Start+0x158>)
 8003f50:	685b      	ldr	r3, [r3, #4]
 8003f52:	f403 2370 	and.w	r3, r3, #983040	@ 0xf0000
 8003f56:	2b00      	cmp	r3, #0
 8003f58:	d115      	bne.n	8003f86 <HAL_ADC_Start+0x8a>
    {
      /* Set ADC state (ADC independent or master) */
      CLEAR_BIT(hadc->State, HAL_ADC_STATE_MULTIMODE_SLAVE);
 8003f5a:	687b      	ldr	r3, [r7, #4]
 8003f5c:	6a9b      	ldr	r3, [r3, #40]	@ 0x28
 8003f5e:	f423 1280 	bic.w	r2, r3, #1048576	@ 0x100000
 8003f62:	687b      	ldr	r3, [r7, #4]
 8003f64:	629a      	str	r2, [r3, #40]	@ 0x28
      
      /* If conversions on group regular are also triggering group injected,  */
      /* update ADC state.                                                    */
      if (READ_BIT(hadc->Instance->CR1, ADC_CR1_JAUTO) != RESET)
 8003f66:	687b      	ldr	r3, [r7, #4]
 8003f68:	681b      	ldr	r3, [r3, #0]
 8003f6a:	685b      	ldr	r3, [r3, #4]
 8003f6c:	f403 6380 	and.w	r3, r3, #1024	@ 0x400
 8003f70:	2b00      	cmp	r3, #0
 8003f72:	d026      	beq.n	8003fc2 <HAL_ADC_Start+0xc6>
      {
        ADC_STATE_CLR_SET(hadc->State, HAL_ADC_STATE_INJ_EOC, HAL_ADC_STATE_INJ_BUSY);  
 8003f74:	687b      	ldr	r3, [r7, #4]
 8003f76:	6a9b      	ldr	r3, [r3, #40]	@ 0x28
 8003f78:	f423 5340 	bic.w	r3, r3, #12288	@ 0x3000
 8003f7c:	f443 5280 	orr.w	r2, r3, #4096	@ 0x1000
 8003f80:	687b      	ldr	r3, [r7, #4]
 8003f82:	629a      	str	r2, [r3, #40]	@ 0x28
      if (READ_BIT(hadc->Instance->CR1, ADC_CR1_JAUTO) != RESET)
 8003f84:	e01d      	b.n	8003fc2 <HAL_ADC_Start+0xc6>
      }
    }
    else
    {
      /* Set ADC state (ADC slave) */
      SET_BIT(hadc->State, HAL_ADC_STATE_MULTIMODE_SLAVE);
 8003f86:	687b      	ldr	r3, [r7, #4]
 8003f88:	6a9b      	ldr	r3, [r3, #40]	@ 0x28
 8003f8a:	f443 1280 	orr.w	r2, r3, #1048576	@ 0x100000
 8003f8e:	687b      	ldr	r3, [r7, #4]
 8003f90:	629a      	str	r2, [r3, #40]	@ 0x28
      
      /* If conversions on group regular are also triggering group injected,  */
      /* update ADC state.                                                    */
      if (ADC_MULTIMODE_AUTO_INJECTED(hadc))
 8003f92:	687b      	ldr	r3, [r7, #4]
 8003f94:	681b      	ldr	r3, [r3, #0]
 8003f96:	4a2f      	ldr	r2, [pc, #188]	@ (8004054 <HAL_ADC_Start+0x158>)
 8003f98:	4293      	cmp	r3, r2
 8003f9a:	d004      	beq.n	8003fa6 <HAL_ADC_Start+0xaa>
 8003f9c:	687b      	ldr	r3, [r7, #4]
 8003f9e:	681b      	ldr	r3, [r3, #0]
 8003fa0:	4a2b      	ldr	r2, [pc, #172]	@ (8004050 <HAL_ADC_Start+0x154>)
 8003fa2:	4293      	cmp	r3, r2
 8003fa4:	d10d      	bne.n	8003fc2 <HAL_ADC_Start+0xc6>
 8003fa6:	4b2b      	ldr	r3, [pc, #172]	@ (8004054 <HAL_ADC_Start+0x158>)
 8003fa8:	685b      	ldr	r3, [r3, #4]
 8003faa:	f403 6380 	and.w	r3, r3, #1024	@ 0x400
 8003fae:	2b00      	cmp	r3, #0
 8003fb0:	d007      	beq.n	8003fc2 <HAL_ADC_Start+0xc6>
      {
        ADC_STATE_CLR_SET(hadc->State, HAL_ADC_STATE_INJ_EOC, HAL_ADC_STATE_INJ_BUSY);
 8003fb2:	687b      	ldr	r3, [r7, #4]
 8003fb4:	6a9b      	ldr	r3, [r3, #40]	@ 0x28
 8003fb6:	f423 5340 	bic.w	r3, r3, #12288	@ 0x3000
 8003fba:	f443 5280 	orr.w	r2, r3, #4096	@ 0x1000
 8003fbe:	687b      	ldr	r3, [r7, #4]
 8003fc0:	629a      	str	r2, [r3, #40]	@ 0x28
      }
    }
    
    /* State machine update: Check if an injected conversion is ongoing */
    if (HAL_IS_BIT_SET(hadc->State, HAL_ADC_STATE_INJ_BUSY))
 8003fc2:	687b      	ldr	r3, [r7, #4]
 8003fc4:	6a9b      	ldr	r3, [r3, #40]	@ 0x28
 8003fc6:	f403 5380 	and.w	r3, r3, #4096	@ 0x1000
 8003fca:	2b00      	cmp	r3, #0
 8003fcc:	d006      	beq.n	8003fdc <HAL_ADC_Start+0xe0>
    {
      /* Reset ADC error code fields related to conversions on group regular */
      CLEAR_BIT(hadc->ErrorCode, (HAL_ADC_ERROR_OVR | HAL_ADC_ERROR_DMA));         
 8003fce:	687b      	ldr	r3, [r7, #4]
 8003fd0:	6adb      	ldr	r3, [r3, #44]	@ 0x2c
 8003fd2:	f023 0206 	bic.w	r2, r3, #6
 8003fd6:	687b      	ldr	r3, [r7, #4]
 8003fd8:	62da      	str	r2, [r3, #44]	@ 0x2c
 8003fda:	e002      	b.n	8003fe2 <HAL_ADC_Start+0xe6>
    }
    else
    {
      /* Reset ADC all error code fields */
      ADC_CLEAR_ERRORCODE(hadc);
 8003fdc:	687b      	ldr	r3, [r7, #4]
 8003fde:	2200      	movs	r2, #0
 8003fe0:	62da      	str	r2, [r3, #44]	@ 0x2c
    }
    
    /* Process unlocked */
    /* Unlock before starting ADC conversions: in case of potential           */
    /* interruption, to let the process to ADC IRQ Handler.                   */
    __HAL_UNLOCK(hadc);
 8003fe2:	687b      	ldr	r3, [r7, #4]
 8003fe4:	2200      	movs	r2, #0
 8003fe6:	f883 2024 	strb.w	r2, [r3, #36]	@ 0x24
  
    /* Clear regular group conversion flag */
    /* (To ensure of no unknown state from potential previous ADC operations) */
    __HAL_ADC_CLEAR_FLAG(hadc, ADC_FLAG_EOC);
 8003fea:	687b      	ldr	r3, [r7, #4]
 8003fec:	681b      	ldr	r3, [r3, #0]
 8003fee:	f06f 0202 	mvn.w	r2, #2
 8003ff2:	601a      	str	r2, [r3, #0]
    /*  - if ADC is slave, ADC is enabled only (conversion is not started).   */
    /*  - if ADC is master, ADC is enabled and conversion is started.         */
    /* If ADC is master, ADC is enabled and conversion is started.            */
    /* Note: Alternate trigger for single conversion could be to force an     */
    /*       additional set of bit ADON "hadc->Instance->CR2 |= ADC_CR2_ADON;"*/
    if (ADC_IS_SOFTWARE_START_REGULAR(hadc)      &&
 8003ff4:	687b      	ldr	r3, [r7, #4]
 8003ff6:	681b      	ldr	r3, [r3, #0]
 8003ff8:	689b      	ldr	r3, [r3, #8]
 8003ffa:	f403 2360 	and.w	r3, r3, #917504	@ 0xe0000
 8003ffe:	f5b3 2f60 	cmp.w	r3, #917504	@ 0xe0000
 8004002:	d113      	bne.n	800402c <HAL_ADC_Start+0x130>
        ADC_NONMULTIMODE_OR_MULTIMODEMASTER(hadc)  )
 8004004:	687b      	ldr	r3, [r7, #4]
 8004006:	681b      	ldr	r3, [r3, #0]
    if (ADC_IS_SOFTWARE_START_REGULAR(hadc)      &&
 8004008:	4a11      	ldr	r2, [pc, #68]	@ (8004050 <HAL_ADC_Start+0x154>)
 800400a:	4293      	cmp	r3, r2
 800400c:	d105      	bne.n	800401a <HAL_ADC_Start+0x11e>
        ADC_NONMULTIMODE_OR_MULTIMODEMASTER(hadc)  )
 800400e:	4b11      	ldr	r3, [pc, #68]	@ (8004054 <HAL_ADC_Start+0x158>)
 8004010:	685b      	ldr	r3, [r3, #4]
 8004012:	f403 2370 	and.w	r3, r3, #983040	@ 0xf0000
    if (ADC_IS_SOFTWARE_START_REGULAR(hadc)      &&
 8004016:	2b00      	cmp	r3, #0
 8004018:	d108      	bne.n	800402c <HAL_ADC_Start+0x130>
    {
      /* Start ADC conversion on regular group with SW start */
      SET_BIT(hadc->Instance->CR2, (ADC_CR2_SWSTART | ADC_CR2_EXTTRIG));
 800401a:	687b      	ldr	r3, [r7, #4]
 800401c:	681b      	ldr	r3, [r3, #0]
 800401e:	689a      	ldr	r2, [r3, #8]
 8004020:	687b      	ldr	r3, [r7, #4]
 8004022:	681b      	ldr	r3, [r3, #0]
 8004024:	f442 02a0 	orr.w	r2, r2, #5242880	@ 0x500000
 8004028:	609a      	str	r2, [r3, #8]
 800402a:	e00c      	b.n	8004046 <HAL_ADC_Start+0x14a>
    }
    else
    {
      /* Start ADC conversion on regular group with external trigger */
      SET_BIT(hadc->Instance->CR2, ADC_CR2_EXTTRIG);
 800402c:	687b      	ldr	r3, [r7, #4]
 800402e:	681b      	ldr	r3, [r3, #0]
 8004030:	689a      	ldr	r2, [r3, #8]
 8004032:	687b      	ldr	r3, [r7, #4]
 8004034:	681b      	ldr	r3, [r3, #0]
 8004036:	f442 1280 	orr.w	r2, r2, #1048576	@ 0x100000
 800403a:	609a      	str	r2, [r3, #8]
 800403c:	e003      	b.n	8004046 <HAL_ADC_Start+0x14a>
    }
  }
  else
  {
    /* Process unlocked */
    __HAL_UNLOCK(hadc);
 800403e:	687b      	ldr	r3, [r7, #4]
 8004040:	2200      	movs	r2, #0
 8004042:	f883 2024 	strb.w	r2, [r3, #36]	@ 0x24
  }
    
  /* Return function status */
  return tmp_hal_status;
 8004046:	7bfb      	ldrb	r3, [r7, #15]
}
 8004048:	4618      	mov	r0, r3
 800404a:	3710      	adds	r7, #16
 800404c:	46bd      	mov	sp, r7
 800404e:	bd80      	pop	{r7, pc}
 8004050:	40012800 	.word	0x40012800
 8004054:	40012400 	.word	0x40012400

08004058 <HAL_ADC_Stop>:
  *         should be preliminarily stopped using HAL_ADCEx_InjectedStop function.
  * @param  hadc: ADC handle
  * @retval HAL status.
  */
HAL_StatusTypeDef HAL_ADC_Stop(ADC_HandleTypeDef* hadc)
{
 8004058:	b580      	push	{r7, lr}
 800405a:	b084      	sub	sp, #16
 800405c:	af00      	add	r7, sp, #0
 800405e:	6078      	str	r0, [r7, #4]
  HAL_StatusTypeDef tmp_hal_status = HAL_OK;
 8004060:	2300      	movs	r3, #0
 8004062:	73fb      	strb	r3, [r7, #15]
  
  /* Check the parameters */
  assert_param(IS_ADC_ALL_INSTANCE(hadc->Instance));
     
  /* Process locked */
  __HAL_LOCK(hadc);
 8004064:	687b      	ldr	r3, [r7, #4]
 8004066:	f893 3024 	ldrb.w	r3, [r3, #36]	@ 0x24
 800406a:	2b01      	cmp	r3, #1
 800406c:	d101      	bne.n	8004072 <HAL_ADC_Stop+0x1a>
 800406e:	2302      	movs	r3, #2
 8004070:	e01a      	b.n	80040a8 <HAL_ADC_Stop+0x50>
 8004072:	687b      	ldr	r3, [r7, #4]
 8004074:	2201      	movs	r2, #1
 8004076:	f883 2024 	strb.w	r2, [r3, #36]	@ 0x24
  
  /* Stop potential conversion on going, on regular and injected groups */
  /* Disable ADC peripheral */
  tmp_hal_status = ADC_ConversionStop_Disable(hadc);
 800407a:	6878      	ldr	r0, [r7, #4]
 800407c:	f000 fa7c 	bl	8004578 <ADC_ConversionStop_Disable>
 8004080:	4603      	mov	r3, r0
 8004082:	73fb      	strb	r3, [r7, #15]
  
  /* Check if ADC is effectively disabled */
  if (tmp_hal_status == HAL_OK)
 8004084:	7bfb      	ldrb	r3, [r7, #15]
 8004086:	2b00      	cmp	r3, #0
 8004088:	d109      	bne.n	800409e <HAL_ADC_Stop+0x46>
  {
    /* Set ADC state */
    ADC_STATE_CLR_SET(hadc->State,
 800408a:	687b      	ldr	r3, [r7, #4]
 800408c:	6a9b      	ldr	r3, [r3, #40]	@ 0x28
 800408e:	f423 5388 	bic.w	r3, r3, #4352	@ 0x1100
 8004092:	f023 0301 	bic.w	r3, r3, #1
 8004096:	f043 0201 	orr.w	r2, r3, #1
 800409a:	687b      	ldr	r3, [r7, #4]
 800409c:	629a      	str	r2, [r3, #40]	@ 0x28
                      HAL_ADC_STATE_REG_BUSY | HAL_ADC_STATE_INJ_BUSY,
                      HAL_ADC_STATE_READY);
  }
  
  /* Process unlocked */
  __HAL_UNLOCK(hadc);
 800409e:	687b      	ldr	r3, [r7, #4]
 80040a0:	2200      	movs	r2, #0
 80040a2:	f883 2024 	strb.w	r2, [r3, #36]	@ 0x24
  
  /* Return function status */
  return tmp_hal_status;
 80040a6:	7bfb      	ldrb	r3, [r7, #15]
}
 80040a8:	4618      	mov	r0, r3
 80040aa:	3710      	adds	r7, #16
 80040ac:	46bd      	mov	sp, r7
 80040ae:	bd80      	pop	{r7, pc}

080040b0 <HAL_ADC_PollForConversion>:
  * @param  hadc: ADC handle
  * @param  Timeout: Timeout value in millisecond.
  * @retval HAL status
  */
HAL_StatusTypeDef HAL_ADC_PollForConversion(ADC_HandleTypeDef* hadc, uint32_t Timeout)
{
 80040b0:	b590      	push	{r4, r7, lr}
 80040b2:	b087      	sub	sp, #28
 80040b4:	af00      	add	r7, sp, #0
 80040b6:	6078      	str	r0, [r7, #4]
 80040b8:	6039      	str	r1, [r7, #0]
  uint32_t tickstart = 0U;
 80040ba:	2300      	movs	r3, #0
 80040bc:	617b      	str	r3, [r7, #20]
  
  /* Variables for polling in case of scan mode enabled and polling for each  */
  /* conversion.                                                              */
  __IO uint32_t Conversion_Timeout_CPU_cycles = 0U;
 80040be:	2300      	movs	r3, #0
 80040c0:	60fb      	str	r3, [r7, #12]
  uint32_t Conversion_Timeout_CPU_cycles_max = 0U;
 80040c2:	2300      	movs	r3, #0
 80040c4:	613b      	str	r3, [r7, #16]
 
  /* Check the parameters */
  assert_param(IS_ADC_ALL_INSTANCE(hadc->Instance));
  
  /* Get tick count */
  tickstart = HAL_GetTick();
 80040c6:	f7ff fe13 	bl	8003cf0 <HAL_GetTick>
 80040ca:	6178      	str	r0, [r7, #20]
  
  /* Verification that ADC configuration is compliant with polling for        */
  /* each conversion:                                                         */
  /* Particular case is ADC configured in DMA mode                            */
  if (HAL_IS_BIT_SET(hadc->Instance->CR2, ADC_CR2_DMA))
 80040cc:	687b      	ldr	r3, [r7, #4]
 80040ce:	681b      	ldr	r3, [r3, #0]
 80040d0:	689b      	ldr	r3, [r3, #8]
 80040d2:	f403 7380 	and.w	r3, r3, #256	@ 0x100
 80040d6:	2b00      	cmp	r3, #0
 80040d8:	d00b      	beq.n	80040f2 <HAL_ADC_PollForConversion+0x42>
  {
    /* Update ADC state machine to error */
    SET_BIT(hadc->State, HAL_ADC_STATE_ERROR_CONFIG);
 80040da:	687b      	ldr	r3, [r7, #4]
 80040dc:	6a9b      	ldr	r3, [r3, #40]	@ 0x28
 80040de:	f043 0220 	orr.w	r2, r3, #32
 80040e2:	687b      	ldr	r3, [r7, #4]
 80040e4:	629a      	str	r2, [r3, #40]	@ 0x28
    
    /* Process unlocked */
    __HAL_UNLOCK(hadc);
 80040e6:	687b      	ldr	r3, [r7, #4]
 80040e8:	2200      	movs	r2, #0
 80040ea:	f883 2024 	strb.w	r2, [r3, #36]	@ 0x24
    
    return HAL_ERROR;
 80040ee:	2301      	movs	r3, #1
 80040f0:	e0d3      	b.n	800429a <HAL_ADC_PollForConversion+0x1ea>
  /*    from ADC conversion time (selected sampling time + conversion time of */
  /*    12.5 ADC clock cycles) and APB2/ADC clock prescalers (depending on    */
  /*    settings, conversion time range can be from 28 to 32256 CPU cycles).  */
  /*    As flag EOC is not set after each conversion, no timeout status can   */
  /*    be set.                                                               */
  if (HAL_IS_BIT_CLR(hadc->Instance->CR1, ADC_CR1_SCAN) &&
 80040f2:	687b      	ldr	r3, [r7, #4]
 80040f4:	681b      	ldr	r3, [r3, #0]
 80040f6:	685b      	ldr	r3, [r3, #4]
 80040f8:	f403 7380 	and.w	r3, r3, #256	@ 0x100
 80040fc:	2b00      	cmp	r3, #0
 80040fe:	d131      	bne.n	8004164 <HAL_ADC_PollForConversion+0xb4>
      HAL_IS_BIT_CLR(hadc->Instance->SQR1, ADC_SQR1_L)    )
 8004100:	687b      	ldr	r3, [r7, #4]
 8004102:	681b      	ldr	r3, [r3, #0]
 8004104:	6adb      	ldr	r3, [r3, #44]	@ 0x2c
 8004106:	f403 0370 	and.w	r3, r3, #15728640	@ 0xf00000
  if (HAL_IS_BIT_CLR(hadc->Instance->CR1, ADC_CR1_SCAN) &&
 800410a:	2b00      	cmp	r3, #0
 800410c:	d12a      	bne.n	8004164 <HAL_ADC_PollForConversion+0xb4>
  {
    /* Wait until End of Conversion flag is raised */
    while(HAL_IS_BIT_CLR(hadc->Instance->SR, ADC_FLAG_EOC))
 800410e:	e021      	b.n	8004154 <HAL_ADC_PollForConversion+0xa4>
    {
      /* Check if timeout is disabled (set to infinite wait) */
      if(Timeout != HAL_MAX_DELAY)
 8004110:	683b      	ldr	r3, [r7, #0]
 8004112:	f1b3 3fff 	cmp.w	r3, #4294967295
 8004116:	d01d      	beq.n	8004154 <HAL_ADC_PollForConversion+0xa4>
      {
        if((Timeout == 0U) || ((HAL_GetTick() - tickstart ) > Timeout))
 8004118:	683b      	ldr	r3, [r7, #0]
 800411a:	2b00      	cmp	r3, #0
 800411c:	d007      	beq.n	800412e <HAL_ADC_PollForConversion+0x7e>
 800411e:	f7ff fde7 	bl	8003cf0 <HAL_GetTick>
 8004122:	4602      	mov	r2, r0
 8004124:	697b      	ldr	r3, [r7, #20]
 8004126:	1ad3      	subs	r3, r2, r3
 8004128:	683a      	ldr	r2, [r7, #0]
 800412a:	429a      	cmp	r2, r3
 800412c:	d212      	bcs.n	8004154 <HAL_ADC_PollForConversion+0xa4>
        {
          /* New check to avoid false timeout detection in case of preemption */
          if(HAL_IS_BIT_CLR(hadc->Instance->SR, ADC_FLAG_EOC))
 800412e:	687b      	ldr	r3, [r7, #4]
 8004130:	681b      	ldr	r3, [r3, #0]
 8004132:	681b      	ldr	r3, [r3, #0]
 8004134:	f003 0302 	and.w	r3, r3, #2
 8004138:	2b00      	cmp	r3, #0
 800413a:	d10b      	bne.n	8004154 <HAL_ADC_PollForConversion+0xa4>
          {
            /* Update ADC state machine to timeout */
            SET_BIT(hadc->State, HAL_ADC_STATE_TIMEOUT);
 800413c:	687b      	ldr	r3, [r7, #4]
 800413e:	6a9b      	ldr	r3, [r3, #40]	@ 0x28
 8004140:	f043 0204 	orr.w	r2, r3, #4
 8004144:	687b      	ldr	r3, [r7, #4]
 8004146:	629a      	str	r2, [r3, #40]	@ 0x28
            
            /* Process unlocked */
            __HAL_UNLOCK(hadc);
 8004148:	687b      	ldr	r3, [r7, #4]
 800414a:	2200      	movs	r2, #0
 800414c:	f883 2024 	strb.w	r2, [r3, #36]	@ 0x24
            
            return HAL_TIMEOUT;
 8004150:	2303      	movs	r3, #3
 8004152:	e0a2      	b.n	800429a <HAL_ADC_PollForConversion+0x1ea>
    while(HAL_IS_BIT_CLR(hadc->Instance->SR, ADC_FLAG_EOC))
 8004154:	687b      	ldr	r3, [r7, #4]
 8004156:	681b      	ldr	r3, [r3, #0]
 8004158:	681b      	ldr	r3, [r3, #0]
 800415a:	f003 0302 	and.w	r3, r3, #2
 800415e:	2b00      	cmp	r3, #0
 8004160:	d0d6      	beq.n	8004110 <HAL_ADC_PollForConversion+0x60>
  if (HAL_IS_BIT_CLR(hadc->Instance->CR1, ADC_CR1_SCAN) &&
 8004162:	e070      	b.n	8004246 <HAL_ADC_PollForConversion+0x196>
    /* Replace polling by wait for maximum conversion time */
    /*  - Computation of CPU clock cycles corresponding to ADC clock cycles   */
    /*    and ADC maximum conversion cycles on all channels.                  */
    /*  - Wait for the expected ADC clock cycles delay                        */
    Conversion_Timeout_CPU_cycles_max = ((SystemCoreClock
                                          / HAL_RCCEx_GetPeriphCLKFreq(RCC_PERIPHCLK_ADC))
 8004164:	4b4f      	ldr	r3, [pc, #316]	@ (80042a4 <HAL_ADC_PollForConversion+0x1f4>)
 8004166:	681c      	ldr	r4, [r3, #0]
 8004168:	2002      	movs	r0, #2
 800416a:	f002 facd 	bl	8006708 <HAL_RCCEx_GetPeriphCLKFreq>
 800416e:	4603      	mov	r3, r0
 8004170:	fbb4 f2f3 	udiv	r2, r4, r3
                                         * ADC_CONVCYCLES_MAX_RANGE(hadc)                 );
 8004174:	687b      	ldr	r3, [r7, #4]
 8004176:	681b      	ldr	r3, [r3, #0]
 8004178:	6919      	ldr	r1, [r3, #16]
 800417a:	4b4b      	ldr	r3, [pc, #300]	@ (80042a8 <HAL_ADC_PollForConversion+0x1f8>)
 800417c:	400b      	ands	r3, r1
 800417e:	2b00      	cmp	r3, #0
 8004180:	d118      	bne.n	80041b4 <HAL_ADC_PollForConversion+0x104>
 8004182:	687b      	ldr	r3, [r7, #4]
 8004184:	681b      	ldr	r3, [r3, #0]
 8004186:	68d9      	ldr	r1, [r3, #12]
 8004188:	4b48      	ldr	r3, [pc, #288]	@ (80042ac <HAL_ADC_PollForConversion+0x1fc>)
 800418a:	400b      	ands	r3, r1
 800418c:	2b00      	cmp	r3, #0
 800418e:	d111      	bne.n	80041b4 <HAL_ADC_PollForConversion+0x104>
 8004190:	687b      	ldr	r3, [r7, #4]
 8004192:	681b      	ldr	r3, [r3, #0]
 8004194:	6919      	ldr	r1, [r3, #16]
 8004196:	4b46      	ldr	r3, [pc, #280]	@ (80042b0 <HAL_ADC_PollForConversion+0x200>)
 8004198:	400b      	ands	r3, r1
 800419a:	2b00      	cmp	r3, #0
 800419c:	d108      	bne.n	80041b0 <HAL_ADC_PollForConversion+0x100>
 800419e:	687b      	ldr	r3, [r7, #4]
 80041a0:	681b      	ldr	r3, [r3, #0]
 80041a2:	68d9      	ldr	r1, [r3, #12]
 80041a4:	4b43      	ldr	r3, [pc, #268]	@ (80042b4 <HAL_ADC_PollForConversion+0x204>)
 80041a6:	400b      	ands	r3, r1
 80041a8:	2b00      	cmp	r3, #0
 80041aa:	d101      	bne.n	80041b0 <HAL_ADC_PollForConversion+0x100>
 80041ac:	2314      	movs	r3, #20
 80041ae:	e020      	b.n	80041f2 <HAL_ADC_PollForConversion+0x142>
 80041b0:	2329      	movs	r3, #41	@ 0x29
 80041b2:	e01e      	b.n	80041f2 <HAL_ADC_PollForConversion+0x142>
 80041b4:	687b      	ldr	r3, [r7, #4]
 80041b6:	681b      	ldr	r3, [r3, #0]
 80041b8:	6919      	ldr	r1, [r3, #16]
 80041ba:	4b3d      	ldr	r3, [pc, #244]	@ (80042b0 <HAL_ADC_PollForConversion+0x200>)
 80041bc:	400b      	ands	r3, r1
 80041be:	2b00      	cmp	r3, #0
 80041c0:	d106      	bne.n	80041d0 <HAL_ADC_PollForConversion+0x120>
 80041c2:	687b      	ldr	r3, [r7, #4]
 80041c4:	681b      	ldr	r3, [r3, #0]
 80041c6:	68d9      	ldr	r1, [r3, #12]
 80041c8:	4b3a      	ldr	r3, [pc, #232]	@ (80042b4 <HAL_ADC_PollForConversion+0x204>)
 80041ca:	400b      	ands	r3, r1
 80041cc:	2b00      	cmp	r3, #0
 80041ce:	d00d      	beq.n	80041ec <HAL_ADC_PollForConversion+0x13c>
 80041d0:	687b      	ldr	r3, [r7, #4]
 80041d2:	681b      	ldr	r3, [r3, #0]
 80041d4:	6919      	ldr	r1, [r3, #16]
 80041d6:	4b38      	ldr	r3, [pc, #224]	@ (80042b8 <HAL_ADC_PollForConversion+0x208>)
 80041d8:	400b      	ands	r3, r1
 80041da:	2b00      	cmp	r3, #0
 80041dc:	d108      	bne.n	80041f0 <HAL_ADC_PollForConversion+0x140>
 80041de:	687b      	ldr	r3, [r7, #4]
 80041e0:	681b      	ldr	r3, [r3, #0]
 80041e2:	68d9      	ldr	r1, [r3, #12]
 80041e4:	4b34      	ldr	r3, [pc, #208]	@ (80042b8 <HAL_ADC_PollForConversion+0x208>)
 80041e6:	400b      	ands	r3, r1
 80041e8:	2b00      	cmp	r3, #0
 80041ea:	d101      	bne.n	80041f0 <HAL_ADC_PollForConversion+0x140>
 80041ec:	2354      	movs	r3, #84	@ 0x54
 80041ee:	e000      	b.n	80041f2 <HAL_ADC_PollForConversion+0x142>
 80041f0:	23fc      	movs	r3, #252	@ 0xfc
    Conversion_Timeout_CPU_cycles_max = ((SystemCoreClock
 80041f2:	fb02 f303 	mul.w	r3, r2, r3
 80041f6:	613b      	str	r3, [r7, #16]
    
    while(Conversion_Timeout_CPU_cycles < Conversion_Timeout_CPU_cycles_max)
 80041f8:	e021      	b.n	800423e <HAL_ADC_PollForConversion+0x18e>
    {
      /* Check if timeout is disabled (set to infinite wait) */
      if(Timeout != HAL_MAX_DELAY)
 80041fa:	683b      	ldr	r3, [r7, #0]
 80041fc:	f1b3 3fff 	cmp.w	r3, #4294967295
 8004200:	d01a      	beq.n	8004238 <HAL_ADC_PollForConversion+0x188>
      {
        if((Timeout == 0U) || ((HAL_GetTick() - tickstart) > Timeout))
 8004202:	683b      	ldr	r3, [r7, #0]
 8004204:	2b00      	cmp	r3, #0
 8004206:	d007      	beq.n	8004218 <HAL_ADC_PollForConversion+0x168>
 8004208:	f7ff fd72 	bl	8003cf0 <HAL_GetTick>
 800420c:	4602      	mov	r2, r0
 800420e:	697b      	ldr	r3, [r7, #20]
 8004210:	1ad3      	subs	r3, r2, r3
 8004212:	683a      	ldr	r2, [r7, #0]
 8004214:	429a      	cmp	r2, r3
 8004216:	d20f      	bcs.n	8004238 <HAL_ADC_PollForConversion+0x188>
        {
          /* New check to avoid false timeout detection in case of preemption */
          if(Conversion_Timeout_CPU_cycles < Conversion_Timeout_CPU_cycles_max)
 8004218:	68fb      	ldr	r3, [r7, #12]
 800421a:	693a      	ldr	r2, [r7, #16]
 800421c:	429a      	cmp	r2, r3
 800421e:	d90b      	bls.n	8004238 <HAL_ADC_PollForConversion+0x188>
          {
            /* Update ADC state machine to timeout */
            SET_BIT(hadc->State, HAL_ADC_STATE_TIMEOUT);
 8004220:	687b      	ldr	r3, [r7, #4]
 8004222:	6a9b      	ldr	r3, [r3, #40]	@ 0x28
 8004224:	f043 0204 	orr.w	r2, r3, #4
 8004228:	687b      	ldr	r3, [r7, #4]
 800422a:	629a      	str	r2, [r3, #40]	@ 0x28

            /* Process unlocked */
            __HAL_UNLOCK(hadc);
 800422c:	687b      	ldr	r3, [r7, #4]
 800422e:	2200      	movs	r2, #0
 8004230:	f883 2024 	strb.w	r2, [r3, #36]	@ 0x24

            return HAL_TIMEOUT;
 8004234:	2303      	movs	r3, #3
 8004236:	e030      	b.n	800429a <HAL_ADC_PollForConversion+0x1ea>
          }
        }
      }
      Conversion_Timeout_CPU_cycles ++;
 8004238:	68fb      	ldr	r3, [r7, #12]
 800423a:	3301      	adds	r3, #1
 800423c:	60fb      	str	r3, [r7, #12]
    while(Conversion_Timeout_CPU_cycles < Conversion_Timeout_CPU_cycles_max)
 800423e:	68fb      	ldr	r3, [r7, #12]
 8004240:	693a      	ldr	r2, [r7, #16]
 8004242:	429a      	cmp	r2, r3
 8004244:	d8d9      	bhi.n	80041fa <HAL_ADC_PollForConversion+0x14a>
    }
  }
  
  /* Clear regular group conversion flag */
  __HAL_ADC_CLEAR_FLAG(hadc, ADC_FLAG_STRT | ADC_FLAG_EOC);
 8004246:	687b      	ldr	r3, [r7, #4]
 8004248:	681b      	ldr	r3, [r3, #0]
 800424a:	f06f 0212 	mvn.w	r2, #18
 800424e:	601a      	str	r2, [r3, #0]
  
  /* Update ADC state machine */
  SET_BIT(hadc->State, HAL_ADC_STATE_REG_EOC);
 8004250:	687b      	ldr	r3, [r7, #4]
 8004252:	6a9b      	ldr	r3, [r3, #40]	@ 0x28
 8004254:	f443 7200 	orr.w	r2, r3, #512	@ 0x200
 8004258:	687b      	ldr	r3, [r7, #4]
 800425a:	629a      	str	r2, [r3, #40]	@ 0x28
  /* Determine whether any further conversion upcoming on group regular       */
  /* by external trigger, continuous mode or scan sequence on going.          */
  /* Note: On STM32F1 devices, in case of sequencer enabled                   */
  /*       (several ranks selected), end of conversion flag is raised         */
  /*       at the end of the sequence.                                        */
  if(ADC_IS_SOFTWARE_START_REGULAR(hadc)        && 
 800425c:	687b      	ldr	r3, [r7, #4]
 800425e:	681b      	ldr	r3, [r3, #0]
 8004260:	689b      	ldr	r3, [r3, #8]
 8004262:	f403 2360 	and.w	r3, r3, #917504	@ 0xe0000
 8004266:	f5b3 2f60 	cmp.w	r3, #917504	@ 0xe0000
 800426a:	d115      	bne.n	8004298 <HAL_ADC_PollForConversion+0x1e8>
     (hadc->Init.ContinuousConvMode == DISABLE)   )
 800426c:	687b      	ldr	r3, [r7, #4]
 800426e:	7b1b      	ldrb	r3, [r3, #12]
  if(ADC_IS_SOFTWARE_START_REGULAR(hadc)        && 
 8004270:	2b00      	cmp	r3, #0
 8004272:	d111      	bne.n	8004298 <HAL_ADC_PollForConversion+0x1e8>
  {   
    /* Set ADC state */
    CLEAR_BIT(hadc->State, HAL_ADC_STATE_REG_BUSY);   
 8004274:	687b      	ldr	r3, [r7, #4]
 8004276:	6a9b      	ldr	r3, [r3, #40]	@ 0x28
 8004278:	f423 7280 	bic.w	r2, r3, #256	@ 0x100
 800427c:	687b      	ldr	r3, [r7, #4]
 800427e:	629a      	str	r2, [r3, #40]	@ 0x28

    if (HAL_IS_BIT_CLR(hadc->State, HAL_ADC_STATE_INJ_BUSY))
 8004280:	687b      	ldr	r3, [r7, #4]
 8004282:	6a9b      	ldr	r3, [r3, #40]	@ 0x28
 8004284:	f403 5380 	and.w	r3, r3, #4096	@ 0x1000
 8004288:	2b00      	cmp	r3, #0
 800428a:	d105      	bne.n	8004298 <HAL_ADC_PollForConversion+0x1e8>
    { 
      SET_BIT(hadc->State, HAL_ADC_STATE_READY);
 800428c:	687b      	ldr	r3, [r7, #4]
 800428e:	6a9b      	ldr	r3, [r3, #40]	@ 0x28
 8004290:	f043 0201 	orr.w	r2, r3, #1
 8004294:	687b      	ldr	r3, [r7, #4]
 8004296:	629a      	str	r2, [r3, #40]	@ 0x28
    }
  }
  
  /* Return ADC state */
  return HAL_OK;
 8004298:	2300      	movs	r3, #0
}
 800429a:	4618      	mov	r0, r3
 800429c:	371c      	adds	r7, #28
 800429e:	46bd      	mov	sp, r7
 80042a0:	bd90      	pop	{r4, r7, pc}
 80042a2:	bf00      	nop
 80042a4:	20000068 	.word	0x20000068
 80042a8:	24924924 	.word	0x24924924
 80042ac:	00924924 	.word	0x00924924
 80042b0:	12492492 	.word	0x12492492
 80042b4:	00492492 	.word	0x00492492
 80042b8:	00249249 	.word	0x00249249

080042bc <HAL_ADC_GetValue>:
  *         or @ref __HAL_ADC_CLEAR_FLAG(&hadc, ADC_FLAG_EOS).
  * @param  hadc: ADC handle
  * @retval ADC group regular conversion data
  */
uint32_t HAL_ADC_GetValue(ADC_HandleTypeDef* hadc)
{
 80042bc:	b480      	push	{r7}
 80042be:	b083      	sub	sp, #12
 80042c0:	af00      	add	r7, sp, #0
 80042c2:	6078      	str	r0, [r7, #4]

  /* Note: EOC flag is not cleared here by software because automatically     */
  /*       cleared by hardware when reading register DR.                      */
  
  /* Return ADC converted value */ 
  return hadc->Instance->DR;
 80042c4:	687b      	ldr	r3, [r7, #4]
 80042c6:	681b      	ldr	r3, [r3, #0]
 80042c8:	6cdb      	ldr	r3, [r3, #76]	@ 0x4c
}
 80042ca:	4618      	mov	r0, r3
 80042cc:	370c      	adds	r7, #12
 80042ce:	46bd      	mov	sp, r7
 80042d0:	bc80      	pop	{r7}
 80042d2:	4770      	bx	lr

080042d4 <HAL_ADC_ConfigChannel>:
  * @param  hadc: ADC handle
  * @param  sConfig: Structure of ADC channel for regular group.
  * @retval HAL status
  */
HAL_StatusTypeDef HAL_ADC_ConfigChannel(ADC_HandleTypeDef* hadc, ADC_ChannelConfTypeDef* sConfig)
{ 
 80042d4:	b480      	push	{r7}
 80042d6:	b085      	sub	sp, #20
 80042d8:	af00      	add	r7, sp, #0
 80042da:	6078      	str	r0, [r7, #4]
 80042dc:	6039      	str	r1, [r7, #0]
  HAL_StatusTypeDef tmp_hal_status = HAL_OK;
 80042de:	2300      	movs	r3, #0
 80042e0:	73fb      	strb	r3, [r7, #15]
  __IO uint32_t wait_loop_index = 0U;
 80042e2:	2300      	movs	r3, #0
 80042e4:	60bb      	str	r3, [r7, #8]
  assert_param(IS_ADC_CHANNEL(sConfig->Channel));
  assert_param(IS_ADC_REGULAR_RANK(sConfig->Rank));
  assert_param(IS_ADC_SAMPLE_TIME(sConfig->SamplingTime));
  
  /* Process locked */
  __HAL_LOCK(hadc);
 80042e6:	687b      	ldr	r3, [r7, #4]
 80042e8:	f893 3024 	ldrb.w	r3, [r3, #36]	@ 0x24
 80042ec:	2b01      	cmp	r3, #1
 80042ee:	d101      	bne.n	80042f4 <HAL_ADC_ConfigChannel+0x20>
 80042f0:	2302      	movs	r3, #2
 80042f2:	e0dc      	b.n	80044ae <HAL_ADC_ConfigChannel+0x1da>
 80042f4:	687b      	ldr	r3, [r7, #4]
 80042f6:	2201      	movs	r2, #1
 80042f8:	f883 2024 	strb.w	r2, [r3, #36]	@ 0x24
  
  
  /* Regular sequence configuration */
  /* For Rank 1 to 6 */
  if (sConfig->Rank < 7U)
 80042fc:	683b      	ldr	r3, [r7, #0]
 80042fe:	685b      	ldr	r3, [r3, #4]
 8004300:	2b06      	cmp	r3, #6
 8004302:	d81c      	bhi.n	800433e <HAL_ADC_ConfigChannel+0x6a>
  {
    MODIFY_REG(hadc->Instance->SQR3                        ,
 8004304:	687b      	ldr	r3, [r7, #4]
 8004306:	681b      	ldr	r3, [r3, #0]
 8004308:	6b59      	ldr	r1, [r3, #52]	@ 0x34
 800430a:	683b      	ldr	r3, [r7, #0]
 800430c:	685a      	ldr	r2, [r3, #4]
 800430e:	4613      	mov	r3, r2
 8004310:	009b      	lsls	r3, r3, #2
 8004312:	4413      	add	r3, r2
 8004314:	3b05      	subs	r3, #5
 8004316:	221f      	movs	r2, #31
 8004318:	fa02 f303 	lsl.w	r3, r2, r3
 800431c:	43db      	mvns	r3, r3
 800431e:	4019      	ands	r1, r3
 8004320:	683b      	ldr	r3, [r7, #0]
 8004322:	6818      	ldr	r0, [r3, #0]
 8004324:	683b      	ldr	r3, [r7, #0]
 8004326:	685a      	ldr	r2, [r3, #4]
 8004328:	4613      	mov	r3, r2
 800432a:	009b      	lsls	r3, r3, #2
 800432c:	4413      	add	r3, r2
 800432e:	3b05      	subs	r3, #5
 8004330:	fa00 f203 	lsl.w	r2, r0, r3
 8004334:	687b      	ldr	r3, [r7, #4]
 8004336:	681b      	ldr	r3, [r3, #0]
 8004338:	430a      	orrs	r2, r1
 800433a:	635a      	str	r2, [r3, #52]	@ 0x34
 800433c:	e03c      	b.n	80043b8 <HAL_ADC_ConfigChannel+0xe4>
               ADC_SQR3_RK(ADC_SQR3_SQ1, sConfig->Rank)    ,
               ADC_SQR3_RK(sConfig->Channel, sConfig->Rank) );
  }
  /* For Rank 7 to 12 */
  else if (sConfig->Rank < 13U)
 800433e:	683b      	ldr	r3, [r7, #0]
 8004340:	685b      	ldr	r3, [r3, #4]
 8004342:	2b0c      	cmp	r3, #12
 8004344:	d81c      	bhi.n	8004380 <HAL_ADC_ConfigChannel+0xac>
  {
    MODIFY_REG(hadc->Instance->SQR2                        ,
 8004346:	687b      	ldr	r3, [r7, #4]
 8004348:	681b      	ldr	r3, [r3, #0]
 800434a:	6b19      	ldr	r1, [r3, #48]	@ 0x30
 800434c:	683b      	ldr	r3, [r7, #0]
 800434e:	685a      	ldr	r2, [r3, #4]
 8004350:	4613      	mov	r3, r2
 8004352:	009b      	lsls	r3, r3, #2
 8004354:	4413      	add	r3, r2
 8004356:	3b23      	subs	r3, #35	@ 0x23
 8004358:	221f      	movs	r2, #31
 800435a:	fa02 f303 	lsl.w	r3, r2, r3
 800435e:	43db      	mvns	r3, r3
 8004360:	4019      	ands	r1, r3
 8004362:	683b      	ldr	r3, [r7, #0]
 8004364:	6818      	ldr	r0, [r3, #0]
 8004366:	683b      	ldr	r3, [r7, #0]
 8004368:	685a      	ldr	r2, [r3, #4]
 800436a:	4613      	mov	r3, r2
 800436c:	009b      	lsls	r3, r3, #2
 800436e:	4413      	add	r3, r2
 8004370:	3b23      	subs	r3, #35	@ 0x23
 8004372:	fa00 f203 	lsl.w	r2, r0, r3
 8004376:	687b      	ldr	r3, [r7, #4]
 8004378:	681b      	ldr	r3, [r3, #0]
 800437a:	430a      	orrs	r2, r1
 800437c:	631a      	str	r2, [r3, #48]	@ 0x30
 800437e:	e01b      	b.n	80043b8 <HAL_ADC_ConfigChannel+0xe4>
               ADC_SQR2_RK(sConfig->Channel, sConfig->Rank) );
  }
  /* For Rank 13 to 16 */
  else
  {
    MODIFY_REG(hadc->Instance->SQR1                        ,
 8004380:	687b      	ldr	r3, [r7, #4]
 8004382:	681b      	ldr	r3, [r3, #0]
 8004384:	6ad9      	ldr	r1, [r3, #44]	@ 0x2c
 8004386:	683b      	ldr	r3, [r7, #0]
 8004388:	685a      	ldr	r2, [r3, #4]
 800438a:	4613      	mov	r3, r2
 800438c:	009b      	lsls	r3, r3, #2
 800438e:	4413      	add	r3, r2
 8004390:	3b41      	subs	r3, #65	@ 0x41
 8004392:	221f      	movs	r2, #31
 8004394:	fa02 f303 	lsl.w	r3, r2, r3
 8004398:	43db      	mvns	r3, r3
 800439a:	4019      	ands	r1, r3
 800439c:	683b      	ldr	r3, [r7, #0]
 800439e:	6818      	ldr	r0, [r3, #0]
 80043a0:	683b      	ldr	r3, [r7, #0]
 80043a2:	685a      	ldr	r2, [r3, #4]
 80043a4:	4613      	mov	r3, r2
 80043a6:	009b      	lsls	r3, r3, #2
 80043a8:	4413      	add	r3, r2
 80043aa:	3b41      	subs	r3, #65	@ 0x41
 80043ac:	fa00 f203 	lsl.w	r2, r0, r3
 80043b0:	687b      	ldr	r3, [r7, #4]
 80043b2:	681b      	ldr	r3, [r3, #0]
 80043b4:	430a      	orrs	r2, r1
 80043b6:	62da      	str	r2, [r3, #44]	@ 0x2c
  }
  
  
  /* Channel sampling time configuration */
  /* For channels 10 to 17 */
  if (sConfig->Channel >= ADC_CHANNEL_10)
 80043b8:	683b      	ldr	r3, [r7, #0]
 80043ba:	681b      	ldr	r3, [r3, #0]
 80043bc:	2b09      	cmp	r3, #9
 80043be:	d91c      	bls.n	80043fa <HAL_ADC_ConfigChannel+0x126>
  {
    MODIFY_REG(hadc->Instance->SMPR1                             ,
 80043c0:	687b      	ldr	r3, [r7, #4]
 80043c2:	681b      	ldr	r3, [r3, #0]
 80043c4:	68d9      	ldr	r1, [r3, #12]
 80043c6:	683b      	ldr	r3, [r7, #0]
 80043c8:	681a      	ldr	r2, [r3, #0]
 80043ca:	4613      	mov	r3, r2
 80043cc:	005b      	lsls	r3, r3, #1
 80043ce:	4413      	add	r3, r2
 80043d0:	3b1e      	subs	r3, #30
 80043d2:	2207      	movs	r2, #7
 80043d4:	fa02 f303 	lsl.w	r3, r2, r3
 80043d8:	43db      	mvns	r3, r3
 80043da:	4019      	ands	r1, r3
 80043dc:	683b      	ldr	r3, [r7, #0]
 80043de:	6898      	ldr	r0, [r3, #8]
 80043e0:	683b      	ldr	r3, [r7, #0]
 80043e2:	681a      	ldr	r2, [r3, #0]
 80043e4:	4613      	mov	r3, r2
 80043e6:	005b      	lsls	r3, r3, #1
 80043e8:	4413      	add	r3, r2
 80043ea:	3b1e      	subs	r3, #30
 80043ec:	fa00 f203 	lsl.w	r2, r0, r3
 80043f0:	687b      	ldr	r3, [r7, #4]
 80043f2:	681b      	ldr	r3, [r3, #0]
 80043f4:	430a      	orrs	r2, r1
 80043f6:	60da      	str	r2, [r3, #12]
 80043f8:	e019      	b.n	800442e <HAL_ADC_ConfigChannel+0x15a>
               ADC_SMPR1(ADC_SMPR1_SMP10, sConfig->Channel)      ,
               ADC_SMPR1(sConfig->SamplingTime, sConfig->Channel) );
  }
  else /* For channels 0 to 9 */
  {
    MODIFY_REG(hadc->Instance->SMPR2                             ,
 80043fa:	687b      	ldr	r3, [r7, #4]
 80043fc:	681b      	ldr	r3, [r3, #0]
 80043fe:	6919      	ldr	r1, [r3, #16]
 8004400:	683b      	ldr	r3, [r7, #0]
 8004402:	681a      	ldr	r2, [r3, #0]
 8004404:	4613      	mov	r3, r2
 8004406:	005b      	lsls	r3, r3, #1
 8004408:	4413      	add	r3, r2
 800440a:	2207      	movs	r2, #7
 800440c:	fa02 f303 	lsl.w	r3, r2, r3
 8004410:	43db      	mvns	r3, r3
 8004412:	4019      	ands	r1, r3
 8004414:	683b      	ldr	r3, [r7, #0]
 8004416:	6898      	ldr	r0, [r3, #8]
 8004418:	683b      	ldr	r3, [r7, #0]
 800441a:	681a      	ldr	r2, [r3, #0]
 800441c:	4613      	mov	r3, r2
 800441e:	005b      	lsls	r3, r3, #1
 8004420:	4413      	add	r3, r2
 8004422:	fa00 f203 	lsl.w	r2, r0, r3
 8004426:	687b      	ldr	r3, [r7, #4]
 8004428:	681b      	ldr	r3, [r3, #0]
 800442a:	430a      	orrs	r2, r1
 800442c:	611a      	str	r2, [r3, #16]
               ADC_SMPR2(sConfig->SamplingTime, sConfig->Channel) );
  }
  
  /* If ADC1 Channel_16 or Channel_17 is selected, enable Temperature sensor  */
  /* and VREFINT measurement path.                                            */
  if ((sConfig->Channel == ADC_CHANNEL_TEMPSENSOR) ||
 800442e:	683b      	ldr	r3, [r7, #0]
 8004430:	681b      	ldr	r3, [r3, #0]
 8004432:	2b10      	cmp	r3, #16
 8004434:	d003      	beq.n	800443e <HAL_ADC_ConfigChannel+0x16a>
      (sConfig->Channel == ADC_CHANNEL_VREFINT)      )
 8004436:	683b      	ldr	r3, [r7, #0]
 8004438:	681b      	ldr	r3, [r3, #0]
  if ((sConfig->Channel == ADC_CHANNEL_TEMPSENSOR) ||
 800443a:	2b11      	cmp	r3, #17
 800443c:	d132      	bne.n	80044a4 <HAL_ADC_ConfigChannel+0x1d0>
  {
    /* For STM32F1 devices with several ADC: Only ADC1 can access internal    */
    /* measurement channels (VrefInt/TempSensor). If these channels are       */
    /* intended to be set on other ADC instances, an error is reported.       */
    if (hadc->Instance == ADC1)
 800443e:	687b      	ldr	r3, [r7, #4]
 8004440:	681b      	ldr	r3, [r3, #0]
 8004442:	4a1d      	ldr	r2, [pc, #116]	@ (80044b8 <HAL_ADC_ConfigChannel+0x1e4>)
 8004444:	4293      	cmp	r3, r2
 8004446:	d125      	bne.n	8004494 <HAL_ADC_ConfigChannel+0x1c0>
    {
      if (READ_BIT(hadc->Instance->CR2, ADC_CR2_TSVREFE) == RESET)
 8004448:	687b      	ldr	r3, [r7, #4]
 800444a:	681b      	ldr	r3, [r3, #0]
 800444c:	689b      	ldr	r3, [r3, #8]
 800444e:	f403 0300 	and.w	r3, r3, #8388608	@ 0x800000
 8004452:	2b00      	cmp	r3, #0
 8004454:	d126      	bne.n	80044a4 <HAL_ADC_ConfigChannel+0x1d0>
      {
        SET_BIT(hadc->Instance->CR2, ADC_CR2_TSVREFE);
 8004456:	687b      	ldr	r3, [r7, #4]
 8004458:	681b      	ldr	r3, [r3, #0]
 800445a:	689a      	ldr	r2, [r3, #8]
 800445c:	687b      	ldr	r3, [r7, #4]
 800445e:	681b      	ldr	r3, [r3, #0]
 8004460:	f442 0200 	orr.w	r2, r2, #8388608	@ 0x800000
 8004464:	609a      	str	r2, [r3, #8]
        
        if (sConfig->Channel == ADC_CHANNEL_TEMPSENSOR)
 8004466:	683b      	ldr	r3, [r7, #0]
 8004468:	681b      	ldr	r3, [r3, #0]
 800446a:	2b10      	cmp	r3, #16
 800446c:	d11a      	bne.n	80044a4 <HAL_ADC_ConfigChannel+0x1d0>
        {
          /* Delay for temperature sensor stabilization time */
          /* Compute number of CPU cycles to wait for */
          wait_loop_index = (ADC_TEMPSENSOR_DELAY_US * (SystemCoreClock / 1000000U));
 800446e:	4b13      	ldr	r3, [pc, #76]	@ (80044bc <HAL_ADC_ConfigChannel+0x1e8>)
 8004470:	681b      	ldr	r3, [r3, #0]
 8004472:	4a13      	ldr	r2, [pc, #76]	@ (80044c0 <HAL_ADC_ConfigChannel+0x1ec>)
 8004474:	fba2 2303 	umull	r2, r3, r2, r3
 8004478:	0c9a      	lsrs	r2, r3, #18
 800447a:	4613      	mov	r3, r2
 800447c:	009b      	lsls	r3, r3, #2
 800447e:	4413      	add	r3, r2
 8004480:	005b      	lsls	r3, r3, #1
 8004482:	60bb      	str	r3, [r7, #8]
          while(wait_loop_index != 0U)
 8004484:	e002      	b.n	800448c <HAL_ADC_ConfigChannel+0x1b8>
          {
            wait_loop_index--;
 8004486:	68bb      	ldr	r3, [r7, #8]
 8004488:	3b01      	subs	r3, #1
 800448a:	60bb      	str	r3, [r7, #8]
          while(wait_loop_index != 0U)
 800448c:	68bb      	ldr	r3, [r7, #8]
 800448e:	2b00      	cmp	r3, #0
 8004490:	d1f9      	bne.n	8004486 <HAL_ADC_ConfigChannel+0x1b2>
 8004492:	e007      	b.n	80044a4 <HAL_ADC_ConfigChannel+0x1d0>
      }
    }
    else
    {
      /* Update ADC state machine to error */
      SET_BIT(hadc->State, HAL_ADC_STATE_ERROR_CONFIG);
 8004494:	687b      	ldr	r3, [r7, #4]
 8004496:	6a9b      	ldr	r3, [r3, #40]	@ 0x28
 8004498:	f043 0220 	orr.w	r2, r3, #32
 800449c:	687b      	ldr	r3, [r7, #4]
 800449e:	629a      	str	r2, [r3, #40]	@ 0x28
      
      tmp_hal_status = HAL_ERROR;
 80044a0:	2301      	movs	r3, #1
 80044a2:	73fb      	strb	r3, [r7, #15]
    }
  }
  
  /* Process unlocked */
  __HAL_UNLOCK(hadc);
 80044a4:	687b      	ldr	r3, [r7, #4]
 80044a6:	2200      	movs	r2, #0
 80044a8:	f883 2024 	strb.w	r2, [r3, #36]	@ 0x24
  
  /* Return function status */
  return tmp_hal_status;
 80044ac:	7bfb      	ldrb	r3, [r7, #15]
}
 80044ae:	4618      	mov	r0, r3
 80044b0:	3714      	adds	r7, #20
 80044b2:	46bd      	mov	sp, r7
 80044b4:	bc80      	pop	{r7}
 80044b6:	4770      	bx	lr
 80044b8:	40012400 	.word	0x40012400
 80044bc:	20000068 	.word	0x20000068
 80044c0:	431bde83 	.word	0x431bde83

080044c4 <ADC_Enable>:
  *         and voltage regulator must be enabled (done into HAL_ADC_Init()).
  * @param  hadc: ADC handle
  * @retval HAL status.
  */
HAL_StatusTypeDef ADC_Enable(ADC_HandleTypeDef* hadc)
{
 80044c4:	b580      	push	{r7, lr}
 80044c6:	b084      	sub	sp, #16
 80044c8:	af00      	add	r7, sp, #0
 80044ca:	6078      	str	r0, [r7, #4]
  uint32_t tickstart = 0U;
 80044cc:	2300      	movs	r3, #0
 80044ce:	60fb      	str	r3, [r7, #12]
  __IO uint32_t wait_loop_index = 0U;
 80044d0:	2300      	movs	r3, #0
 80044d2:	60bb      	str	r3, [r7, #8]
  
  /* ADC enable and wait for ADC ready (in case of ADC is disabled or         */
  /* enabling phase not yet completed: flag ADC ready not yet set).           */
  /* Timeout implemented to not be stuck if ADC cannot be enabled (possible   */
  /* causes: ADC clock not running, ...).                                     */
  if (ADC_IS_ENABLE(hadc) == RESET)
 80044d4:	687b      	ldr	r3, [r7, #4]
 80044d6:	681b      	ldr	r3, [r3, #0]
 80044d8:	689b      	ldr	r3, [r3, #8]
 80044da:	f003 0301 	and.w	r3, r3, #1
 80044de:	2b01      	cmp	r3, #1
 80044e0:	d040      	beq.n	8004564 <ADC_Enable+0xa0>
  {
    /* Enable the Peripheral */
    __HAL_ADC_ENABLE(hadc);
 80044e2:	687b      	ldr	r3, [r7, #4]
 80044e4:	681b      	ldr	r3, [r3, #0]
 80044e6:	689a      	ldr	r2, [r3, #8]
 80044e8:	687b      	ldr	r3, [r7, #4]
 80044ea:	681b      	ldr	r3, [r3, #0]
 80044ec:	f042 0201 	orr.w	r2, r2, #1
 80044f0:	609a      	str	r2, [r3, #8]
    
    /* Delay for ADC stabilization time */
    /* Compute number of CPU cycles to wait for */
    wait_loop_index = (ADC_STAB_DELAY_US * (SystemCoreClock / 1000000U));
 80044f2:	4b1f      	ldr	r3, [pc, #124]	@ (8004570 <ADC_Enable+0xac>)
 80044f4:	681b      	ldr	r3, [r3, #0]
 80044f6:	4a1f      	ldr	r2, [pc, #124]	@ (8004574 <ADC_Enable+0xb0>)
 80044f8:	fba2 2303 	umull	r2, r3, r2, r3
 80044fc:	0c9b      	lsrs	r3, r3, #18
 80044fe:	60bb      	str	r3, [r7, #8]
    while(wait_loop_index != 0U)
 8004500:	e002      	b.n	8004508 <ADC_Enable+0x44>
    {
      wait_loop_index--;
 8004502:	68bb      	ldr	r3, [r7, #8]
 8004504:	3b01      	subs	r3, #1
 8004506:	60bb      	str	r3, [r7, #8]
    while(wait_loop_index != 0U)
 8004508:	68bb      	ldr	r3, [r7, #8]
 800450a:	2b00      	cmp	r3, #0
 800450c:	d1f9      	bne.n	8004502 <ADC_Enable+0x3e>
    }
    
    /* Get tick count */
    tickstart = HAL_GetTick();
 800450e:	f7ff fbef 	bl	8003cf0 <HAL_GetTick>
 8004512:	60f8      	str	r0, [r7, #12]

    /* Wait for ADC effectively enabled */
    while(ADC_IS_ENABLE(hadc) == RESET)
 8004514:	e01f      	b.n	8004556 <ADC_Enable+0x92>
    {
      if((HAL_GetTick() - tickstart) > ADC_ENABLE_TIMEOUT)
 8004516:	f7ff fbeb 	bl	8003cf0 <HAL_GetTick>
 800451a:	4602      	mov	r2, r0
 800451c:	68fb      	ldr	r3, [r7, #12]
 800451e:	1ad3      	subs	r3, r2, r3
 8004520:	2b02      	cmp	r3, #2
 8004522:	d918      	bls.n	8004556 <ADC_Enable+0x92>
      {
        /* New check to avoid false timeout detection in case of preemption */
        if(ADC_IS_ENABLE(hadc) == RESET)
 8004524:	687b      	ldr	r3, [r7, #4]
 8004526:	681b      	ldr	r3, [r3, #0]
 8004528:	689b      	ldr	r3, [r3, #8]
 800452a:	f003 0301 	and.w	r3, r3, #1
 800452e:	2b01      	cmp	r3, #1
 8004530:	d011      	beq.n	8004556 <ADC_Enable+0x92>
        {
          /* Update ADC state machine to error */
          SET_BIT(hadc->State, HAL_ADC_STATE_ERROR_INTERNAL);
 8004532:	687b      	ldr	r3, [r7, #4]
 8004534:	6a9b      	ldr	r3, [r3, #40]	@ 0x28
 8004536:	f043 0210 	orr.w	r2, r3, #16
 800453a:	687b      	ldr	r3, [r7, #4]
 800453c:	629a      	str	r2, [r3, #40]	@ 0x28

          /* Set ADC error code to ADC IP internal error */
          SET_BIT(hadc->ErrorCode, HAL_ADC_ERROR_INTERNAL);
 800453e:	687b      	ldr	r3, [r7, #4]
 8004540:	6adb      	ldr	r3, [r3, #44]	@ 0x2c
 8004542:	f043 0201 	orr.w	r2, r3, #1
 8004546:	687b      	ldr	r3, [r7, #4]
 8004548:	62da      	str	r2, [r3, #44]	@ 0x2c

          /* Process unlocked */
          __HAL_UNLOCK(hadc);
 800454a:	687b      	ldr	r3, [r7, #4]
 800454c:	2200      	movs	r2, #0
 800454e:	f883 2024 	strb.w	r2, [r3, #36]	@ 0x24

          return HAL_ERROR;
 8004552:	2301      	movs	r3, #1
 8004554:	e007      	b.n	8004566 <ADC_Enable+0xa2>
    while(ADC_IS_ENABLE(hadc) == RESET)
 8004556:	687b      	ldr	r3, [r7, #4]
 8004558:	681b      	ldr	r3, [r3, #0]
 800455a:	689b      	ldr	r3, [r3, #8]
 800455c:	f003 0301 	and.w	r3, r3, #1
 8004560:	2b01      	cmp	r3, #1
 8004562:	d1d8      	bne.n	8004516 <ADC_Enable+0x52>
      }
    }
  }
   
  /* Return HAL status */
  return HAL_OK;
 8004564:	2300      	movs	r3, #0
}
 8004566:	4618      	mov	r0, r3
 8004568:	3710      	adds	r7, #16
 800456a:	46bd      	mov	sp, r7
 800456c:	bd80      	pop	{r7, pc}
 800456e:	bf00      	nop
 8004570:	20000068 	.word	0x20000068
 8004574:	431bde83 	.word	0x431bde83

08004578 <ADC_ConversionStop_Disable>:
  *         stopped to disable the ADC.
  * @param  hadc: ADC handle
  * @retval HAL status.
  */
HAL_StatusTypeDef ADC_ConversionStop_Disable(ADC_HandleTypeDef* hadc)
{
 8004578:	b580      	push	{r7, lr}
 800457a:	b084      	sub	sp, #16
 800457c:	af00      	add	r7, sp, #0
 800457e:	6078      	str	r0, [r7, #4]
  uint32_t tickstart = 0U;
 8004580:	2300      	movs	r3, #0
 8004582:	60fb      	str	r3, [r7, #12]
  
  /* Verification if ADC is not already disabled */
  if (ADC_IS_ENABLE(hadc) != RESET)
 8004584:	687b      	ldr	r3, [r7, #4]
 8004586:	681b      	ldr	r3, [r3, #0]
 8004588:	689b      	ldr	r3, [r3, #8]
 800458a:	f003 0301 	and.w	r3, r3, #1
 800458e:	2b01      	cmp	r3, #1
 8004590:	d12e      	bne.n	80045f0 <ADC_ConversionStop_Disable+0x78>
  {
    /* Disable the ADC peripheral */
    __HAL_ADC_DISABLE(hadc);
 8004592:	687b      	ldr	r3, [r7, #4]
 8004594:	681b      	ldr	r3, [r3, #0]
 8004596:	689a      	ldr	r2, [r3, #8]
 8004598:	687b      	ldr	r3, [r7, #4]
 800459a:	681b      	ldr	r3, [r3, #0]
 800459c:	f022 0201 	bic.w	r2, r2, #1
 80045a0:	609a      	str	r2, [r3, #8]
     
    /* Get tick count */
    tickstart = HAL_GetTick();
 80045a2:	f7ff fba5 	bl	8003cf0 <HAL_GetTick>
 80045a6:	60f8      	str	r0, [r7, #12]
    
    /* Wait for ADC effectively disabled */
    while(ADC_IS_ENABLE(hadc) != RESET)
 80045a8:	e01b      	b.n	80045e2 <ADC_ConversionStop_Disable+0x6a>
    {
      if((HAL_GetTick() - tickstart) > ADC_DISABLE_TIMEOUT)
 80045aa:	f7ff fba1 	bl	8003cf0 <HAL_GetTick>
 80045ae:	4602      	mov	r2, r0
 80045b0:	68fb      	ldr	r3, [r7, #12]
 80045b2:	1ad3      	subs	r3, r2, r3
 80045b4:	2b02      	cmp	r3, #2
 80045b6:	d914      	bls.n	80045e2 <ADC_ConversionStop_Disable+0x6a>
      {
        /* New check to avoid false timeout detection in case of preemption */
        if(ADC_IS_ENABLE(hadc) != RESET)
 80045b8:	687b      	ldr	r3, [r7, #4]
 80045ba:	681b      	ldr	r3, [r3, #0]
 80045bc:	689b      	ldr	r3, [r3, #8]
 80045be:	f003 0301 	and.w	r3, r3, #1
 80045c2:	2b01      	cmp	r3, #1
 80045c4:	d10d      	bne.n	80045e2 <ADC_ConversionStop_Disable+0x6a>
        {
          /* Update ADC state machine to error */
          SET_BIT(hadc->State, HAL_ADC_STATE_ERROR_INTERNAL);
 80045c6:	687b      	ldr	r3, [r7, #4]
 80045c8:	6a9b      	ldr	r3, [r3, #40]	@ 0x28
 80045ca:	f043 0210 	orr.w	r2, r3, #16
 80045ce:	687b      	ldr	r3, [r7, #4]
 80045d0:	629a      	str	r2, [r3, #40]	@ 0x28

          /* Set ADC error code to ADC IP internal error */
          SET_BIT(hadc->ErrorCode, HAL_ADC_ERROR_INTERNAL);
 80045d2:	687b      	ldr	r3, [r7, #4]
 80045d4:	6adb      	ldr	r3, [r3, #44]	@ 0x2c
 80045d6:	f043 0201 	orr.w	r2, r3, #1
 80045da:	687b      	ldr	r3, [r7, #4]
 80045dc:	62da      	str	r2, [r3, #44]	@ 0x2c

          return HAL_ERROR;
 80045de:	2301      	movs	r3, #1
 80045e0:	e007      	b.n	80045f2 <ADC_ConversionStop_Disable+0x7a>
    while(ADC_IS_ENABLE(hadc) != RESET)
 80045e2:	687b      	ldr	r3, [r7, #4]
 80045e4:	681b      	ldr	r3, [r3, #0]
 80045e6:	689b      	ldr	r3, [r3, #8]
 80045e8:	f003 0301 	and.w	r3, r3, #1
 80045ec:	2b01      	cmp	r3, #1
 80045ee:	d0dc      	beq.n	80045aa <ADC_ConversionStop_Disable+0x32>
      }
    }
  }
  
  /* Return HAL status */
  return HAL_OK;
 80045f0:	2300      	movs	r3, #0
}
 80045f2:	4618      	mov	r0, r3
 80045f4:	3710      	adds	r7, #16
 80045f6:	46bd      	mov	sp, r7
 80045f8:	bd80      	pop	{r7, pc}
	...

080045fc <HAL_ADCEx_Calibration_Start>:
  *         the completion of this function.
  * @param  hadc: ADC handle
  * @retval HAL status
  */
HAL_StatusTypeDef HAL_ADCEx_Calibration_Start(ADC_HandleTypeDef* hadc)
{
 80045fc:	b590      	push	{r4, r7, lr}
 80045fe:	b087      	sub	sp, #28
 8004600:	af00      	add	r7, sp, #0
 8004602:	6078      	str	r0, [r7, #4]
  HAL_StatusTypeDef tmp_hal_status = HAL_OK;
 8004604:	2300      	movs	r3, #0
 8004606:	75fb      	strb	r3, [r7, #23]
  uint32_t tickstart;
  __IO uint32_t wait_loop_index = 0U;
 8004608:	2300      	movs	r3, #0
 800460a:	60fb      	str	r3, [r7, #12]
  
  /* Check the parameters */
  assert_param(IS_ADC_ALL_INSTANCE(hadc->Instance));

  /* Process locked */
  __HAL_LOCK(hadc);
 800460c:	687b      	ldr	r3, [r7, #4]
 800460e:	f893 3024 	ldrb.w	r3, [r3, #36]	@ 0x24
 8004612:	2b01      	cmp	r3, #1
 8004614:	d101      	bne.n	800461a <HAL_ADCEx_Calibration_Start+0x1e>
 8004616:	2302      	movs	r3, #2
 8004618:	e097      	b.n	800474a <HAL_ADCEx_Calibration_Start+0x14e>
 800461a:	687b      	ldr	r3, [r7, #4]
 800461c:	2201      	movs	r2, #1
 800461e:	f883 2024 	strb.w	r2, [r3, #36]	@ 0x24
    
   /* 1. Disable ADC peripheral                                                 */
   tmp_hal_status = ADC_ConversionStop_Disable(hadc);
 8004622:	6878      	ldr	r0, [r7, #4]
 8004624:	f7ff ffa8 	bl	8004578 <ADC_ConversionStop_Disable>
 8004628:	4603      	mov	r3, r0
 800462a:	75fb      	strb	r3, [r7, #23]
  
   /* 2. Calibration prerequisite delay before starting the calibration.       */
   /*    - ADC must be enabled for at least two ADC clock cycles               */
   tmp_hal_status = ADC_Enable(hadc);
 800462c:	6878      	ldr	r0, [r7, #4]
 800462e:	f7ff ff49 	bl	80044c4 <ADC_Enable>
 8004632:	4603      	mov	r3, r0
 8004634:	75fb      	strb	r3, [r7, #23]

   /* Check if ADC is effectively enabled */
   if (tmp_hal_status == HAL_OK)
 8004636:	7dfb      	ldrb	r3, [r7, #23]
 8004638:	2b00      	cmp	r3, #0
 800463a:	f040 8081 	bne.w	8004740 <HAL_ADCEx_Calibration_Start+0x144>
   {
     /* Set ADC state */
     ADC_STATE_CLR_SET(hadc->State,
 800463e:	687b      	ldr	r3, [r7, #4]
 8004640:	6a9b      	ldr	r3, [r3, #40]	@ 0x28
 8004642:	f423 5388 	bic.w	r3, r3, #4352	@ 0x1100
 8004646:	f023 0302 	bic.w	r3, r3, #2
 800464a:	f043 0202 	orr.w	r2, r3, #2
 800464e:	687b      	ldr	r3, [r7, #4]
 8004650:	629a      	str	r2, [r3, #40]	@ 0x28
    
    /* Hardware prerequisite: delay before starting the calibration.          */
    /*  - Computation of CPU clock cycles corresponding to ADC clock cycles.  */
    /*  - Wait for the expected ADC clock cycles delay */
    wait_loop_index = ((SystemCoreClock
                        / HAL_RCCEx_GetPeriphCLKFreq(RCC_PERIPHCLK_ADC))
 8004652:	4b40      	ldr	r3, [pc, #256]	@ (8004754 <HAL_ADCEx_Calibration_Start+0x158>)
 8004654:	681c      	ldr	r4, [r3, #0]
 8004656:	2002      	movs	r0, #2
 8004658:	f002 f856 	bl	8006708 <HAL_RCCEx_GetPeriphCLKFreq>
 800465c:	4603      	mov	r3, r0
 800465e:	fbb4 f3f3 	udiv	r3, r4, r3
                       * ADC_PRECALIBRATION_DELAY_ADCCLOCKCYCLES        );
 8004662:	005b      	lsls	r3, r3, #1
    wait_loop_index = ((SystemCoreClock
 8004664:	60fb      	str	r3, [r7, #12]

    while(wait_loop_index != 0U)
 8004666:	e002      	b.n	800466e <HAL_ADCEx_Calibration_Start+0x72>
    {
      wait_loop_index--;
 8004668:	68fb      	ldr	r3, [r7, #12]
 800466a:	3b01      	subs	r3, #1
 800466c:	60fb      	str	r3, [r7, #12]
    while(wait_loop_index != 0U)
 800466e:	68fb      	ldr	r3, [r7, #12]
 8004670:	2b00      	cmp	r3, #0
 8004672:	d1f9      	bne.n	8004668 <HAL_ADCEx_Calibration_Start+0x6c>
    }

    /* 3. Resets ADC calibration registers */  
    SET_BIT(hadc->Instance->CR2, ADC_CR2_RSTCAL);
 8004674:	687b      	ldr	r3, [r7, #4]
 8004676:	681b      	ldr	r3, [r3, #0]
 8004678:	689a      	ldr	r2, [r3, #8]
 800467a:	687b      	ldr	r3, [r7, #4]
 800467c:	681b      	ldr	r3, [r3, #0]
 800467e:	f042 0208 	orr.w	r2, r2, #8
 8004682:	609a      	str	r2, [r3, #8]
    
    tickstart = HAL_GetTick();  
 8004684:	f7ff fb34 	bl	8003cf0 <HAL_GetTick>
 8004688:	6138      	str	r0, [r7, #16]

    /* Wait for calibration reset completion */
    while(HAL_IS_BIT_SET(hadc->Instance->CR2, ADC_CR2_RSTCAL))
 800468a:	e01b      	b.n	80046c4 <HAL_ADCEx_Calibration_Start+0xc8>
    {
      if((HAL_GetTick() - tickstart) > ADC_CALIBRATION_TIMEOUT)
 800468c:	f7ff fb30 	bl	8003cf0 <HAL_GetTick>
 8004690:	4602      	mov	r2, r0
 8004692:	693b      	ldr	r3, [r7, #16]
 8004694:	1ad3      	subs	r3, r2, r3
 8004696:	2b0a      	cmp	r3, #10
 8004698:	d914      	bls.n	80046c4 <HAL_ADCEx_Calibration_Start+0xc8>
      {
        /* New check to avoid false timeout detection in case of preemption */
        if(HAL_IS_BIT_SET(hadc->Instance->CR2, ADC_CR2_RSTCAL))
 800469a:	687b      	ldr	r3, [r7, #4]
 800469c:	681b      	ldr	r3, [r3, #0]
 800469e:	689b      	ldr	r3, [r3, #8]
 80046a0:	f003 0308 	and.w	r3, r3, #8
 80046a4:	2b00      	cmp	r3, #0
 80046a6:	d00d      	beq.n	80046c4 <HAL_ADCEx_Calibration_Start+0xc8>
        {
          /* Update ADC state machine to error */
          ADC_STATE_CLR_SET(hadc->State,
 80046a8:	687b      	ldr	r3, [r7, #4]
 80046aa:	6a9b      	ldr	r3, [r3, #40]	@ 0x28
 80046ac:	f023 0312 	bic.w	r3, r3, #18
 80046b0:	f043 0210 	orr.w	r2, r3, #16
 80046b4:	687b      	ldr	r3, [r7, #4]
 80046b6:	629a      	str	r2, [r3, #40]	@ 0x28
                            HAL_ADC_STATE_BUSY_INTERNAL,
                            HAL_ADC_STATE_ERROR_INTERNAL);

          /* Process unlocked */
          __HAL_UNLOCK(hadc);
 80046b8:	687b      	ldr	r3, [r7, #4]
 80046ba:	2200      	movs	r2, #0
 80046bc:	f883 2024 	strb.w	r2, [r3, #36]	@ 0x24

          return HAL_ERROR;
 80046c0:	2301      	movs	r3, #1
 80046c2:	e042      	b.n	800474a <HAL_ADCEx_Calibration_Start+0x14e>
    while(HAL_IS_BIT_SET(hadc->Instance->CR2, ADC_CR2_RSTCAL))
 80046c4:	687b      	ldr	r3, [r7, #4]
 80046c6:	681b      	ldr	r3, [r3, #0]
 80046c8:	689b      	ldr	r3, [r3, #8]
 80046ca:	f003 0308 	and.w	r3, r3, #8
 80046ce:	2b00      	cmp	r3, #0
 80046d0:	d1dc      	bne.n	800468c <HAL_ADCEx_Calibration_Start+0x90>
        }
      }
    }
    
    /* 4. Start ADC calibration */
    SET_BIT(hadc->Instance->CR2, ADC_CR2_CAL);
 80046d2:	687b      	ldr	r3, [r7, #4]
 80046d4:	681b      	ldr	r3, [r3, #0]
 80046d6:	689a      	ldr	r2, [r3, #8]
 80046d8:	687b      	ldr	r3, [r7, #4]
 80046da:	681b      	ldr	r3, [r3, #0]
 80046dc:	f042 0204 	orr.w	r2, r2, #4
 80046e0:	609a      	str	r2, [r3, #8]
    
    tickstart = HAL_GetTick();  
 80046e2:	f7ff fb05 	bl	8003cf0 <HAL_GetTick>
 80046e6:	6138      	str	r0, [r7, #16]

    /* Wait for calibration completion */
    while(HAL_IS_BIT_SET(hadc->Instance->CR2, ADC_CR2_CAL))
 80046e8:	e01b      	b.n	8004722 <HAL_ADCEx_Calibration_Start+0x126>
    {
      if((HAL_GetTick() - tickstart) > ADC_CALIBRATION_TIMEOUT)
 80046ea:	f7ff fb01 	bl	8003cf0 <HAL_GetTick>
 80046ee:	4602      	mov	r2, r0
 80046f0:	693b      	ldr	r3, [r7, #16]
 80046f2:	1ad3      	subs	r3, r2, r3
 80046f4:	2b0a      	cmp	r3, #10
 80046f6:	d914      	bls.n	8004722 <HAL_ADCEx_Calibration_Start+0x126>
      {
        /* New check to avoid false timeout detection in case of preemption */
        if(HAL_IS_BIT_SET(hadc->Instance->CR2, ADC_CR2_CAL))
 80046f8:	687b      	ldr	r3, [r7, #4]
 80046fa:	681b      	ldr	r3, [r3, #0]
 80046fc:	689b      	ldr	r3, [r3, #8]
 80046fe:	f003 0304 	and.w	r3, r3, #4
 8004702:	2b00      	cmp	r3, #0
 8004704:	d00d      	beq.n	8004722 <HAL_ADCEx_Calibration_Start+0x126>
        {
          /* Update ADC state machine to error */
          ADC_STATE_CLR_SET(hadc->State,
 8004706:	687b      	ldr	r3, [r7, #4]
 8004708:	6a9b      	ldr	r3, [r3, #40]	@ 0x28
 800470a:	f023 0312 	bic.w	r3, r3, #18
 800470e:	f043 0210 	orr.w	r2, r3, #16
 8004712:	687b      	ldr	r3, [r7, #4]
 8004714:	629a      	str	r2, [r3, #40]	@ 0x28
                            HAL_ADC_STATE_BUSY_INTERNAL,
                            HAL_ADC_STATE_ERROR_INTERNAL);

          /* Process unlocked */
          __HAL_UNLOCK(hadc);
 8004716:	687b      	ldr	r3, [r7, #4]
 8004718:	2200      	movs	r2, #0
 800471a:	f883 2024 	strb.w	r2, [r3, #36]	@ 0x24

          return HAL_ERROR;
 800471e:	2301      	movs	r3, #1
 8004720:	e013      	b.n	800474a <HAL_ADCEx_Calibration_Start+0x14e>
    while(HAL_IS_BIT_SET(hadc->Instance->CR2, ADC_CR2_CAL))
 8004722:	687b      	ldr	r3, [r7, #4]
 8004724:	681b      	ldr	r3, [r3, #0]
 8004726:	689b      	ldr	r3, [r3, #8]
 8004728:	f003 0304 	and.w	r3, r3, #4
 800472c:	2b00      	cmp	r3, #0
 800472e:	d1dc      	bne.n	80046ea <HAL_ADCEx_Calibration_Start+0xee>
        }
      }
    }
    
    /* Set ADC state */
    ADC_STATE_CLR_SET(hadc->State,
 8004730:	687b      	ldr	r3, [r7, #4]
 8004732:	6a9b      	ldr	r3, [r3, #40]	@ 0x28
 8004734:	f023 0303 	bic.w	r3, r3, #3
 8004738:	f043 0201 	orr.w	r2, r3, #1
 800473c:	687b      	ldr	r3, [r7, #4]
 800473e:	629a      	str	r2, [r3, #40]	@ 0x28
                      HAL_ADC_STATE_BUSY_INTERNAL,
                      HAL_ADC_STATE_READY);
  }
  
  /* Process unlocked */
  __HAL_UNLOCK(hadc);
 8004740:	687b      	ldr	r3, [r7, #4]
 8004742:	2200      	movs	r2, #0
 8004744:	f883 2024 	strb.w	r2, [r3, #36]	@ 0x24
  
  /* Return function status */
  return tmp_hal_status;
 8004748:	7dfb      	ldrb	r3, [r7, #23]
}
 800474a:	4618      	mov	r0, r3
 800474c:	371c      	adds	r7, #28
 800474e:	46bd      	mov	sp, r7
 8004750:	bd90      	pop	{r4, r7, pc}
 8004752:	bf00      	nop
 8004754:	20000068 	.word	0x20000068

08004758 <__NVIC_SetPriorityGrouping>:
           In case of a conflict between priority grouping and available
           priority bits (__NVIC_PRIO_BITS), the smallest possible priority group is set.
  \param [in]      PriorityGroup  Priority grouping field.
 */
__STATIC_INLINE void __NVIC_SetPriorityGrouping(uint32_t PriorityGroup)
{
 8004758:	b480      	push	{r7}
 800475a:	b085      	sub	sp, #20
 800475c:	af00      	add	r7, sp, #0
 800475e:	6078      	str	r0, [r7, #4]
  uint32_t reg_value;
  uint32_t PriorityGroupTmp = (PriorityGroup & (uint32_t)0x07UL);             /* only values 0..7 are used          */
 8004760:	687b      	ldr	r3, [r7, #4]
 8004762:	f003 0307 	and.w	r3, r3, #7
 8004766:	60fb      	str	r3, [r7, #12]

  reg_value  =  SCB->AIRCR;                                                   /* read old register configuration    */
 8004768:	4b0c      	ldr	r3, [pc, #48]	@ (800479c <__NVIC_SetPriorityGrouping+0x44>)
 800476a:	68db      	ldr	r3, [r3, #12]
 800476c:	60bb      	str	r3, [r7, #8]
  reg_value &= ~((uint32_t)(SCB_AIRCR_VECTKEY_Msk | SCB_AIRCR_PRIGROUP_Msk)); /* clear bits to change               */
 800476e:	68ba      	ldr	r2, [r7, #8]
 8004770:	f64f 03ff 	movw	r3, #63743	@ 0xf8ff
 8004774:	4013      	ands	r3, r2
 8004776:	60bb      	str	r3, [r7, #8]
  reg_value  =  (reg_value                                   |
                ((uint32_t)0x5FAUL << SCB_AIRCR_VECTKEY_Pos) |
                (PriorityGroupTmp << SCB_AIRCR_PRIGROUP_Pos) );               /* Insert write key and priority group */
 8004778:	68fb      	ldr	r3, [r7, #12]
 800477a:	021a      	lsls	r2, r3, #8
                ((uint32_t)0x5FAUL << SCB_AIRCR_VECTKEY_Pos) |
 800477c:	68bb      	ldr	r3, [r7, #8]
 800477e:	4313      	orrs	r3, r2
  reg_value  =  (reg_value                                   |
 8004780:	f043 63bf 	orr.w	r3, r3, #100139008	@ 0x5f80000
 8004784:	f443 3300 	orr.w	r3, r3, #131072	@ 0x20000
 8004788:	60bb      	str	r3, [r7, #8]
  SCB->AIRCR =  reg_value;
 800478a:	4a04      	ldr	r2, [pc, #16]	@ (800479c <__NVIC_SetPriorityGrouping+0x44>)
 800478c:	68bb      	ldr	r3, [r7, #8]
 800478e:	60d3      	str	r3, [r2, #12]
}
 8004790:	bf00      	nop
 8004792:	3714      	adds	r7, #20
 8004794:	46bd      	mov	sp, r7
 8004796:	bc80      	pop	{r7}
 8004798:	4770      	bx	lr
 800479a:	bf00      	nop
 800479c:	e000ed00 	.word	0xe000ed00

080047a0 <__NVIC_GetPriorityGrouping>:
  \brief   Get Priority Grouping
  \details Reads the priority grouping field from the NVIC Interrupt Controller.
  \return                Priority grouping field (SCB->AIRCR [10:8] PRIGROUP field).
 */
__STATIC_INLINE uint32_t __NVIC_GetPriorityGrouping(void)
{
 80047a0:	b480      	push	{r7}
 80047a2:	af00      	add	r7, sp, #0
  return ((uint32_t)((SCB->AIRCR & SCB_AIRCR_PRIGROUP_Msk) >> SCB_AIRCR_PRIGROUP_Pos));
 80047a4:	4b04      	ldr	r3, [pc, #16]	@ (80047b8 <__NVIC_GetPriorityGrouping+0x18>)
 80047a6:	68db      	ldr	r3, [r3, #12]
 80047a8:	0a1b      	lsrs	r3, r3, #8
 80047aa:	f003 0307 	and.w	r3, r3, #7
}
 80047ae:	4618      	mov	r0, r3
 80047b0:	46bd      	mov	sp, r7
 80047b2:	bc80      	pop	{r7}
 80047b4:	4770      	bx	lr
 80047b6:	bf00      	nop
 80047b8:	e000ed00 	.word	0xe000ed00

080047bc <__NVIC_SetPriority>:
  \param [in]      IRQn  Interrupt number.
  \param [in]  priority  Priority to set.
  \note    The priority cannot be set for every processor exception.
 */
__STATIC_INLINE void __NVIC_SetPriority(IRQn_Type IRQn, uint32_t priority)
{
 80047bc:	b480      	push	{r7}
 80047be:	b083      	sub	sp, #12
 80047c0:	af00      	add	r7, sp, #0
 80047c2:	4603      	mov	r3, r0
 80047c4:	6039      	str	r1, [r7, #0]
 80047c6:	71fb      	strb	r3, [r7, #7]
  if ((int32_t)(IRQn) >= 0)
 80047c8:	f997 3007 	ldrsb.w	r3, [r7, #7]
 80047cc:	2b00      	cmp	r3, #0
 80047ce:	db0a      	blt.n	80047e6 <__NVIC_SetPriority+0x2a>
  {
    NVIC->IP[((uint32_t)IRQn)]               = (uint8_t)((priority << (8U - __NVIC_PRIO_BITS)) & (uint32_t)0xFFUL);
 80047d0:	683b      	ldr	r3, [r7, #0]
 80047d2:	b2da      	uxtb	r2, r3
 80047d4:	490c      	ldr	r1, [pc, #48]	@ (8004808 <__NVIC_SetPriority+0x4c>)
 80047d6:	f997 3007 	ldrsb.w	r3, [r7, #7]
 80047da:	0112      	lsls	r2, r2, #4
 80047dc:	b2d2      	uxtb	r2, r2
 80047de:	440b      	add	r3, r1
 80047e0:	f883 2300 	strb.w	r2, [r3, #768]	@ 0x300
  }
  else
  {
    SCB->SHP[(((uint32_t)IRQn) & 0xFUL)-4UL] = (uint8_t)((priority << (8U - __NVIC_PRIO_BITS)) & (uint32_t)0xFFUL);
  }
}
 80047e4:	e00a      	b.n	80047fc <__NVIC_SetPriority+0x40>
    SCB->SHP[(((uint32_t)IRQn) & 0xFUL)-4UL] = (uint8_t)((priority << (8U - __NVIC_PRIO_BITS)) & (uint32_t)0xFFUL);
 80047e6:	683b      	ldr	r3, [r7, #0]
 80047e8:	b2da      	uxtb	r2, r3
 80047ea:	4908      	ldr	r1, [pc, #32]	@ (800480c <__NVIC_SetPriority+0x50>)
 80047ec:	79fb      	ldrb	r3, [r7, #7]
 80047ee:	f003 030f 	and.w	r3, r3, #15
 80047f2:	3b04      	subs	r3, #4
 80047f4:	0112      	lsls	r2, r2, #4
 80047f6:	b2d2      	uxtb	r2, r2
 80047f8:	440b      	add	r3, r1
 80047fa:	761a      	strb	r2, [r3, #24]
}
 80047fc:	bf00      	nop
 80047fe:	370c      	adds	r7, #12
 8004800:	46bd      	mov	sp, r7
 8004802:	bc80      	pop	{r7}
 8004804:	4770      	bx	lr
 8004806:	bf00      	nop
 8004808:	e000e100 	.word	0xe000e100
 800480c:	e000ed00 	.word	0xe000ed00

08004810 <NVIC_EncodePriority>:
  \param [in]   PreemptPriority  Preemptive priority value (starting from 0).
  \param [in]       SubPriority  Subpriority value (starting from 0).
  \return                        Encoded priority. Value can be used in the function \ref NVIC_SetPriority().
 */
__STATIC_INLINE uint32_t NVIC_EncodePriority (uint32_t PriorityGroup, uint32_t PreemptPriority, uint32_t SubPriority)
{
 8004810:	b480      	push	{r7}
 8004812:	b089      	sub	sp, #36	@ 0x24
 8004814:	af00      	add	r7, sp, #0
 8004816:	60f8      	str	r0, [r7, #12]
 8004818:	60b9      	str	r1, [r7, #8]
 800481a:	607a      	str	r2, [r7, #4]
  uint32_t PriorityGroupTmp = (PriorityGroup & (uint32_t)0x07UL);   /* only values 0..7 are used          */
 800481c:	68fb      	ldr	r3, [r7, #12]
 800481e:	f003 0307 	and.w	r3, r3, #7
 8004822:	61fb      	str	r3, [r7, #28]
  uint32_t PreemptPriorityBits;
  uint32_t SubPriorityBits;

  PreemptPriorityBits = ((7UL - PriorityGroupTmp) > (uint32_t)(__NVIC_PRIO_BITS)) ? (uint32_t)(__NVIC_PRIO_BITS) : (uint32_t)(7UL - PriorityGroupTmp);
 8004824:	69fb      	ldr	r3, [r7, #28]
 8004826:	f1c3 0307 	rsb	r3, r3, #7
 800482a:	2b04      	cmp	r3, #4
 800482c:	bf28      	it	cs
 800482e:	2304      	movcs	r3, #4
 8004830:	61bb      	str	r3, [r7, #24]
  SubPriorityBits     = ((PriorityGroupTmp + (uint32_t)(__NVIC_PRIO_BITS)) < (uint32_t)7UL) ? (uint32_t)0UL : (uint32_t)((PriorityGroupTmp - 7UL) + (uint32_t)(__NVIC_PRIO_BITS));
 8004832:	69fb      	ldr	r3, [r7, #28]
 8004834:	3304      	adds	r3, #4
 8004836:	2b06      	cmp	r3, #6
 8004838:	d902      	bls.n	8004840 <NVIC_EncodePriority+0x30>
 800483a:	69fb      	ldr	r3, [r7, #28]
 800483c:	3b03      	subs	r3, #3
 800483e:	e000      	b.n	8004842 <NVIC_EncodePriority+0x32>
 8004840:	2300      	movs	r3, #0
 8004842:	617b      	str	r3, [r7, #20]

  return (
           ((PreemptPriority & (uint32_t)((1UL << (PreemptPriorityBits)) - 1UL)) << SubPriorityBits) |
 8004844:	f04f 32ff 	mov.w	r2, #4294967295
 8004848:	69bb      	ldr	r3, [r7, #24]
 800484a:	fa02 f303 	lsl.w	r3, r2, r3
 800484e:	43da      	mvns	r2, r3
 8004850:	68bb      	ldr	r3, [r7, #8]
 8004852:	401a      	ands	r2, r3
 8004854:	697b      	ldr	r3, [r7, #20]
 8004856:	409a      	lsls	r2, r3
           ((SubPriority     & (uint32_t)((1UL << (SubPriorityBits    )) - 1UL)))
 8004858:	f04f 31ff 	mov.w	r1, #4294967295
 800485c:	697b      	ldr	r3, [r7, #20]
 800485e:	fa01 f303 	lsl.w	r3, r1, r3
 8004862:	43d9      	mvns	r1, r3
 8004864:	687b      	ldr	r3, [r7, #4]
 8004866:	400b      	ands	r3, r1
           ((PreemptPriority & (uint32_t)((1UL << (PreemptPriorityBits)) - 1UL)) << SubPriorityBits) |
 8004868:	4313      	orrs	r3, r2
         );
}
 800486a:	4618      	mov	r0, r3
 800486c:	3724      	adds	r7, #36	@ 0x24
 800486e:	46bd      	mov	sp, r7
 8004870:	bc80      	pop	{r7}
 8004872:	4770      	bx	lr

08004874 <SysTick_Config>:
  \note    When the variable <b>__Vendor_SysTickConfig</b> is set to 1, then the
           function <b>SysTick_Config</b> is not included. In this case, the file <b><i>device</i>.h</b>
           must contain a vendor-specific implementation of this function.
 */
__STATIC_INLINE uint32_t SysTick_Config(uint32_t ticks)
{
 8004874:	b580      	push	{r7, lr}
 8004876:	b082      	sub	sp, #8
 8004878:	af00      	add	r7, sp, #0
 800487a:	6078      	str	r0, [r7, #4]
  if ((ticks - 1UL) > SysTick_LOAD_RELOAD_Msk)
 800487c:	687b      	ldr	r3, [r7, #4]
 800487e:	3b01      	subs	r3, #1
 8004880:	f1b3 7f80 	cmp.w	r3, #16777216	@ 0x1000000
 8004884:	d301      	bcc.n	800488a <SysTick_Config+0x16>
  {
    return (1UL);                                                   /* Reload value impossible */
 8004886:	2301      	movs	r3, #1
 8004888:	e00f      	b.n	80048aa <SysTick_Config+0x36>
  }

  SysTick->LOAD  = (uint32_t)(ticks - 1UL);                         /* set reload register */
 800488a:	4a0a      	ldr	r2, [pc, #40]	@ (80048b4 <SysTick_Config+0x40>)
 800488c:	687b      	ldr	r3, [r7, #4]
 800488e:	3b01      	subs	r3, #1
 8004890:	6053      	str	r3, [r2, #4]
  NVIC_SetPriority (SysTick_IRQn, (1UL << __NVIC_PRIO_BITS) - 1UL); /* set Priority for Systick Interrupt */
 8004892:	210f      	movs	r1, #15
 8004894:	f04f 30ff 	mov.w	r0, #4294967295
 8004898:	f7ff ff90 	bl	80047bc <__NVIC_SetPriority>
  SysTick->VAL   = 0UL;                                             /* Load the SysTick Counter Value */
 800489c:	4b05      	ldr	r3, [pc, #20]	@ (80048b4 <SysTick_Config+0x40>)
 800489e:	2200      	movs	r2, #0
 80048a0:	609a      	str	r2, [r3, #8]
  SysTick->CTRL  = SysTick_CTRL_CLKSOURCE_Msk |
 80048a2:	4b04      	ldr	r3, [pc, #16]	@ (80048b4 <SysTick_Config+0x40>)
 80048a4:	2207      	movs	r2, #7
 80048a6:	601a      	str	r2, [r3, #0]
                   SysTick_CTRL_TICKINT_Msk   |
                   SysTick_CTRL_ENABLE_Msk;                         /* Enable SysTick IRQ and SysTick Timer */
  return (0UL);                                                     /* Function successful */
 80048a8:	2300      	movs	r3, #0
}
 80048aa:	4618      	mov	r0, r3
 80048ac:	3708      	adds	r7, #8
 80048ae:	46bd      	mov	sp, r7
 80048b0:	bd80      	pop	{r7, pc}
 80048b2:	bf00      	nop
 80048b4:	e000e010 	.word	0xe000e010

080048b8 <HAL_NVIC_SetPriorityGrouping>:
  * @note   When the NVIC_PriorityGroup_0 is selected, IRQ preemption is no more possible. 
  *         The pending IRQ priority will be managed only by the subpriority. 
  * @retval None
  */
void HAL_NVIC_SetPriorityGrouping(uint32_t PriorityGroup)
{
 80048b8:	b580      	push	{r7, lr}
 80048ba:	b082      	sub	sp, #8
 80048bc:	af00      	add	r7, sp, #0
 80048be:	6078      	str	r0, [r7, #4]
  /* Check the parameters */
  assert_param(IS_NVIC_PRIORITY_GROUP(PriorityGroup));
  
  /* Set the PRIGROUP[10:8] bits according to the PriorityGroup parameter value */
  NVIC_SetPriorityGrouping(PriorityGroup);
 80048c0:	6878      	ldr	r0, [r7, #4]
 80048c2:	f7ff ff49 	bl	8004758 <__NVIC_SetPriorityGrouping>
}
 80048c6:	bf00      	nop
 80048c8:	3708      	adds	r7, #8
 80048ca:	46bd      	mov	sp, r7
 80048cc:	bd80      	pop	{r7, pc}

080048ce <HAL_NVIC_SetPriority>:
  *         This parameter can be a value between 0 and 15
  *         A lower priority value indicates a higher priority.          
  * @retval None
  */
void HAL_NVIC_SetPriority(IRQn_Type IRQn, uint32_t PreemptPriority, uint32_t SubPriority)
{ 
 80048ce:	b580      	push	{r7, lr}
 80048d0:	b086      	sub	sp, #24
 80048d2:	af00      	add	r7, sp, #0
 80048d4:	4603      	mov	r3, r0
 80048d6:	60b9      	str	r1, [r7, #8]
 80048d8:	607a      	str	r2, [r7, #4]
 80048da:	73fb      	strb	r3, [r7, #15]
  uint32_t prioritygroup = 0x00U;
 80048dc:	2300      	movs	r3, #0
 80048de:	617b      	str	r3, [r7, #20]
  
  /* Check the parameters */
  assert_param(IS_NVIC_SUB_PRIORITY(SubPriority));
  assert_param(IS_NVIC_PREEMPTION_PRIORITY(PreemptPriority));
  
  prioritygroup = NVIC_GetPriorityGrouping();
 80048e0:	f7ff ff5e 	bl	80047a0 <__NVIC_GetPriorityGrouping>
 80048e4:	6178      	str	r0, [r7, #20]
  
  NVIC_SetPriority(IRQn, NVIC_EncodePriority(prioritygroup, PreemptPriority, SubPriority));
 80048e6:	687a      	ldr	r2, [r7, #4]
 80048e8:	68b9      	ldr	r1, [r7, #8]
 80048ea:	6978      	ldr	r0, [r7, #20]
 80048ec:	f7ff ff90 	bl	8004810 <NVIC_EncodePriority>
 80048f0:	4602      	mov	r2, r0
 80048f2:	f997 300f 	ldrsb.w	r3, [r7, #15]
 80048f6:	4611      	mov	r1, r2
 80048f8:	4618      	mov	r0, r3
 80048fa:	f7ff ff5f 	bl	80047bc <__NVIC_SetPriority>
}
 80048fe:	bf00      	nop
 8004900:	3718      	adds	r7, #24
 8004902:	46bd      	mov	sp, r7
 8004904:	bd80      	pop	{r7, pc}

08004906 <HAL_SYSTICK_Config>:
  * @param  TicksNumb: Specifies the ticks Number of ticks between two interrupts.
  * @retval status:  - 0  Function succeeded.
  *                  - 1  Function failed.
  */
uint32_t HAL_SYSTICK_Config(uint32_t TicksNumb)
{
 8004906:	b580      	push	{r7, lr}
 8004908:	b082      	sub	sp, #8
 800490a:	af00      	add	r7, sp, #0
 800490c:	6078      	str	r0, [r7, #4]
   return SysTick_Config(TicksNumb);
 800490e:	6878      	ldr	r0, [r7, #4]
 8004910:	f7ff ffb0 	bl	8004874 <SysTick_Config>
 8004914:	4603      	mov	r3, r0
}
 8004916:	4618      	mov	r0, r3
 8004918:	3708      	adds	r7, #8
 800491a:	46bd      	mov	sp, r7
 800491c:	bd80      	pop	{r7, pc}
	...

08004920 <HAL_GPIO_Init>:
  * @param  GPIO_Init: pointer to a GPIO_InitTypeDef structure that contains
  *         the configuration information for the specified GPIO peripheral.
  * @retval None
  */
void HAL_GPIO_Init(GPIO_TypeDef  *GPIOx, GPIO_InitTypeDef *GPIO_Init)
{
 8004920:	b480      	push	{r7}
 8004922:	b08b      	sub	sp, #44	@ 0x2c
 8004924:	af00      	add	r7, sp, #0
 8004926:	6078      	str	r0, [r7, #4]
 8004928:	6039      	str	r1, [r7, #0]
  uint32_t position = 0x00u;
 800492a:	2300      	movs	r3, #0
 800492c:	627b      	str	r3, [r7, #36]	@ 0x24
  uint32_t ioposition;
  uint32_t iocurrent;
  uint32_t temp;
  uint32_t config = 0x00u;
 800492e:	2300      	movs	r3, #0
 8004930:	623b      	str	r3, [r7, #32]
  assert_param(IS_GPIO_ALL_INSTANCE(GPIOx));
  assert_param(IS_GPIO_PIN(GPIO_Init->Pin));
  assert_param(IS_GPIO_MODE(GPIO_Init->Mode));

  /* Configure the port pins */
  while (((GPIO_Init->Pin) >> position) != 0x00u)
 8004932:	e169      	b.n	8004c08 <HAL_GPIO_Init+0x2e8>
  {
    /* Get the IO position */
    ioposition = (0x01uL << position);
 8004934:	2201      	movs	r2, #1
 8004936:	6a7b      	ldr	r3, [r7, #36]	@ 0x24
 8004938:	fa02 f303 	lsl.w	r3, r2, r3
 800493c:	61fb      	str	r3, [r7, #28]

    /* Get the current IO position */
    iocurrent = (uint32_t)(GPIO_Init->Pin) & ioposition;
 800493e:	683b      	ldr	r3, [r7, #0]
 8004940:	681b      	ldr	r3, [r3, #0]
 8004942:	69fa      	ldr	r2, [r7, #28]
 8004944:	4013      	ands	r3, r2
 8004946:	61bb      	str	r3, [r7, #24]

    if (iocurrent == ioposition)
 8004948:	69ba      	ldr	r2, [r7, #24]
 800494a:	69fb      	ldr	r3, [r7, #28]
 800494c:	429a      	cmp	r2, r3
 800494e:	f040 8158 	bne.w	8004c02 <HAL_GPIO_Init+0x2e2>
    {
      /* Check the Alternate function parameters */
      assert_param(IS_GPIO_AF_INSTANCE(GPIOx));

      /* Based on the required mode, filling config variable with MODEy[1:0] and CNFy[3:2] corresponding bits */
      switch (GPIO_Init->Mode)
 8004952:	683b      	ldr	r3, [r7, #0]
 8004954:	685b      	ldr	r3, [r3, #4]
 8004956:	4a9a      	ldr	r2, [pc, #616]	@ (8004bc0 <HAL_GPIO_Init+0x2a0>)
 8004958:	4293      	cmp	r3, r2
 800495a:	d05e      	beq.n	8004a1a <HAL_GPIO_Init+0xfa>
 800495c:	4a98      	ldr	r2, [pc, #608]	@ (8004bc0 <HAL_GPIO_Init+0x2a0>)
 800495e:	4293      	cmp	r3, r2
 8004960:	d875      	bhi.n	8004a4e <HAL_GPIO_Init+0x12e>
 8004962:	4a98      	ldr	r2, [pc, #608]	@ (8004bc4 <HAL_GPIO_Init+0x2a4>)
 8004964:	4293      	cmp	r3, r2
 8004966:	d058      	beq.n	8004a1a <HAL_GPIO_Init+0xfa>
 8004968:	4a96      	ldr	r2, [pc, #600]	@ (8004bc4 <HAL_GPIO_Init+0x2a4>)
 800496a:	4293      	cmp	r3, r2
 800496c:	d86f      	bhi.n	8004a4e <HAL_GPIO_Init+0x12e>
 800496e:	4a96      	ldr	r2, [pc, #600]	@ (8004bc8 <HAL_GPIO_Init+0x2a8>)
 8004970:	4293      	cmp	r3, r2
 8004972:	d052      	beq.n	8004a1a <HAL_GPIO_Init+0xfa>
 8004974:	4a94      	ldr	r2, [pc, #592]	@ (8004bc8 <HAL_GPIO_Init+0x2a8>)
 8004976:	4293      	cmp	r3, r2
 8004978:	d869      	bhi.n	8004a4e <HAL_GPIO_Init+0x12e>
 800497a:	4a94      	ldr	r2, [pc, #592]	@ (8004bcc <HAL_GPIO_Init+0x2ac>)
 800497c:	4293      	cmp	r3, r2
 800497e:	d04c      	beq.n	8004a1a <HAL_GPIO_Init+0xfa>
 8004980:	4a92      	ldr	r2, [pc, #584]	@ (8004bcc <HAL_GPIO_Init+0x2ac>)
 8004982:	4293      	cmp	r3, r2
 8004984:	d863      	bhi.n	8004a4e <HAL_GPIO_Init+0x12e>
 8004986:	4a92      	ldr	r2, [pc, #584]	@ (8004bd0 <HAL_GPIO_Init+0x2b0>)
 8004988:	4293      	cmp	r3, r2
 800498a:	d046      	beq.n	8004a1a <HAL_GPIO_Init+0xfa>
 800498c:	4a90      	ldr	r2, [pc, #576]	@ (8004bd0 <HAL_GPIO_Init+0x2b0>)
 800498e:	4293      	cmp	r3, r2
 8004990:	d85d      	bhi.n	8004a4e <HAL_GPIO_Init+0x12e>
 8004992:	2b12      	cmp	r3, #18
 8004994:	d82a      	bhi.n	80049ec <HAL_GPIO_Init+0xcc>
 8004996:	2b12      	cmp	r3, #18
 8004998:	d859      	bhi.n	8004a4e <HAL_GPIO_Init+0x12e>
 800499a:	a201      	add	r2, pc, #4	@ (adr r2, 80049a0 <HAL_GPIO_Init+0x80>)
 800499c:	f852 f023 	ldr.w	pc, [r2, r3, lsl #2]
 80049a0:	08004a1b 	.word	0x08004a1b
 80049a4:	080049f5 	.word	0x080049f5
 80049a8:	08004a07 	.word	0x08004a07
 80049ac:	08004a49 	.word	0x08004a49
 80049b0:	08004a4f 	.word	0x08004a4f
 80049b4:	08004a4f 	.word	0x08004a4f
 80049b8:	08004a4f 	.word	0x08004a4f
 80049bc:	08004a4f 	.word	0x08004a4f
 80049c0:	08004a4f 	.word	0x08004a4f
 80049c4:	08004a4f 	.word	0x08004a4f
 80049c8:	08004a4f 	.word	0x08004a4f
 80049cc:	08004a4f 	.word	0x08004a4f
 80049d0:	08004a4f 	.word	0x08004a4f
 80049d4:	08004a4f 	.word	0x08004a4f
 80049d8:	08004a4f 	.word	0x08004a4f
 80049dc:	08004a4f 	.word	0x08004a4f
 80049e0:	08004a4f 	.word	0x08004a4f
 80049e4:	080049fd 	.word	0x080049fd
 80049e8:	08004a11 	.word	0x08004a11
 80049ec:	4a79      	ldr	r2, [pc, #484]	@ (8004bd4 <HAL_GPIO_Init+0x2b4>)
 80049ee:	4293      	cmp	r3, r2
 80049f0:	d013      	beq.n	8004a1a <HAL_GPIO_Init+0xfa>
          config = GPIO_CR_MODE_INPUT + GPIO_CR_CNF_ANALOG;
          break;

        /* Parameters are checked with assert_param */
        default:
          break;
 80049f2:	e02c      	b.n	8004a4e <HAL_GPIO_Init+0x12e>
          config = GPIO_Init->Speed + GPIO_CR_CNF_GP_OUTPUT_PP;
 80049f4:	683b      	ldr	r3, [r7, #0]
 80049f6:	68db      	ldr	r3, [r3, #12]
 80049f8:	623b      	str	r3, [r7, #32]
          break;
 80049fa:	e029      	b.n	8004a50 <HAL_GPIO_Init+0x130>
          config = GPIO_Init->Speed + GPIO_CR_CNF_GP_OUTPUT_OD;
 80049fc:	683b      	ldr	r3, [r7, #0]
 80049fe:	68db      	ldr	r3, [r3, #12]
 8004a00:	3304      	adds	r3, #4
 8004a02:	623b      	str	r3, [r7, #32]
          break;
 8004a04:	e024      	b.n	8004a50 <HAL_GPIO_Init+0x130>
          config = GPIO_Init->Speed + GPIO_CR_CNF_AF_OUTPUT_PP;
 8004a06:	683b      	ldr	r3, [r7, #0]
 8004a08:	68db      	ldr	r3, [r3, #12]
 8004a0a:	3308      	adds	r3, #8
 8004a0c:	623b      	str	r3, [r7, #32]
          break;
 8004a0e:	e01f      	b.n	8004a50 <HAL_GPIO_Init+0x130>
          config = GPIO_Init->Speed + GPIO_CR_CNF_AF_OUTPUT_OD;
 8004a10:	683b      	ldr	r3, [r7, #0]
 8004a12:	68db      	ldr	r3, [r3, #12]
 8004a14:	330c      	adds	r3, #12
 8004a16:	623b      	str	r3, [r7, #32]
          break;
 8004a18:	e01a      	b.n	8004a50 <HAL_GPIO_Init+0x130>
          if (GPIO_Init->Pull == GPIO_NOPULL)
 8004a1a:	683b      	ldr	r3, [r7, #0]
 8004a1c:	689b      	ldr	r3, [r3, #8]
 8004a1e:	2b00      	cmp	r3, #0
 8004a20:	d102      	bne.n	8004a28 <HAL_GPIO_Init+0x108>
            config = GPIO_CR_MODE_INPUT + GPIO_CR_CNF_INPUT_FLOATING;
 8004a22:	2304      	movs	r3, #4
 8004a24:	623b      	str	r3, [r7, #32]
          break;
 8004a26:	e013      	b.n	8004a50 <HAL_GPIO_Init+0x130>
          else if (GPIO_Init->Pull == GPIO_PULLUP)
 8004a28:	683b      	ldr	r3, [r7, #0]
 8004a2a:	689b      	ldr	r3, [r3, #8]
 8004a2c:	2b01      	cmp	r3, #1
 8004a2e:	d105      	bne.n	8004a3c <HAL_GPIO_Init+0x11c>
            config = GPIO_CR_MODE_INPUT + GPIO_CR_CNF_INPUT_PU_PD;
 8004a30:	2308      	movs	r3, #8
 8004a32:	623b      	str	r3, [r7, #32]
            GPIOx->BSRR = ioposition;
 8004a34:	687b      	ldr	r3, [r7, #4]
 8004a36:	69fa      	ldr	r2, [r7, #28]
 8004a38:	611a      	str	r2, [r3, #16]
          break;
 8004a3a:	e009      	b.n	8004a50 <HAL_GPIO_Init+0x130>
            config = GPIO_CR_MODE_INPUT + GPIO_CR_CNF_INPUT_PU_PD;
 8004a3c:	2308      	movs	r3, #8
 8004a3e:	623b      	str	r3, [r7, #32]
            GPIOx->BRR = ioposition;
 8004a40:	687b      	ldr	r3, [r7, #4]
 8004a42:	69fa      	ldr	r2, [r7, #28]
 8004a44:	615a      	str	r2, [r3, #20]
          break;
 8004a46:	e003      	b.n	8004a50 <HAL_GPIO_Init+0x130>
          config = GPIO_CR_MODE_INPUT + GPIO_CR_CNF_ANALOG;
 8004a48:	2300      	movs	r3, #0
 8004a4a:	623b      	str	r3, [r7, #32]
          break;
 8004a4c:	e000      	b.n	8004a50 <HAL_GPIO_Init+0x130>
          break;
 8004a4e:	bf00      	nop
      }

      /* Check if the current bit belongs to first half or last half of the pin count number
       in order to address CRH or CRL register*/
      configregister = (iocurrent < GPIO_PIN_8) ? &GPIOx->CRL     : &GPIOx->CRH;
 8004a50:	69bb      	ldr	r3, [r7, #24]
 8004a52:	2bff      	cmp	r3, #255	@ 0xff
 8004a54:	d801      	bhi.n	8004a5a <HAL_GPIO_Init+0x13a>
 8004a56:	687b      	ldr	r3, [r7, #4]
 8004a58:	e001      	b.n	8004a5e <HAL_GPIO_Init+0x13e>
 8004a5a:	687b      	ldr	r3, [r7, #4]
 8004a5c:	3304      	adds	r3, #4
 8004a5e:	617b      	str	r3, [r7, #20]
      registeroffset = (iocurrent < GPIO_PIN_8) ? (position << 2u) : ((position - 8u) << 2u);
 8004a60:	69bb      	ldr	r3, [r7, #24]
 8004a62:	2bff      	cmp	r3, #255	@ 0xff
 8004a64:	d802      	bhi.n	8004a6c <HAL_GPIO_Init+0x14c>
 8004a66:	6a7b      	ldr	r3, [r7, #36]	@ 0x24
 8004a68:	009b      	lsls	r3, r3, #2
 8004a6a:	e002      	b.n	8004a72 <HAL_GPIO_Init+0x152>
 8004a6c:	6a7b      	ldr	r3, [r7, #36]	@ 0x24
 8004a6e:	3b08      	subs	r3, #8
 8004a70:	009b      	lsls	r3, r3, #2
 8004a72:	613b      	str	r3, [r7, #16]

      /* Apply the new configuration of the pin to the register */
      MODIFY_REG((*configregister), ((GPIO_CRL_MODE0 | GPIO_CRL_CNF0) << registeroffset), (config << registeroffset));
 8004a74:	697b      	ldr	r3, [r7, #20]
 8004a76:	681a      	ldr	r2, [r3, #0]
 8004a78:	210f      	movs	r1, #15
 8004a7a:	693b      	ldr	r3, [r7, #16]
 8004a7c:	fa01 f303 	lsl.w	r3, r1, r3
 8004a80:	43db      	mvns	r3, r3
 8004a82:	401a      	ands	r2, r3
 8004a84:	6a39      	ldr	r1, [r7, #32]
 8004a86:	693b      	ldr	r3, [r7, #16]
 8004a88:	fa01 f303 	lsl.w	r3, r1, r3
 8004a8c:	431a      	orrs	r2, r3
 8004a8e:	697b      	ldr	r3, [r7, #20]
 8004a90:	601a      	str	r2, [r3, #0]

      /*--------------------- EXTI Mode Configuration ------------------------*/
      /* Configure the External Interrupt or event for the current IO */
      if ((GPIO_Init->Mode & EXTI_MODE) == EXTI_MODE)
 8004a92:	683b      	ldr	r3, [r7, #0]
 8004a94:	685b      	ldr	r3, [r3, #4]
 8004a96:	f003 5380 	and.w	r3, r3, #268435456	@ 0x10000000
 8004a9a:	2b00      	cmp	r3, #0
 8004a9c:	f000 80b1 	beq.w	8004c02 <HAL_GPIO_Init+0x2e2>
      {
        /* Enable AFIO Clock */
        __HAL_RCC_AFIO_CLK_ENABLE();
 8004aa0:	4b4d      	ldr	r3, [pc, #308]	@ (8004bd8 <HAL_GPIO_Init+0x2b8>)
 8004aa2:	699b      	ldr	r3, [r3, #24]
 8004aa4:	4a4c      	ldr	r2, [pc, #304]	@ (8004bd8 <HAL_GPIO_Init+0x2b8>)
 8004aa6:	f043 0301 	orr.w	r3, r3, #1
 8004aaa:	6193      	str	r3, [r2, #24]
 8004aac:	4b4a      	ldr	r3, [pc, #296]	@ (8004bd8 <HAL_GPIO_Init+0x2b8>)
 8004aae:	699b      	ldr	r3, [r3, #24]
 8004ab0:	f003 0301 	and.w	r3, r3, #1
 8004ab4:	60bb      	str	r3, [r7, #8]
 8004ab6:	68bb      	ldr	r3, [r7, #8]
        temp = AFIO->EXTICR[position >> 2u];
 8004ab8:	4a48      	ldr	r2, [pc, #288]	@ (8004bdc <HAL_GPIO_Init+0x2bc>)
 8004aba:	6a7b      	ldr	r3, [r7, #36]	@ 0x24
 8004abc:	089b      	lsrs	r3, r3, #2
 8004abe:	3302      	adds	r3, #2
 8004ac0:	f852 3023 	ldr.w	r3, [r2, r3, lsl #2]
 8004ac4:	60fb      	str	r3, [r7, #12]
        CLEAR_BIT(temp, (0x0Fu) << (4u * (position & 0x03u)));
 8004ac6:	6a7b      	ldr	r3, [r7, #36]	@ 0x24
 8004ac8:	f003 0303 	and.w	r3, r3, #3
 8004acc:	009b      	lsls	r3, r3, #2
 8004ace:	220f      	movs	r2, #15
 8004ad0:	fa02 f303 	lsl.w	r3, r2, r3
 8004ad4:	43db      	mvns	r3, r3
 8004ad6:	68fa      	ldr	r2, [r7, #12]
 8004ad8:	4013      	ands	r3, r2
 8004ada:	60fb      	str	r3, [r7, #12]
        SET_BIT(temp, (GPIO_GET_INDEX(GPIOx)) << (4u * (position & 0x03u)));
 8004adc:	687b      	ldr	r3, [r7, #4]
 8004ade:	4a40      	ldr	r2, [pc, #256]	@ (8004be0 <HAL_GPIO_Init+0x2c0>)
 8004ae0:	4293      	cmp	r3, r2
 8004ae2:	d013      	beq.n	8004b0c <HAL_GPIO_Init+0x1ec>
 8004ae4:	687b      	ldr	r3, [r7, #4]
 8004ae6:	4a3f      	ldr	r2, [pc, #252]	@ (8004be4 <HAL_GPIO_Init+0x2c4>)
 8004ae8:	4293      	cmp	r3, r2
 8004aea:	d00d      	beq.n	8004b08 <HAL_GPIO_Init+0x1e8>
 8004aec:	687b      	ldr	r3, [r7, #4]
 8004aee:	4a3e      	ldr	r2, [pc, #248]	@ (8004be8 <HAL_GPIO_Init+0x2c8>)
 8004af0:	4293      	cmp	r3, r2
 8004af2:	d007      	beq.n	8004b04 <HAL_GPIO_Init+0x1e4>
 8004af4:	687b      	ldr	r3, [r7, #4]
 8004af6:	4a3d      	ldr	r2, [pc, #244]	@ (8004bec <HAL_GPIO_Init+0x2cc>)
 8004af8:	4293      	cmp	r3, r2
 8004afa:	d101      	bne.n	8004b00 <HAL_GPIO_Init+0x1e0>
 8004afc:	2303      	movs	r3, #3
 8004afe:	e006      	b.n	8004b0e <HAL_GPIO_Init+0x1ee>
 8004b00:	2304      	movs	r3, #4
 8004b02:	e004      	b.n	8004b0e <HAL_GPIO_Init+0x1ee>
 8004b04:	2302      	movs	r3, #2
 8004b06:	e002      	b.n	8004b0e <HAL_GPIO_Init+0x1ee>
 8004b08:	2301      	movs	r3, #1
 8004b0a:	e000      	b.n	8004b0e <HAL_GPIO_Init+0x1ee>
 8004b0c:	2300      	movs	r3, #0
 8004b0e:	6a7a      	ldr	r2, [r7, #36]	@ 0x24
 8004b10:	f002 0203 	and.w	r2, r2, #3
 8004b14:	0092      	lsls	r2, r2, #2
 8004b16:	4093      	lsls	r3, r2
 8004b18:	68fa      	ldr	r2, [r7, #12]
 8004b1a:	4313      	orrs	r3, r2
 8004b1c:	60fb      	str	r3, [r7, #12]
        AFIO->EXTICR[position >> 2u] = temp;
 8004b1e:	492f      	ldr	r1, [pc, #188]	@ (8004bdc <HAL_GPIO_Init+0x2bc>)
 8004b20:	6a7b      	ldr	r3, [r7, #36]	@ 0x24
 8004b22:	089b      	lsrs	r3, r3, #2
 8004b24:	3302      	adds	r3, #2
 8004b26:	68fa      	ldr	r2, [r7, #12]
 8004b28:	f841 2023 	str.w	r2, [r1, r3, lsl #2]


        /* Enable or disable the rising trigger */
        if ((GPIO_Init->Mode & RISING_EDGE) == RISING_EDGE)
 8004b2c:	683b      	ldr	r3, [r7, #0]
 8004b2e:	685b      	ldr	r3, [r3, #4]
 8004b30:	f403 1380 	and.w	r3, r3, #1048576	@ 0x100000
 8004b34:	2b00      	cmp	r3, #0
 8004b36:	d006      	beq.n	8004b46 <HAL_GPIO_Init+0x226>
        {
          SET_BIT(EXTI->RTSR, iocurrent);
 8004b38:	4b2d      	ldr	r3, [pc, #180]	@ (8004bf0 <HAL_GPIO_Init+0x2d0>)
 8004b3a:	689a      	ldr	r2, [r3, #8]
 8004b3c:	492c      	ldr	r1, [pc, #176]	@ (8004bf0 <HAL_GPIO_Init+0x2d0>)
 8004b3e:	69bb      	ldr	r3, [r7, #24]
 8004b40:	4313      	orrs	r3, r2
 8004b42:	608b      	str	r3, [r1, #8]
 8004b44:	e006      	b.n	8004b54 <HAL_GPIO_Init+0x234>
        }
        else
        {
          CLEAR_BIT(EXTI->RTSR, iocurrent);
 8004b46:	4b2a      	ldr	r3, [pc, #168]	@ (8004bf0 <HAL_GPIO_Init+0x2d0>)
 8004b48:	689a      	ldr	r2, [r3, #8]
 8004b4a:	69bb      	ldr	r3, [r7, #24]
 8004b4c:	43db      	mvns	r3, r3
 8004b4e:	4928      	ldr	r1, [pc, #160]	@ (8004bf0 <HAL_GPIO_Init+0x2d0>)
 8004b50:	4013      	ands	r3, r2
 8004b52:	608b      	str	r3, [r1, #8]
        }

        /* Enable or disable the falling trigger */
        if ((GPIO_Init->Mode & FALLING_EDGE) == FALLING_EDGE)
 8004b54:	683b      	ldr	r3, [r7, #0]
 8004b56:	685b      	ldr	r3, [r3, #4]
 8004b58:	f403 1300 	and.w	r3, r3, #2097152	@ 0x200000
 8004b5c:	2b00      	cmp	r3, #0
 8004b5e:	d006      	beq.n	8004b6e <HAL_GPIO_Init+0x24e>
        {
          SET_BIT(EXTI->FTSR, iocurrent);
 8004b60:	4b23      	ldr	r3, [pc, #140]	@ (8004bf0 <HAL_GPIO_Init+0x2d0>)
 8004b62:	68da      	ldr	r2, [r3, #12]
 8004b64:	4922      	ldr	r1, [pc, #136]	@ (8004bf0 <HAL_GPIO_Init+0x2d0>)
 8004b66:	69bb      	ldr	r3, [r7, #24]
 8004b68:	4313      	orrs	r3, r2
 8004b6a:	60cb      	str	r3, [r1, #12]
 8004b6c:	e006      	b.n	8004b7c <HAL_GPIO_Init+0x25c>
        }
        else
        {
          CLEAR_BIT(EXTI->FTSR, iocurrent);
 8004b6e:	4b20      	ldr	r3, [pc, #128]	@ (8004bf0 <HAL_GPIO_Init+0x2d0>)
 8004b70:	68da      	ldr	r2, [r3, #12]
 8004b72:	69bb      	ldr	r3, [r7, #24]
 8004b74:	43db      	mvns	r3, r3
 8004b76:	491e      	ldr	r1, [pc, #120]	@ (8004bf0 <HAL_GPIO_Init+0x2d0>)
 8004b78:	4013      	ands	r3, r2
 8004b7a:	60cb      	str	r3, [r1, #12]
        }

        /* Configure the event mask */
        if ((GPIO_Init->Mode & GPIO_MODE_EVT) == GPIO_MODE_EVT)
 8004b7c:	683b      	ldr	r3, [r7, #0]
 8004b7e:	685b      	ldr	r3, [r3, #4]
 8004b80:	f403 3300 	and.w	r3, r3, #131072	@ 0x20000
 8004b84:	2b00      	cmp	r3, #0
 8004b86:	d006      	beq.n	8004b96 <HAL_GPIO_Init+0x276>
        {
          SET_BIT(EXTI->EMR, iocurrent);
 8004b88:	4b19      	ldr	r3, [pc, #100]	@ (8004bf0 <HAL_GPIO_Init+0x2d0>)
 8004b8a:	685a      	ldr	r2, [r3, #4]
 8004b8c:	4918      	ldr	r1, [pc, #96]	@ (8004bf0 <HAL_GPIO_Init+0x2d0>)
 8004b8e:	69bb      	ldr	r3, [r7, #24]
 8004b90:	4313      	orrs	r3, r2
 8004b92:	604b      	str	r3, [r1, #4]
 8004b94:	e006      	b.n	8004ba4 <HAL_GPIO_Init+0x284>
        }
        else
        {
          CLEAR_BIT(EXTI->EMR, iocurrent);
 8004b96:	4b16      	ldr	r3, [pc, #88]	@ (8004bf0 <HAL_GPIO_Init+0x2d0>)
 8004b98:	685a      	ldr	r2, [r3, #4]
 8004b9a:	69bb      	ldr	r3, [r7, #24]
 8004b9c:	43db      	mvns	r3, r3
 8004b9e:	4914      	ldr	r1, [pc, #80]	@ (8004bf0 <HAL_GPIO_Init+0x2d0>)
 8004ba0:	4013      	ands	r3, r2
 8004ba2:	604b      	str	r3, [r1, #4]
        }

        /* Configure the interrupt mask */
        if ((GPIO_Init->Mode & GPIO_MODE_IT) == GPIO_MODE_IT)
 8004ba4:	683b      	ldr	r3, [r7, #0]
 8004ba6:	685b      	ldr	r3, [r3, #4]
 8004ba8:	f403 3380 	and.w	r3, r3, #65536	@ 0x10000
 8004bac:	2b00      	cmp	r3, #0
 8004bae:	d021      	beq.n	8004bf4 <HAL_GPIO_Init+0x2d4>
        {
          SET_BIT(EXTI->IMR, iocurrent);
 8004bb0:	4b0f      	ldr	r3, [pc, #60]	@ (8004bf0 <HAL_GPIO_Init+0x2d0>)
 8004bb2:	681a      	ldr	r2, [r3, #0]
 8004bb4:	490e      	ldr	r1, [pc, #56]	@ (8004bf0 <HAL_GPIO_Init+0x2d0>)
 8004bb6:	69bb      	ldr	r3, [r7, #24]
 8004bb8:	4313      	orrs	r3, r2
 8004bba:	600b      	str	r3, [r1, #0]
 8004bbc:	e021      	b.n	8004c02 <HAL_GPIO_Init+0x2e2>
 8004bbe:	bf00      	nop
 8004bc0:	10320000 	.word	0x10320000
 8004bc4:	10310000 	.word	0x10310000
 8004bc8:	10220000 	.word	0x10220000
 8004bcc:	10210000 	.word	0x10210000
 8004bd0:	10120000 	.word	0x10120000
 8004bd4:	10110000 	.word	0x10110000
 8004bd8:	40021000 	.word	0x40021000
 8004bdc:	40010000 	.word	0x40010000
 8004be0:	40010800 	.word	0x40010800
 8004be4:	40010c00 	.word	0x40010c00
 8004be8:	40011000 	.word	0x40011000
 8004bec:	40011400 	.word	0x40011400
 8004bf0:	40010400 	.word	0x40010400
        }
        else
        {
          CLEAR_BIT(EXTI->IMR, iocurrent);
 8004bf4:	4b0b      	ldr	r3, [pc, #44]	@ (8004c24 <HAL_GPIO_Init+0x304>)
 8004bf6:	681a      	ldr	r2, [r3, #0]
 8004bf8:	69bb      	ldr	r3, [r7, #24]
 8004bfa:	43db      	mvns	r3, r3
 8004bfc:	4909      	ldr	r1, [pc, #36]	@ (8004c24 <HAL_GPIO_Init+0x304>)
 8004bfe:	4013      	ands	r3, r2
 8004c00:	600b      	str	r3, [r1, #0]
        }
      }
    }

	position++;
 8004c02:	6a7b      	ldr	r3, [r7, #36]	@ 0x24
 8004c04:	3301      	adds	r3, #1
 8004c06:	627b      	str	r3, [r7, #36]	@ 0x24
  while (((GPIO_Init->Pin) >> position) != 0x00u)
 8004c08:	683b      	ldr	r3, [r7, #0]
 8004c0a:	681a      	ldr	r2, [r3, #0]
 8004c0c:	6a7b      	ldr	r3, [r7, #36]	@ 0x24
 8004c0e:	fa22 f303 	lsr.w	r3, r2, r3
 8004c12:	2b00      	cmp	r3, #0
 8004c14:	f47f ae8e 	bne.w	8004934 <HAL_GPIO_Init+0x14>
  }
}
 8004c18:	bf00      	nop
 8004c1a:	bf00      	nop
 8004c1c:	372c      	adds	r7, #44	@ 0x2c
 8004c1e:	46bd      	mov	sp, r7
 8004c20:	bc80      	pop	{r7}
 8004c22:	4770      	bx	lr
 8004c24:	40010400 	.word	0x40010400

08004c28 <HAL_GPIO_ReadPin>:
  * @param  GPIO_Pin: specifies the port bit to read.
  *         This parameter can be GPIO_PIN_x where x can be (0..15).
  * @retval The input port pin value.
  */
GPIO_PinState HAL_GPIO_ReadPin(GPIO_TypeDef *GPIOx, uint16_t GPIO_Pin)
{
 8004c28:	b480      	push	{r7}
 8004c2a:	b085      	sub	sp, #20
 8004c2c:	af00      	add	r7, sp, #0
 8004c2e:	6078      	str	r0, [r7, #4]
 8004c30:	460b      	mov	r3, r1
 8004c32:	807b      	strh	r3, [r7, #2]
  GPIO_PinState bitstatus;

  /* Check the parameters */
  assert_param(IS_GPIO_PIN(GPIO_Pin));

  if ((GPIOx->IDR & GPIO_Pin) != (uint32_t)GPIO_PIN_RESET)
 8004c34:	687b      	ldr	r3, [r7, #4]
 8004c36:	689a      	ldr	r2, [r3, #8]
 8004c38:	887b      	ldrh	r3, [r7, #2]
 8004c3a:	4013      	ands	r3, r2
 8004c3c:	2b00      	cmp	r3, #0
 8004c3e:	d002      	beq.n	8004c46 <HAL_GPIO_ReadPin+0x1e>
  {
    bitstatus = GPIO_PIN_SET;
 8004c40:	2301      	movs	r3, #1
 8004c42:	73fb      	strb	r3, [r7, #15]
 8004c44:	e001      	b.n	8004c4a <HAL_GPIO_ReadPin+0x22>
  }
  else
  {
    bitstatus = GPIO_PIN_RESET;
 8004c46:	2300      	movs	r3, #0
 8004c48:	73fb      	strb	r3, [r7, #15]
  }
  return bitstatus;
 8004c4a:	7bfb      	ldrb	r3, [r7, #15]
}
 8004c4c:	4618      	mov	r0, r3
 8004c4e:	3714      	adds	r7, #20
 8004c50:	46bd      	mov	sp, r7
 8004c52:	bc80      	pop	{r7}
 8004c54:	4770      	bx	lr

08004c56 <HAL_GPIO_WritePin>:
  *            @arg GPIO_PIN_RESET: to clear the port pin
  *            @arg GPIO_PIN_SET: to set the port pin
  * @retval None
  */
void HAL_GPIO_WritePin(GPIO_TypeDef *GPIOx, uint16_t GPIO_Pin, GPIO_PinState PinState)
{
 8004c56:	b480      	push	{r7}
 8004c58:	b083      	sub	sp, #12
 8004c5a:	af00      	add	r7, sp, #0
 8004c5c:	6078      	str	r0, [r7, #4]
 8004c5e:	460b      	mov	r3, r1
 8004c60:	807b      	strh	r3, [r7, #2]
 8004c62:	4613      	mov	r3, r2
 8004c64:	707b      	strb	r3, [r7, #1]
  /* Check the parameters */
  assert_param(IS_GPIO_PIN(GPIO_Pin));
  assert_param(IS_GPIO_PIN_ACTION(PinState));

  if (PinState != GPIO_PIN_RESET)
 8004c66:	787b      	ldrb	r3, [r7, #1]
 8004c68:	2b00      	cmp	r3, #0
 8004c6a:	d003      	beq.n	8004c74 <HAL_GPIO_WritePin+0x1e>
  {
    GPIOx->BSRR = GPIO_Pin;
 8004c6c:	887a      	ldrh	r2, [r7, #2]
 8004c6e:	687b      	ldr	r3, [r7, #4]
 8004c70:	611a      	str	r2, [r3, #16]
  }
  else
  {
    GPIOx->BSRR = (uint32_t)GPIO_Pin << 16u;
  }
}
 8004c72:	e003      	b.n	8004c7c <HAL_GPIO_WritePin+0x26>
    GPIOx->BSRR = (uint32_t)GPIO_Pin << 16u;
 8004c74:	887b      	ldrh	r3, [r7, #2]
 8004c76:	041a      	lsls	r2, r3, #16
 8004c78:	687b      	ldr	r3, [r7, #4]
 8004c7a:	611a      	str	r2, [r3, #16]
}
 8004c7c:	bf00      	nop
 8004c7e:	370c      	adds	r7, #12
 8004c80:	46bd      	mov	sp, r7
 8004c82:	bc80      	pop	{r7}
 8004c84:	4770      	bx	lr

08004c86 <HAL_GPIO_TogglePin>:
  * @param  GPIOx: where x can be (A..G depending on device used) to select the GPIO peripheral
  * @param  GPIO_Pin: Specifies the pins to be toggled.
  * @retval None
  */
void HAL_GPIO_TogglePin(GPIO_TypeDef *GPIOx, uint16_t GPIO_Pin)
{
 8004c86:	b480      	push	{r7}
 8004c88:	b085      	sub	sp, #20
 8004c8a:	af00      	add	r7, sp, #0
 8004c8c:	6078      	str	r0, [r7, #4]
 8004c8e:	460b      	mov	r3, r1
 8004c90:	807b      	strh	r3, [r7, #2]

  /* Check the parameters */
  assert_param(IS_GPIO_PIN(GPIO_Pin));

  /* get current Output Data Register value */
  odr = GPIOx->ODR;
 8004c92:	687b      	ldr	r3, [r7, #4]
 8004c94:	68db      	ldr	r3, [r3, #12]
 8004c96:	60fb      	str	r3, [r7, #12]

  /* Set selected pins that were at low level, and reset ones that were high */
  GPIOx->BSRR = ((odr & GPIO_Pin) << GPIO_NUMBER) | (~odr & GPIO_Pin);
 8004c98:	887a      	ldrh	r2, [r7, #2]
 8004c9a:	68fb      	ldr	r3, [r7, #12]
 8004c9c:	4013      	ands	r3, r2
 8004c9e:	041a      	lsls	r2, r3, #16
 8004ca0:	68fb      	ldr	r3, [r7, #12]
 8004ca2:	43d9      	mvns	r1, r3
 8004ca4:	887b      	ldrh	r3, [r7, #2]
 8004ca6:	400b      	ands	r3, r1
 8004ca8:	431a      	orrs	r2, r3
 8004caa:	687b      	ldr	r3, [r7, #4]
 8004cac:	611a      	str	r2, [r3, #16]
}
 8004cae:	bf00      	nop
 8004cb0:	3714      	adds	r7, #20
 8004cb2:	46bd      	mov	sp, r7
 8004cb4:	bc80      	pop	{r7}
 8004cb6:	4770      	bx	lr

08004cb8 <HAL_I2C_Init>:
  * @param  hi2c Pointer to a I2C_HandleTypeDef structure that contains
  *                the configuration information for the specified I2C.
  * @retval HAL status
  */
HAL_StatusTypeDef HAL_I2C_Init(I2C_HandleTypeDef *hi2c)
{
 8004cb8:	b580      	push	{r7, lr}
 8004cba:	b084      	sub	sp, #16
 8004cbc:	af00      	add	r7, sp, #0
 8004cbe:	6078      	str	r0, [r7, #4]
  uint32_t freqrange;
  uint32_t pclk1;

  /* Check the I2C handle allocation */
  if (hi2c == NULL)
 8004cc0:	687b      	ldr	r3, [r7, #4]
 8004cc2:	2b00      	cmp	r3, #0
 8004cc4:	d101      	bne.n	8004cca <HAL_I2C_Init+0x12>
  {
    return HAL_ERROR;
 8004cc6:	2301      	movs	r3, #1
 8004cc8:	e12b      	b.n	8004f22 <HAL_I2C_Init+0x26a>
  assert_param(IS_I2C_DUAL_ADDRESS(hi2c->Init.DualAddressMode));
  assert_param(IS_I2C_OWN_ADDRESS2(hi2c->Init.OwnAddress2));
  assert_param(IS_I2C_GENERAL_CALL(hi2c->Init.GeneralCallMode));
  assert_param(IS_I2C_NO_STRETCH(hi2c->Init.NoStretchMode));

  if (hi2c->State == HAL_I2C_STATE_RESET)
 8004cca:	687b      	ldr	r3, [r7, #4]
 8004ccc:	f893 303d 	ldrb.w	r3, [r3, #61]	@ 0x3d
 8004cd0:	b2db      	uxtb	r3, r3
 8004cd2:	2b00      	cmp	r3, #0
 8004cd4:	d106      	bne.n	8004ce4 <HAL_I2C_Init+0x2c>
  {
    /* Allocate lock resource and initialize it */
    hi2c->Lock = HAL_UNLOCKED;
 8004cd6:	687b      	ldr	r3, [r7, #4]
 8004cd8:	2200      	movs	r2, #0
 8004cda:	f883 203c 	strb.w	r2, [r3, #60]	@ 0x3c

    /* Init the low level hardware : GPIO, CLOCK, NVIC */
    hi2c->MspInitCallback(hi2c);
#else
    /* Init the low level hardware : GPIO, CLOCK, NVIC */
    HAL_I2C_MspInit(hi2c);
 8004cde:	6878      	ldr	r0, [r7, #4]
 8004ce0:	f7fe fd5c 	bl	800379c <HAL_I2C_MspInit>
#endif /* USE_HAL_I2C_REGISTER_CALLBACKS */
  }

  hi2c->State = HAL_I2C_STATE_BUSY;
 8004ce4:	687b      	ldr	r3, [r7, #4]
 8004ce6:	2224      	movs	r2, #36	@ 0x24
 8004ce8:	f883 203d 	strb.w	r2, [r3, #61]	@ 0x3d

  /* Disable the selected I2C peripheral */
  __HAL_I2C_DISABLE(hi2c);
 8004cec:	687b      	ldr	r3, [r7, #4]
 8004cee:	681b      	ldr	r3, [r3, #0]
 8004cf0:	681a      	ldr	r2, [r3, #0]
 8004cf2:	687b      	ldr	r3, [r7, #4]
 8004cf4:	681b      	ldr	r3, [r3, #0]
 8004cf6:	f022 0201 	bic.w	r2, r2, #1
 8004cfa:	601a      	str	r2, [r3, #0]

  /*Reset I2C*/
  hi2c->Instance->CR1 |= I2C_CR1_SWRST;
 8004cfc:	687b      	ldr	r3, [r7, #4]
 8004cfe:	681b      	ldr	r3, [r3, #0]
 8004d00:	681a      	ldr	r2, [r3, #0]
 8004d02:	687b      	ldr	r3, [r7, #4]
 8004d04:	681b      	ldr	r3, [r3, #0]
 8004d06:	f442 4200 	orr.w	r2, r2, #32768	@ 0x8000
 8004d0a:	601a      	str	r2, [r3, #0]
  hi2c->Instance->CR1 &= ~I2C_CR1_SWRST;
 8004d0c:	687b      	ldr	r3, [r7, #4]
 8004d0e:	681b      	ldr	r3, [r3, #0]
 8004d10:	681a      	ldr	r2, [r3, #0]
 8004d12:	687b      	ldr	r3, [r7, #4]
 8004d14:	681b      	ldr	r3, [r3, #0]
 8004d16:	f422 4200 	bic.w	r2, r2, #32768	@ 0x8000
 8004d1a:	601a      	str	r2, [r3, #0]

  /* Get PCLK1 frequency */
  pclk1 = HAL_RCC_GetPCLK1Freq();
 8004d1c:	f001 fbf8 	bl	8006510 <HAL_RCC_GetPCLK1Freq>
 8004d20:	60f8      	str	r0, [r7, #12]

  /* Check the minimum allowed PCLK1 frequency */
  if (I2C_MIN_PCLK_FREQ(pclk1, hi2c->Init.ClockSpeed) == 1U)
 8004d22:	687b      	ldr	r3, [r7, #4]
 8004d24:	685b      	ldr	r3, [r3, #4]
 8004d26:	4a81      	ldr	r2, [pc, #516]	@ (8004f2c <HAL_I2C_Init+0x274>)
 8004d28:	4293      	cmp	r3, r2
 8004d2a:	d807      	bhi.n	8004d3c <HAL_I2C_Init+0x84>
 8004d2c:	68fb      	ldr	r3, [r7, #12]
 8004d2e:	4a80      	ldr	r2, [pc, #512]	@ (8004f30 <HAL_I2C_Init+0x278>)
 8004d30:	4293      	cmp	r3, r2
 8004d32:	bf94      	ite	ls
 8004d34:	2301      	movls	r3, #1
 8004d36:	2300      	movhi	r3, #0
 8004d38:	b2db      	uxtb	r3, r3
 8004d3a:	e006      	b.n	8004d4a <HAL_I2C_Init+0x92>
 8004d3c:	68fb      	ldr	r3, [r7, #12]
 8004d3e:	4a7d      	ldr	r2, [pc, #500]	@ (8004f34 <HAL_I2C_Init+0x27c>)
 8004d40:	4293      	cmp	r3, r2
 8004d42:	bf94      	ite	ls
 8004d44:	2301      	movls	r3, #1
 8004d46:	2300      	movhi	r3, #0
 8004d48:	b2db      	uxtb	r3, r3
 8004d4a:	2b00      	cmp	r3, #0
 8004d4c:	d001      	beq.n	8004d52 <HAL_I2C_Init+0x9a>
  {
    return HAL_ERROR;
 8004d4e:	2301      	movs	r3, #1
 8004d50:	e0e7      	b.n	8004f22 <HAL_I2C_Init+0x26a>
  }

  /* Calculate frequency range */
  freqrange = I2C_FREQRANGE(pclk1);
 8004d52:	68fb      	ldr	r3, [r7, #12]
 8004d54:	4a78      	ldr	r2, [pc, #480]	@ (8004f38 <HAL_I2C_Init+0x280>)
 8004d56:	fba2 2303 	umull	r2, r3, r2, r3
 8004d5a:	0c9b      	lsrs	r3, r3, #18
 8004d5c:	60bb      	str	r3, [r7, #8]

  /*---------------------------- I2Cx CR2 Configuration ----------------------*/
  /* Configure I2Cx: Frequency range */
  MODIFY_REG(hi2c->Instance->CR2, I2C_CR2_FREQ, freqrange);
 8004d5e:	687b      	ldr	r3, [r7, #4]
 8004d60:	681b      	ldr	r3, [r3, #0]
 8004d62:	685b      	ldr	r3, [r3, #4]
 8004d64:	f023 013f 	bic.w	r1, r3, #63	@ 0x3f
 8004d68:	687b      	ldr	r3, [r7, #4]
 8004d6a:	681b      	ldr	r3, [r3, #0]
 8004d6c:	68ba      	ldr	r2, [r7, #8]
 8004d6e:	430a      	orrs	r2, r1
 8004d70:	605a      	str	r2, [r3, #4]

  /*---------------------------- I2Cx TRISE Configuration --------------------*/
  /* Configure I2Cx: Rise Time */
  MODIFY_REG(hi2c->Instance->TRISE, I2C_TRISE_TRISE, I2C_RISE_TIME(freqrange, hi2c->Init.ClockSpeed));
 8004d72:	687b      	ldr	r3, [r7, #4]
 8004d74:	681b      	ldr	r3, [r3, #0]
 8004d76:	6a1b      	ldr	r3, [r3, #32]
 8004d78:	f023 013f 	bic.w	r1, r3, #63	@ 0x3f
 8004d7c:	687b      	ldr	r3, [r7, #4]
 8004d7e:	685b      	ldr	r3, [r3, #4]
 8004d80:	4a6a      	ldr	r2, [pc, #424]	@ (8004f2c <HAL_I2C_Init+0x274>)
 8004d82:	4293      	cmp	r3, r2
 8004d84:	d802      	bhi.n	8004d8c <HAL_I2C_Init+0xd4>
 8004d86:	68bb      	ldr	r3, [r7, #8]
 8004d88:	3301      	adds	r3, #1
 8004d8a:	e009      	b.n	8004da0 <HAL_I2C_Init+0xe8>
 8004d8c:	68bb      	ldr	r3, [r7, #8]
 8004d8e:	f44f 7296 	mov.w	r2, #300	@ 0x12c
 8004d92:	fb02 f303 	mul.w	r3, r2, r3
 8004d96:	4a69      	ldr	r2, [pc, #420]	@ (8004f3c <HAL_I2C_Init+0x284>)
 8004d98:	fba2 2303 	umull	r2, r3, r2, r3
 8004d9c:	099b      	lsrs	r3, r3, #6
 8004d9e:	3301      	adds	r3, #1
 8004da0:	687a      	ldr	r2, [r7, #4]
 8004da2:	6812      	ldr	r2, [r2, #0]
 8004da4:	430b      	orrs	r3, r1
 8004da6:	6213      	str	r3, [r2, #32]

  /*---------------------------- I2Cx CCR Configuration ----------------------*/
  /* Configure I2Cx: Speed */
  MODIFY_REG(hi2c->Instance->CCR, (I2C_CCR_FS | I2C_CCR_DUTY | I2C_CCR_CCR), I2C_SPEED(pclk1, hi2c->Init.ClockSpeed, hi2c->Init.DutyCycle));
 8004da8:	687b      	ldr	r3, [r7, #4]
 8004daa:	681b      	ldr	r3, [r3, #0]
 8004dac:	69db      	ldr	r3, [r3, #28]
 8004dae:	f423 424f 	bic.w	r2, r3, #52992	@ 0xcf00
 8004db2:	f022 02ff 	bic.w	r2, r2, #255	@ 0xff
 8004db6:	687b      	ldr	r3, [r7, #4]
 8004db8:	685b      	ldr	r3, [r3, #4]
 8004dba:	495c      	ldr	r1, [pc, #368]	@ (8004f2c <HAL_I2C_Init+0x274>)
 8004dbc:	428b      	cmp	r3, r1
 8004dbe:	d819      	bhi.n	8004df4 <HAL_I2C_Init+0x13c>
 8004dc0:	68fb      	ldr	r3, [r7, #12]
 8004dc2:	1e59      	subs	r1, r3, #1
 8004dc4:	687b      	ldr	r3, [r7, #4]
 8004dc6:	685b      	ldr	r3, [r3, #4]
 8004dc8:	005b      	lsls	r3, r3, #1
 8004dca:	fbb1 f3f3 	udiv	r3, r1, r3
 8004dce:	1c59      	adds	r1, r3, #1
 8004dd0:	f640 73fc 	movw	r3, #4092	@ 0xffc
 8004dd4:	400b      	ands	r3, r1
 8004dd6:	2b00      	cmp	r3, #0
 8004dd8:	d00a      	beq.n	8004df0 <HAL_I2C_Init+0x138>
 8004dda:	68fb      	ldr	r3, [r7, #12]
 8004ddc:	1e59      	subs	r1, r3, #1
 8004dde:	687b      	ldr	r3, [r7, #4]
 8004de0:	685b      	ldr	r3, [r3, #4]
 8004de2:	005b      	lsls	r3, r3, #1
 8004de4:	fbb1 f3f3 	udiv	r3, r1, r3
 8004de8:	3301      	adds	r3, #1
 8004dea:	f3c3 030b 	ubfx	r3, r3, #0, #12
 8004dee:	e051      	b.n	8004e94 <HAL_I2C_Init+0x1dc>
 8004df0:	2304      	movs	r3, #4
 8004df2:	e04f      	b.n	8004e94 <HAL_I2C_Init+0x1dc>
 8004df4:	687b      	ldr	r3, [r7, #4]
 8004df6:	689b      	ldr	r3, [r3, #8]
 8004df8:	2b00      	cmp	r3, #0
 8004dfa:	d111      	bne.n	8004e20 <HAL_I2C_Init+0x168>
 8004dfc:	68fb      	ldr	r3, [r7, #12]
 8004dfe:	1e58      	subs	r0, r3, #1
 8004e00:	687b      	ldr	r3, [r7, #4]
 8004e02:	6859      	ldr	r1, [r3, #4]
 8004e04:	460b      	mov	r3, r1
 8004e06:	005b      	lsls	r3, r3, #1
 8004e08:	440b      	add	r3, r1
 8004e0a:	fbb0 f3f3 	udiv	r3, r0, r3
 8004e0e:	3301      	adds	r3, #1
 8004e10:	f3c3 030b 	ubfx	r3, r3, #0, #12
 8004e14:	2b00      	cmp	r3, #0
 8004e16:	bf0c      	ite	eq
 8004e18:	2301      	moveq	r3, #1
 8004e1a:	2300      	movne	r3, #0
 8004e1c:	b2db      	uxtb	r3, r3
 8004e1e:	e012      	b.n	8004e46 <HAL_I2C_Init+0x18e>
 8004e20:	68fb      	ldr	r3, [r7, #12]
 8004e22:	1e58      	subs	r0, r3, #1
 8004e24:	687b      	ldr	r3, [r7, #4]
 8004e26:	6859      	ldr	r1, [r3, #4]
 8004e28:	460b      	mov	r3, r1
 8004e2a:	009b      	lsls	r3, r3, #2
 8004e2c:	440b      	add	r3, r1
 8004e2e:	0099      	lsls	r1, r3, #2
 8004e30:	440b      	add	r3, r1
 8004e32:	fbb0 f3f3 	udiv	r3, r0, r3
 8004e36:	3301      	adds	r3, #1
 8004e38:	f3c3 030b 	ubfx	r3, r3, #0, #12
 8004e3c:	2b00      	cmp	r3, #0
 8004e3e:	bf0c      	ite	eq
 8004e40:	2301      	moveq	r3, #1
 8004e42:	2300      	movne	r3, #0
 8004e44:	b2db      	uxtb	r3, r3
 8004e46:	2b00      	cmp	r3, #0
 8004e48:	d001      	beq.n	8004e4e <HAL_I2C_Init+0x196>
 8004e4a:	2301      	movs	r3, #1
 8004e4c:	e022      	b.n	8004e94 <HAL_I2C_Init+0x1dc>
 8004e4e:	687b      	ldr	r3, [r7, #4]
 8004e50:	689b      	ldr	r3, [r3, #8]
 8004e52:	2b00      	cmp	r3, #0
 8004e54:	d10e      	bne.n	8004e74 <HAL_I2C_Init+0x1bc>
 8004e56:	68fb      	ldr	r3, [r7, #12]
 8004e58:	1e58      	subs	r0, r3, #1
 8004e5a:	687b      	ldr	r3, [r7, #4]
 8004e5c:	6859      	ldr	r1, [r3, #4]
 8004e5e:	460b      	mov	r3, r1
 8004e60:	005b      	lsls	r3, r3, #1
 8004e62:	440b      	add	r3, r1
 8004e64:	fbb0 f3f3 	udiv	r3, r0, r3
 8004e68:	3301      	adds	r3, #1
 8004e6a:	f3c3 030b 	ubfx	r3, r3, #0, #12
 8004e6e:	f443 4300 	orr.w	r3, r3, #32768	@ 0x8000
 8004e72:	e00f      	b.n	8004e94 <HAL_I2C_Init+0x1dc>
 8004e74:	68fb      	ldr	r3, [r7, #12]
 8004e76:	1e58      	subs	r0, r3, #1
 8004e78:	687b      	ldr	r3, [r7, #4]
 8004e7a:	6859      	ldr	r1, [r3, #4]
 8004e7c:	460b      	mov	r3, r1
 8004e7e:	009b      	lsls	r3, r3, #2
 8004e80:	440b      	add	r3, r1
 8004e82:	0099      	lsls	r1, r3, #2
 8004e84:	440b      	add	r3, r1
 8004e86:	fbb0 f3f3 	udiv	r3, r0, r3
 8004e8a:	3301      	adds	r3, #1
 8004e8c:	f3c3 030b 	ubfx	r3, r3, #0, #12
 8004e90:	f443 4340 	orr.w	r3, r3, #49152	@ 0xc000
 8004e94:	6879      	ldr	r1, [r7, #4]
 8004e96:	6809      	ldr	r1, [r1, #0]
 8004e98:	4313      	orrs	r3, r2
 8004e9a:	61cb      	str	r3, [r1, #28]

  /*---------------------------- I2Cx CR1 Configuration ----------------------*/
  /* Configure I2Cx: Generalcall and NoStretch mode */
  MODIFY_REG(hi2c->Instance->CR1, (I2C_CR1_ENGC | I2C_CR1_NOSTRETCH), (hi2c->Init.GeneralCallMode | hi2c->Init.NoStretchMode));
 8004e9c:	687b      	ldr	r3, [r7, #4]
 8004e9e:	681b      	ldr	r3, [r3, #0]
 8004ea0:	681b      	ldr	r3, [r3, #0]
 8004ea2:	f023 01c0 	bic.w	r1, r3, #192	@ 0xc0
 8004ea6:	687b      	ldr	r3, [r7, #4]
 8004ea8:	69da      	ldr	r2, [r3, #28]
 8004eaa:	687b      	ldr	r3, [r7, #4]
 8004eac:	6a1b      	ldr	r3, [r3, #32]
 8004eae:	431a      	orrs	r2, r3
 8004eb0:	687b      	ldr	r3, [r7, #4]
 8004eb2:	681b      	ldr	r3, [r3, #0]
 8004eb4:	430a      	orrs	r2, r1
 8004eb6:	601a      	str	r2, [r3, #0]

  /*---------------------------- I2Cx OAR1 Configuration ---------------------*/
  /* Configure I2Cx: Own Address1 and addressing mode */
  MODIFY_REG(hi2c->Instance->OAR1, (I2C_OAR1_ADDMODE | I2C_OAR1_ADD8_9 | I2C_OAR1_ADD1_7 | I2C_OAR1_ADD0), (hi2c->Init.AddressingMode | hi2c->Init.OwnAddress1));
 8004eb8:	687b      	ldr	r3, [r7, #4]
 8004eba:	681b      	ldr	r3, [r3, #0]
 8004ebc:	689b      	ldr	r3, [r3, #8]
 8004ebe:	f423 4303 	bic.w	r3, r3, #33536	@ 0x8300
 8004ec2:	f023 03ff 	bic.w	r3, r3, #255	@ 0xff
 8004ec6:	687a      	ldr	r2, [r7, #4]
 8004ec8:	6911      	ldr	r1, [r2, #16]
 8004eca:	687a      	ldr	r2, [r7, #4]
 8004ecc:	68d2      	ldr	r2, [r2, #12]
 8004ece:	4311      	orrs	r1, r2
 8004ed0:	687a      	ldr	r2, [r7, #4]
 8004ed2:	6812      	ldr	r2, [r2, #0]
 8004ed4:	430b      	orrs	r3, r1
 8004ed6:	6093      	str	r3, [r2, #8]

  /*---------------------------- I2Cx OAR2 Configuration ---------------------*/
  /* Configure I2Cx: Dual mode and Own Address2 */
  MODIFY_REG(hi2c->Instance->OAR2, (I2C_OAR2_ENDUAL | I2C_OAR2_ADD2), (hi2c->Init.DualAddressMode | hi2c->Init.OwnAddress2));
 8004ed8:	687b      	ldr	r3, [r7, #4]
 8004eda:	681b      	ldr	r3, [r3, #0]
 8004edc:	68db      	ldr	r3, [r3, #12]
 8004ede:	f023 01ff 	bic.w	r1, r3, #255	@ 0xff
 8004ee2:	687b      	ldr	r3, [r7, #4]
 8004ee4:	695a      	ldr	r2, [r3, #20]
 8004ee6:	687b      	ldr	r3, [r7, #4]
 8004ee8:	699b      	ldr	r3, [r3, #24]
 8004eea:	431a      	orrs	r2, r3
 8004eec:	687b      	ldr	r3, [r7, #4]
 8004eee:	681b      	ldr	r3, [r3, #0]
 8004ef0:	430a      	orrs	r2, r1
 8004ef2:	60da      	str	r2, [r3, #12]

  /* Enable the selected I2C peripheral */
  __HAL_I2C_ENABLE(hi2c);
 8004ef4:	687b      	ldr	r3, [r7, #4]
 8004ef6:	681b      	ldr	r3, [r3, #0]
 8004ef8:	681a      	ldr	r2, [r3, #0]
 8004efa:	687b      	ldr	r3, [r7, #4]
 8004efc:	681b      	ldr	r3, [r3, #0]
 8004efe:	f042 0201 	orr.w	r2, r2, #1
 8004f02:	601a      	str	r2, [r3, #0]

  hi2c->ErrorCode = HAL_I2C_ERROR_NONE;
 8004f04:	687b      	ldr	r3, [r7, #4]
 8004f06:	2200      	movs	r2, #0
 8004f08:	641a      	str	r2, [r3, #64]	@ 0x40
  hi2c->State = HAL_I2C_STATE_READY;
 8004f0a:	687b      	ldr	r3, [r7, #4]
 8004f0c:	2220      	movs	r2, #32
 8004f0e:	f883 203d 	strb.w	r2, [r3, #61]	@ 0x3d
  hi2c->PreviousState = I2C_STATE_NONE;
 8004f12:	687b      	ldr	r3, [r7, #4]
 8004f14:	2200      	movs	r2, #0
 8004f16:	631a      	str	r2, [r3, #48]	@ 0x30
  hi2c->Mode = HAL_I2C_MODE_NONE;
 8004f18:	687b      	ldr	r3, [r7, #4]
 8004f1a:	2200      	movs	r2, #0
 8004f1c:	f883 203e 	strb.w	r2, [r3, #62]	@ 0x3e

  return HAL_OK;
 8004f20:	2300      	movs	r3, #0
}
 8004f22:	4618      	mov	r0, r3
 8004f24:	3710      	adds	r7, #16
 8004f26:	46bd      	mov	sp, r7
 8004f28:	bd80      	pop	{r7, pc}
 8004f2a:	bf00      	nop
 8004f2c:	000186a0 	.word	0x000186a0
 8004f30:	001e847f 	.word	0x001e847f
 8004f34:	003d08ff 	.word	0x003d08ff
 8004f38:	431bde83 	.word	0x431bde83
 8004f3c:	10624dd3 	.word	0x10624dd3

08004f40 <HAL_I2C_Master_Transmit>:
  * @param  Size Amount of data to be sent
  * @param  Timeout Timeout duration
  * @retval HAL status
  */
HAL_StatusTypeDef HAL_I2C_Master_Transmit(I2C_HandleTypeDef *hi2c, uint16_t DevAddress, uint8_t *pData, uint16_t Size, uint32_t Timeout)
{
 8004f40:	b580      	push	{r7, lr}
 8004f42:	b088      	sub	sp, #32
 8004f44:	af02      	add	r7, sp, #8
 8004f46:	60f8      	str	r0, [r7, #12]
 8004f48:	607a      	str	r2, [r7, #4]
 8004f4a:	461a      	mov	r2, r3
 8004f4c:	460b      	mov	r3, r1
 8004f4e:	817b      	strh	r3, [r7, #10]
 8004f50:	4613      	mov	r3, r2
 8004f52:	813b      	strh	r3, [r7, #8]
  /* Init tickstart for timeout management*/
  uint32_t tickstart = HAL_GetTick();
 8004f54:	f7fe fecc 	bl	8003cf0 <HAL_GetTick>
 8004f58:	6178      	str	r0, [r7, #20]

  if (hi2c->State == HAL_I2C_STATE_READY)
 8004f5a:	68fb      	ldr	r3, [r7, #12]
 8004f5c:	f893 303d 	ldrb.w	r3, [r3, #61]	@ 0x3d
 8004f60:	b2db      	uxtb	r3, r3
 8004f62:	2b20      	cmp	r3, #32
 8004f64:	f040 80e0 	bne.w	8005128 <HAL_I2C_Master_Transmit+0x1e8>
  {
    /* Wait until BUSY flag is reset */
    if (I2C_WaitOnFlagUntilTimeout(hi2c, I2C_FLAG_BUSY, SET, I2C_TIMEOUT_BUSY_FLAG, tickstart) != HAL_OK)
 8004f68:	697b      	ldr	r3, [r7, #20]
 8004f6a:	9300      	str	r3, [sp, #0]
 8004f6c:	2319      	movs	r3, #25
 8004f6e:	2201      	movs	r2, #1
 8004f70:	4970      	ldr	r1, [pc, #448]	@ (8005134 <HAL_I2C_Master_Transmit+0x1f4>)
 8004f72:	68f8      	ldr	r0, [r7, #12]
 8004f74:	f000 fccc 	bl	8005910 <I2C_WaitOnFlagUntilTimeout>
 8004f78:	4603      	mov	r3, r0
 8004f7a:	2b00      	cmp	r3, #0
 8004f7c:	d001      	beq.n	8004f82 <HAL_I2C_Master_Transmit+0x42>
    {
      return HAL_BUSY;
 8004f7e:	2302      	movs	r3, #2
 8004f80:	e0d3      	b.n	800512a <HAL_I2C_Master_Transmit+0x1ea>
    }

    /* Process Locked */
    __HAL_LOCK(hi2c);
 8004f82:	68fb      	ldr	r3, [r7, #12]
 8004f84:	f893 303c 	ldrb.w	r3, [r3, #60]	@ 0x3c
 8004f88:	2b01      	cmp	r3, #1
 8004f8a:	d101      	bne.n	8004f90 <HAL_I2C_Master_Transmit+0x50>
 8004f8c:	2302      	movs	r3, #2
 8004f8e:	e0cc      	b.n	800512a <HAL_I2C_Master_Transmit+0x1ea>
 8004f90:	68fb      	ldr	r3, [r7, #12]
 8004f92:	2201      	movs	r2, #1
 8004f94:	f883 203c 	strb.w	r2, [r3, #60]	@ 0x3c

    /* Check if the I2C is already enabled */
    if ((hi2c->Instance->CR1 & I2C_CR1_PE) != I2C_CR1_PE)
 8004f98:	68fb      	ldr	r3, [r7, #12]
 8004f9a:	681b      	ldr	r3, [r3, #0]
 8004f9c:	681b      	ldr	r3, [r3, #0]
 8004f9e:	f003 0301 	and.w	r3, r3, #1
 8004fa2:	2b01      	cmp	r3, #1
 8004fa4:	d007      	beq.n	8004fb6 <HAL_I2C_Master_Transmit+0x76>
    {
      /* Enable I2C peripheral */
      __HAL_I2C_ENABLE(hi2c);
 8004fa6:	68fb      	ldr	r3, [r7, #12]
 8004fa8:	681b      	ldr	r3, [r3, #0]
 8004faa:	681a      	ldr	r2, [r3, #0]
 8004fac:	68fb      	ldr	r3, [r7, #12]
 8004fae:	681b      	ldr	r3, [r3, #0]
 8004fb0:	f042 0201 	orr.w	r2, r2, #1
 8004fb4:	601a      	str	r2, [r3, #0]
    }

    /* Disable Pos */
    CLEAR_BIT(hi2c->Instance->CR1, I2C_CR1_POS);
 8004fb6:	68fb      	ldr	r3, [r7, #12]
 8004fb8:	681b      	ldr	r3, [r3, #0]
 8004fba:	681a      	ldr	r2, [r3, #0]
 8004fbc:	68fb      	ldr	r3, [r7, #12]
 8004fbe:	681b      	ldr	r3, [r3, #0]
 8004fc0:	f422 6200 	bic.w	r2, r2, #2048	@ 0x800
 8004fc4:	601a      	str	r2, [r3, #0]

    hi2c->State       = HAL_I2C_STATE_BUSY_TX;
 8004fc6:	68fb      	ldr	r3, [r7, #12]
 8004fc8:	2221      	movs	r2, #33	@ 0x21
 8004fca:	f883 203d 	strb.w	r2, [r3, #61]	@ 0x3d
    hi2c->Mode        = HAL_I2C_MODE_MASTER;
 8004fce:	68fb      	ldr	r3, [r7, #12]
 8004fd0:	2210      	movs	r2, #16
 8004fd2:	f883 203e 	strb.w	r2, [r3, #62]	@ 0x3e
    hi2c->ErrorCode   = HAL_I2C_ERROR_NONE;
 8004fd6:	68fb      	ldr	r3, [r7, #12]
 8004fd8:	2200      	movs	r2, #0
 8004fda:	641a      	str	r2, [r3, #64]	@ 0x40

    /* Prepare transfer parameters */
    hi2c->pBuffPtr    = pData;
 8004fdc:	68fb      	ldr	r3, [r7, #12]
 8004fde:	687a      	ldr	r2, [r7, #4]
 8004fe0:	625a      	str	r2, [r3, #36]	@ 0x24
    hi2c->XferCount   = Size;
 8004fe2:	68fb      	ldr	r3, [r7, #12]
 8004fe4:	893a      	ldrh	r2, [r7, #8]
 8004fe6:	855a      	strh	r2, [r3, #42]	@ 0x2a
    hi2c->XferSize    = hi2c->XferCount;
 8004fe8:	68fb      	ldr	r3, [r7, #12]
 8004fea:	8d5b      	ldrh	r3, [r3, #42]	@ 0x2a
 8004fec:	b29a      	uxth	r2, r3
 8004fee:	68fb      	ldr	r3, [r7, #12]
 8004ff0:	851a      	strh	r2, [r3, #40]	@ 0x28
    hi2c->XferOptions = I2C_NO_OPTION_FRAME;
 8004ff2:	68fb      	ldr	r3, [r7, #12]
 8004ff4:	4a50      	ldr	r2, [pc, #320]	@ (8005138 <HAL_I2C_Master_Transmit+0x1f8>)
 8004ff6:	62da      	str	r2, [r3, #44]	@ 0x2c

    /* Send Slave Address */
    if (I2C_MasterRequestWrite(hi2c, DevAddress, Timeout, tickstart) != HAL_OK)
 8004ff8:	8979      	ldrh	r1, [r7, #10]
 8004ffa:	697b      	ldr	r3, [r7, #20]
 8004ffc:	6a3a      	ldr	r2, [r7, #32]
 8004ffe:	68f8      	ldr	r0, [r7, #12]
 8005000:	f000 fb1c 	bl	800563c <I2C_MasterRequestWrite>
 8005004:	4603      	mov	r3, r0
 8005006:	2b00      	cmp	r3, #0
 8005008:	d001      	beq.n	800500e <HAL_I2C_Master_Transmit+0xce>
    {
      return HAL_ERROR;
 800500a:	2301      	movs	r3, #1
 800500c:	e08d      	b.n	800512a <HAL_I2C_Master_Transmit+0x1ea>
    }

    /* Clear ADDR flag */
    __HAL_I2C_CLEAR_ADDRFLAG(hi2c);
 800500e:	2300      	movs	r3, #0
 8005010:	613b      	str	r3, [r7, #16]
 8005012:	68fb      	ldr	r3, [r7, #12]
 8005014:	681b      	ldr	r3, [r3, #0]
 8005016:	695b      	ldr	r3, [r3, #20]
 8005018:	613b      	str	r3, [r7, #16]
 800501a:	68fb      	ldr	r3, [r7, #12]
 800501c:	681b      	ldr	r3, [r3, #0]
 800501e:	699b      	ldr	r3, [r3, #24]
 8005020:	613b      	str	r3, [r7, #16]
 8005022:	693b      	ldr	r3, [r7, #16]

    while (hi2c->XferSize > 0U)
 8005024:	e066      	b.n	80050f4 <HAL_I2C_Master_Transmit+0x1b4>
    {
      /* Wait until TXE flag is set */
      if (I2C_WaitOnTXEFlagUntilTimeout(hi2c, Timeout, tickstart) != HAL_OK)
 8005026:	697a      	ldr	r2, [r7, #20]
 8005028:	6a39      	ldr	r1, [r7, #32]
 800502a:	68f8      	ldr	r0, [r7, #12]
 800502c:	f000 fd8a 	bl	8005b44 <I2C_WaitOnTXEFlagUntilTimeout>
 8005030:	4603      	mov	r3, r0
 8005032:	2b00      	cmp	r3, #0
 8005034:	d00d      	beq.n	8005052 <HAL_I2C_Master_Transmit+0x112>
      {
        if (hi2c->ErrorCode == HAL_I2C_ERROR_AF)
 8005036:	68fb      	ldr	r3, [r7, #12]
 8005038:	6c1b      	ldr	r3, [r3, #64]	@ 0x40
 800503a:	2b04      	cmp	r3, #4
 800503c:	d107      	bne.n	800504e <HAL_I2C_Master_Transmit+0x10e>
        {
          /* Generate Stop */
          SET_BIT(hi2c->Instance->CR1, I2C_CR1_STOP);
 800503e:	68fb      	ldr	r3, [r7, #12]
 8005040:	681b      	ldr	r3, [r3, #0]
 8005042:	681a      	ldr	r2, [r3, #0]
 8005044:	68fb      	ldr	r3, [r7, #12]
 8005046:	681b      	ldr	r3, [r3, #0]
 8005048:	f442 7200 	orr.w	r2, r2, #512	@ 0x200
 800504c:	601a      	str	r2, [r3, #0]
        }
        return HAL_ERROR;
 800504e:	2301      	movs	r3, #1
 8005050:	e06b      	b.n	800512a <HAL_I2C_Master_Transmit+0x1ea>
      }

      /* Write data to DR */
      hi2c->Instance->DR = *hi2c->pBuffPtr;
 8005052:	68fb      	ldr	r3, [r7, #12]
 8005054:	6a5b      	ldr	r3, [r3, #36]	@ 0x24
 8005056:	781a      	ldrb	r2, [r3, #0]
 8005058:	68fb      	ldr	r3, [r7, #12]
 800505a:	681b      	ldr	r3, [r3, #0]
 800505c:	611a      	str	r2, [r3, #16]

      /* Increment Buffer pointer */
      hi2c->pBuffPtr++;
 800505e:	68fb      	ldr	r3, [r7, #12]
 8005060:	6a5b      	ldr	r3, [r3, #36]	@ 0x24
 8005062:	1c5a      	adds	r2, r3, #1
 8005064:	68fb      	ldr	r3, [r7, #12]
 8005066:	625a      	str	r2, [r3, #36]	@ 0x24

      /* Update counter */
      hi2c->XferCount--;
 8005068:	68fb      	ldr	r3, [r7, #12]
 800506a:	8d5b      	ldrh	r3, [r3, #42]	@ 0x2a
 800506c:	b29b      	uxth	r3, r3
 800506e:	3b01      	subs	r3, #1
 8005070:	b29a      	uxth	r2, r3
 8005072:	68fb      	ldr	r3, [r7, #12]
 8005074:	855a      	strh	r2, [r3, #42]	@ 0x2a
      hi2c->XferSize--;
 8005076:	68fb      	ldr	r3, [r7, #12]
 8005078:	8d1b      	ldrh	r3, [r3, #40]	@ 0x28
 800507a:	3b01      	subs	r3, #1
 800507c:	b29a      	uxth	r2, r3
 800507e:	68fb      	ldr	r3, [r7, #12]
 8005080:	851a      	strh	r2, [r3, #40]	@ 0x28

      if ((__HAL_I2C_GET_FLAG(hi2c, I2C_FLAG_BTF) == SET) && (hi2c->XferSize != 0U))
 8005082:	68fb      	ldr	r3, [r7, #12]
 8005084:	681b      	ldr	r3, [r3, #0]
 8005086:	695b      	ldr	r3, [r3, #20]
 8005088:	f003 0304 	and.w	r3, r3, #4
 800508c:	2b04      	cmp	r3, #4
 800508e:	d11b      	bne.n	80050c8 <HAL_I2C_Master_Transmit+0x188>
 8005090:	68fb      	ldr	r3, [r7, #12]
 8005092:	8d1b      	ldrh	r3, [r3, #40]	@ 0x28
 8005094:	2b00      	cmp	r3, #0
 8005096:	d017      	beq.n	80050c8 <HAL_I2C_Master_Transmit+0x188>
      {
        /* Write data to DR */
        hi2c->Instance->DR = *hi2c->pBuffPtr;
 8005098:	68fb      	ldr	r3, [r7, #12]
 800509a:	6a5b      	ldr	r3, [r3, #36]	@ 0x24
 800509c:	781a      	ldrb	r2, [r3, #0]
 800509e:	68fb      	ldr	r3, [r7, #12]
 80050a0:	681b      	ldr	r3, [r3, #0]
 80050a2:	611a      	str	r2, [r3, #16]

        /* Increment Buffer pointer */
        hi2c->pBuffPtr++;
 80050a4:	68fb      	ldr	r3, [r7, #12]
 80050a6:	6a5b      	ldr	r3, [r3, #36]	@ 0x24
 80050a8:	1c5a      	adds	r2, r3, #1
 80050aa:	68fb      	ldr	r3, [r7, #12]
 80050ac:	625a      	str	r2, [r3, #36]	@ 0x24

        /* Update counter */
        hi2c->XferCount--;
 80050ae:	68fb      	ldr	r3, [r7, #12]
 80050b0:	8d5b      	ldrh	r3, [r3, #42]	@ 0x2a
 80050b2:	b29b      	uxth	r3, r3
 80050b4:	3b01      	subs	r3, #1
 80050b6:	b29a      	uxth	r2, r3
 80050b8:	68fb      	ldr	r3, [r7, #12]
 80050ba:	855a      	strh	r2, [r3, #42]	@ 0x2a
        hi2c->XferSize--;
 80050bc:	68fb      	ldr	r3, [r7, #12]
 80050be:	8d1b      	ldrh	r3, [r3, #40]	@ 0x28
 80050c0:	3b01      	subs	r3, #1
 80050c2:	b29a      	uxth	r2, r3
 80050c4:	68fb      	ldr	r3, [r7, #12]
 80050c6:	851a      	strh	r2, [r3, #40]	@ 0x28
      }

      /* Wait until BTF flag is set */
      if (I2C_WaitOnBTFFlagUntilTimeout(hi2c, Timeout, tickstart) != HAL_OK)
 80050c8:	697a      	ldr	r2, [r7, #20]
 80050ca:	6a39      	ldr	r1, [r7, #32]
 80050cc:	68f8      	ldr	r0, [r7, #12]
 80050ce:	f000 fd81 	bl	8005bd4 <I2C_WaitOnBTFFlagUntilTimeout>
 80050d2:	4603      	mov	r3, r0
 80050d4:	2b00      	cmp	r3, #0
 80050d6:	d00d      	beq.n	80050f4 <HAL_I2C_Master_Transmit+0x1b4>
      {
        if (hi2c->ErrorCode == HAL_I2C_ERROR_AF)
 80050d8:	68fb      	ldr	r3, [r7, #12]
 80050da:	6c1b      	ldr	r3, [r3, #64]	@ 0x40
 80050dc:	2b04      	cmp	r3, #4
 80050de:	d107      	bne.n	80050f0 <HAL_I2C_Master_Transmit+0x1b0>
        {
          /* Generate Stop */
          SET_BIT(hi2c->Instance->CR1, I2C_CR1_STOP);
 80050e0:	68fb      	ldr	r3, [r7, #12]
 80050e2:	681b      	ldr	r3, [r3, #0]
 80050e4:	681a      	ldr	r2, [r3, #0]
 80050e6:	68fb      	ldr	r3, [r7, #12]
 80050e8:	681b      	ldr	r3, [r3, #0]
 80050ea:	f442 7200 	orr.w	r2, r2, #512	@ 0x200
 80050ee:	601a      	str	r2, [r3, #0]
        }
        return HAL_ERROR;
 80050f0:	2301      	movs	r3, #1
 80050f2:	e01a      	b.n	800512a <HAL_I2C_Master_Transmit+0x1ea>
    while (hi2c->XferSize > 0U)
 80050f4:	68fb      	ldr	r3, [r7, #12]
 80050f6:	8d1b      	ldrh	r3, [r3, #40]	@ 0x28
 80050f8:	2b00      	cmp	r3, #0
 80050fa:	d194      	bne.n	8005026 <HAL_I2C_Master_Transmit+0xe6>
      }
    }

    /* Generate Stop */
    SET_BIT(hi2c->Instance->CR1, I2C_CR1_STOP);
 80050fc:	68fb      	ldr	r3, [r7, #12]
 80050fe:	681b      	ldr	r3, [r3, #0]
 8005100:	681a      	ldr	r2, [r3, #0]
 8005102:	68fb      	ldr	r3, [r7, #12]
 8005104:	681b      	ldr	r3, [r3, #0]
 8005106:	f442 7200 	orr.w	r2, r2, #512	@ 0x200
 800510a:	601a      	str	r2, [r3, #0]

    hi2c->State = HAL_I2C_STATE_READY;
 800510c:	68fb      	ldr	r3, [r7, #12]
 800510e:	2220      	movs	r2, #32
 8005110:	f883 203d 	strb.w	r2, [r3, #61]	@ 0x3d
    hi2c->Mode = HAL_I2C_MODE_NONE;
 8005114:	68fb      	ldr	r3, [r7, #12]
 8005116:	2200      	movs	r2, #0
 8005118:	f883 203e 	strb.w	r2, [r3, #62]	@ 0x3e

    /* Process Unlocked */
    __HAL_UNLOCK(hi2c);
 800511c:	68fb      	ldr	r3, [r7, #12]
 800511e:	2200      	movs	r2, #0
 8005120:	f883 203c 	strb.w	r2, [r3, #60]	@ 0x3c

    return HAL_OK;
 8005124:	2300      	movs	r3, #0
 8005126:	e000      	b.n	800512a <HAL_I2C_Master_Transmit+0x1ea>
  }
  else
  {
    return HAL_BUSY;
 8005128:	2302      	movs	r3, #2
  }
}
 800512a:	4618      	mov	r0, r3
 800512c:	3718      	adds	r7, #24
 800512e:	46bd      	mov	sp, r7
 8005130:	bd80      	pop	{r7, pc}
 8005132:	bf00      	nop
 8005134:	00100002 	.word	0x00100002
 8005138:	ffff0000 	.word	0xffff0000

0800513c <HAL_I2C_Mem_Read>:
  * @param  Size Amount of data to be sent
  * @param  Timeout Timeout duration
  * @retval HAL status
  */
HAL_StatusTypeDef HAL_I2C_Mem_Read(I2C_HandleTypeDef *hi2c, uint16_t DevAddress, uint16_t MemAddress, uint16_t MemAddSize, uint8_t *pData, uint16_t Size, uint32_t Timeout)
{
 800513c:	b580      	push	{r7, lr}
 800513e:	b08c      	sub	sp, #48	@ 0x30
 8005140:	af02      	add	r7, sp, #8
 8005142:	60f8      	str	r0, [r7, #12]
 8005144:	4608      	mov	r0, r1
 8005146:	4611      	mov	r1, r2
 8005148:	461a      	mov	r2, r3
 800514a:	4603      	mov	r3, r0
 800514c:	817b      	strh	r3, [r7, #10]
 800514e:	460b      	mov	r3, r1
 8005150:	813b      	strh	r3, [r7, #8]
 8005152:	4613      	mov	r3, r2
 8005154:	80fb      	strh	r3, [r7, #6]
  __IO uint32_t count = 0U;
 8005156:	2300      	movs	r3, #0
 8005158:	623b      	str	r3, [r7, #32]

  /* Init tickstart for timeout management*/
  uint32_t tickstart = HAL_GetTick();
 800515a:	f7fe fdc9 	bl	8003cf0 <HAL_GetTick>
 800515e:	6278      	str	r0, [r7, #36]	@ 0x24

  /* Check the parameters */
  assert_param(IS_I2C_MEMADD_SIZE(MemAddSize));

  if (hi2c->State == HAL_I2C_STATE_READY)
 8005160:	68fb      	ldr	r3, [r7, #12]
 8005162:	f893 303d 	ldrb.w	r3, [r3, #61]	@ 0x3d
 8005166:	b2db      	uxtb	r3, r3
 8005168:	2b20      	cmp	r3, #32
 800516a:	f040 8250 	bne.w	800560e <HAL_I2C_Mem_Read+0x4d2>
  {
    /* Wait until BUSY flag is reset */
    if (I2C_WaitOnFlagUntilTimeout(hi2c, I2C_FLAG_BUSY, SET, I2C_TIMEOUT_BUSY_FLAG, tickstart) != HAL_OK)
 800516e:	6a7b      	ldr	r3, [r7, #36]	@ 0x24
 8005170:	9300      	str	r3, [sp, #0]
 8005172:	2319      	movs	r3, #25
 8005174:	2201      	movs	r2, #1
 8005176:	4982      	ldr	r1, [pc, #520]	@ (8005380 <HAL_I2C_Mem_Read+0x244>)
 8005178:	68f8      	ldr	r0, [r7, #12]
 800517a:	f000 fbc9 	bl	8005910 <I2C_WaitOnFlagUntilTimeout>
 800517e:	4603      	mov	r3, r0
 8005180:	2b00      	cmp	r3, #0
 8005182:	d001      	beq.n	8005188 <HAL_I2C_Mem_Read+0x4c>
    {
      return HAL_BUSY;
 8005184:	2302      	movs	r3, #2
 8005186:	e243      	b.n	8005610 <HAL_I2C_Mem_Read+0x4d4>
    }

    /* Process Locked */
    __HAL_LOCK(hi2c);
 8005188:	68fb      	ldr	r3, [r7, #12]
 800518a:	f893 303c 	ldrb.w	r3, [r3, #60]	@ 0x3c
 800518e:	2b01      	cmp	r3, #1
 8005190:	d101      	bne.n	8005196 <HAL_I2C_Mem_Read+0x5a>
 8005192:	2302      	movs	r3, #2
 8005194:	e23c      	b.n	8005610 <HAL_I2C_Mem_Read+0x4d4>
 8005196:	68fb      	ldr	r3, [r7, #12]
 8005198:	2201      	movs	r2, #1
 800519a:	f883 203c 	strb.w	r2, [r3, #60]	@ 0x3c

    /* Check if the I2C is already enabled */
    if ((hi2c->Instance->CR1 & I2C_CR1_PE) != I2C_CR1_PE)
 800519e:	68fb      	ldr	r3, [r7, #12]
 80051a0:	681b      	ldr	r3, [r3, #0]
 80051a2:	681b      	ldr	r3, [r3, #0]
 80051a4:	f003 0301 	and.w	r3, r3, #1
 80051a8:	2b01      	cmp	r3, #1
 80051aa:	d007      	beq.n	80051bc <HAL_I2C_Mem_Read+0x80>
    {
      /* Enable I2C peripheral */
      __HAL_I2C_ENABLE(hi2c);
 80051ac:	68fb      	ldr	r3, [r7, #12]
 80051ae:	681b      	ldr	r3, [r3, #0]
 80051b0:	681a      	ldr	r2, [r3, #0]
 80051b2:	68fb      	ldr	r3, [r7, #12]
 80051b4:	681b      	ldr	r3, [r3, #0]
 80051b6:	f042 0201 	orr.w	r2, r2, #1
 80051ba:	601a      	str	r2, [r3, #0]
    }

    /* Disable Pos */
    CLEAR_BIT(hi2c->Instance->CR1, I2C_CR1_POS);
 80051bc:	68fb      	ldr	r3, [r7, #12]
 80051be:	681b      	ldr	r3, [r3, #0]
 80051c0:	681a      	ldr	r2, [r3, #0]
 80051c2:	68fb      	ldr	r3, [r7, #12]
 80051c4:	681b      	ldr	r3, [r3, #0]
 80051c6:	f422 6200 	bic.w	r2, r2, #2048	@ 0x800
 80051ca:	601a      	str	r2, [r3, #0]

    hi2c->State     = HAL_I2C_STATE_BUSY_RX;
 80051cc:	68fb      	ldr	r3, [r7, #12]
 80051ce:	2222      	movs	r2, #34	@ 0x22
 80051d0:	f883 203d 	strb.w	r2, [r3, #61]	@ 0x3d
    hi2c->Mode      = HAL_I2C_MODE_MEM;
 80051d4:	68fb      	ldr	r3, [r7, #12]
 80051d6:	2240      	movs	r2, #64	@ 0x40
 80051d8:	f883 203e 	strb.w	r2, [r3, #62]	@ 0x3e
    hi2c->ErrorCode = HAL_I2C_ERROR_NONE;
 80051dc:	68fb      	ldr	r3, [r7, #12]
 80051de:	2200      	movs	r2, #0
 80051e0:	641a      	str	r2, [r3, #64]	@ 0x40

    /* Prepare transfer parameters */
    hi2c->pBuffPtr    = pData;
 80051e2:	68fb      	ldr	r3, [r7, #12]
 80051e4:	6b3a      	ldr	r2, [r7, #48]	@ 0x30
 80051e6:	625a      	str	r2, [r3, #36]	@ 0x24
    hi2c->XferCount   = Size;
 80051e8:	68fb      	ldr	r3, [r7, #12]
 80051ea:	8eba      	ldrh	r2, [r7, #52]	@ 0x34
 80051ec:	855a      	strh	r2, [r3, #42]	@ 0x2a
    hi2c->XferSize    = hi2c->XferCount;
 80051ee:	68fb      	ldr	r3, [r7, #12]
 80051f0:	8d5b      	ldrh	r3, [r3, #42]	@ 0x2a
 80051f2:	b29a      	uxth	r2, r3
 80051f4:	68fb      	ldr	r3, [r7, #12]
 80051f6:	851a      	strh	r2, [r3, #40]	@ 0x28
    hi2c->XferOptions = I2C_NO_OPTION_FRAME;
 80051f8:	68fb      	ldr	r3, [r7, #12]
 80051fa:	4a62      	ldr	r2, [pc, #392]	@ (8005384 <HAL_I2C_Mem_Read+0x248>)
 80051fc:	62da      	str	r2, [r3, #44]	@ 0x2c

    /* Send Slave Address and Memory Address */
    if (I2C_RequestMemoryRead(hi2c, DevAddress, MemAddress, MemAddSize, Timeout, tickstart) != HAL_OK)
 80051fe:	88f8      	ldrh	r0, [r7, #6]
 8005200:	893a      	ldrh	r2, [r7, #8]
 8005202:	8979      	ldrh	r1, [r7, #10]
 8005204:	6a7b      	ldr	r3, [r7, #36]	@ 0x24
 8005206:	9301      	str	r3, [sp, #4]
 8005208:	6bbb      	ldr	r3, [r7, #56]	@ 0x38
 800520a:	9300      	str	r3, [sp, #0]
 800520c:	4603      	mov	r3, r0
 800520e:	68f8      	ldr	r0, [r7, #12]
 8005210:	f000 fa96 	bl	8005740 <I2C_RequestMemoryRead>
 8005214:	4603      	mov	r3, r0
 8005216:	2b00      	cmp	r3, #0
 8005218:	d001      	beq.n	800521e <HAL_I2C_Mem_Read+0xe2>
    {
      return HAL_ERROR;
 800521a:	2301      	movs	r3, #1
 800521c:	e1f8      	b.n	8005610 <HAL_I2C_Mem_Read+0x4d4>
    }

    if (hi2c->XferSize == 0U)
 800521e:	68fb      	ldr	r3, [r7, #12]
 8005220:	8d1b      	ldrh	r3, [r3, #40]	@ 0x28
 8005222:	2b00      	cmp	r3, #0
 8005224:	d113      	bne.n	800524e <HAL_I2C_Mem_Read+0x112>
    {
      /* Clear ADDR flag */
      __HAL_I2C_CLEAR_ADDRFLAG(hi2c);
 8005226:	2300      	movs	r3, #0
 8005228:	61fb      	str	r3, [r7, #28]
 800522a:	68fb      	ldr	r3, [r7, #12]
 800522c:	681b      	ldr	r3, [r3, #0]
 800522e:	695b      	ldr	r3, [r3, #20]
 8005230:	61fb      	str	r3, [r7, #28]
 8005232:	68fb      	ldr	r3, [r7, #12]
 8005234:	681b      	ldr	r3, [r3, #0]
 8005236:	699b      	ldr	r3, [r3, #24]
 8005238:	61fb      	str	r3, [r7, #28]
 800523a:	69fb      	ldr	r3, [r7, #28]

      /* Generate Stop */
      SET_BIT(hi2c->Instance->CR1, I2C_CR1_STOP);
 800523c:	68fb      	ldr	r3, [r7, #12]
 800523e:	681b      	ldr	r3, [r3, #0]
 8005240:	681a      	ldr	r2, [r3, #0]
 8005242:	68fb      	ldr	r3, [r7, #12]
 8005244:	681b      	ldr	r3, [r3, #0]
 8005246:	f442 7200 	orr.w	r2, r2, #512	@ 0x200
 800524a:	601a      	str	r2, [r3, #0]
 800524c:	e1cc      	b.n	80055e8 <HAL_I2C_Mem_Read+0x4ac>
    }
    else if (hi2c->XferSize == 1U)
 800524e:	68fb      	ldr	r3, [r7, #12]
 8005250:	8d1b      	ldrh	r3, [r3, #40]	@ 0x28
 8005252:	2b01      	cmp	r3, #1
 8005254:	d11e      	bne.n	8005294 <HAL_I2C_Mem_Read+0x158>
    {
      /* Disable Acknowledge */
      CLEAR_BIT(hi2c->Instance->CR1, I2C_CR1_ACK);
 8005256:	68fb      	ldr	r3, [r7, #12]
 8005258:	681b      	ldr	r3, [r3, #0]
 800525a:	681a      	ldr	r2, [r3, #0]
 800525c:	68fb      	ldr	r3, [r7, #12]
 800525e:	681b      	ldr	r3, [r3, #0]
 8005260:	f422 6280 	bic.w	r2, r2, #1024	@ 0x400
 8005264:	601a      	str	r2, [r3, #0]
  __ASM volatile ("cpsid i" : : : "memory");
 8005266:	b672      	cpsid	i
}
 8005268:	bf00      	nop
      /* Disable all active IRQs around ADDR clearing and STOP programming because the EV6_3
         software sequence must complete before the current byte end of transfer */
      __disable_irq();

      /* Clear ADDR flag */
      __HAL_I2C_CLEAR_ADDRFLAG(hi2c);
 800526a:	2300      	movs	r3, #0
 800526c:	61bb      	str	r3, [r7, #24]
 800526e:	68fb      	ldr	r3, [r7, #12]
 8005270:	681b      	ldr	r3, [r3, #0]
 8005272:	695b      	ldr	r3, [r3, #20]
 8005274:	61bb      	str	r3, [r7, #24]
 8005276:	68fb      	ldr	r3, [r7, #12]
 8005278:	681b      	ldr	r3, [r3, #0]
 800527a:	699b      	ldr	r3, [r3, #24]
 800527c:	61bb      	str	r3, [r7, #24]
 800527e:	69bb      	ldr	r3, [r7, #24]

      /* Generate Stop */
      SET_BIT(hi2c->Instance->CR1, I2C_CR1_STOP);
 8005280:	68fb      	ldr	r3, [r7, #12]
 8005282:	681b      	ldr	r3, [r3, #0]
 8005284:	681a      	ldr	r2, [r3, #0]
 8005286:	68fb      	ldr	r3, [r7, #12]
 8005288:	681b      	ldr	r3, [r3, #0]
 800528a:	f442 7200 	orr.w	r2, r2, #512	@ 0x200
 800528e:	601a      	str	r2, [r3, #0]
  __ASM volatile ("cpsie i" : : : "memory");
 8005290:	b662      	cpsie	i
}
 8005292:	e035      	b.n	8005300 <HAL_I2C_Mem_Read+0x1c4>

      /* Re-enable IRQs */
      __enable_irq();
    }
    else if (hi2c->XferSize == 2U)
 8005294:	68fb      	ldr	r3, [r7, #12]
 8005296:	8d1b      	ldrh	r3, [r3, #40]	@ 0x28
 8005298:	2b02      	cmp	r3, #2
 800529a:	d11e      	bne.n	80052da <HAL_I2C_Mem_Read+0x19e>
    {
      /* Enable Pos */
      SET_BIT(hi2c->Instance->CR1, I2C_CR1_POS);
 800529c:	68fb      	ldr	r3, [r7, #12]
 800529e:	681b      	ldr	r3, [r3, #0]
 80052a0:	681a      	ldr	r2, [r3, #0]
 80052a2:	68fb      	ldr	r3, [r7, #12]
 80052a4:	681b      	ldr	r3, [r3, #0]
 80052a6:	f442 6200 	orr.w	r2, r2, #2048	@ 0x800
 80052aa:	601a      	str	r2, [r3, #0]
  __ASM volatile ("cpsid i" : : : "memory");
 80052ac:	b672      	cpsid	i
}
 80052ae:	bf00      	nop
      /* Disable all active IRQs around ADDR clearing and STOP programming because the EV6_3
         software sequence must complete before the current byte end of transfer */
      __disable_irq();

      /* Clear ADDR flag */
      __HAL_I2C_CLEAR_ADDRFLAG(hi2c);
 80052b0:	2300      	movs	r3, #0
 80052b2:	617b      	str	r3, [r7, #20]
 80052b4:	68fb      	ldr	r3, [r7, #12]
 80052b6:	681b      	ldr	r3, [r3, #0]
 80052b8:	695b      	ldr	r3, [r3, #20]
 80052ba:	617b      	str	r3, [r7, #20]
 80052bc:	68fb      	ldr	r3, [r7, #12]
 80052be:	681b      	ldr	r3, [r3, #0]
 80052c0:	699b      	ldr	r3, [r3, #24]
 80052c2:	617b      	str	r3, [r7, #20]
 80052c4:	697b      	ldr	r3, [r7, #20]

      /* Disable Acknowledge */
      CLEAR_BIT(hi2c->Instance->CR1, I2C_CR1_ACK);
 80052c6:	68fb      	ldr	r3, [r7, #12]
 80052c8:	681b      	ldr	r3, [r3, #0]
 80052ca:	681a      	ldr	r2, [r3, #0]
 80052cc:	68fb      	ldr	r3, [r7, #12]
 80052ce:	681b      	ldr	r3, [r3, #0]
 80052d0:	f422 6280 	bic.w	r2, r2, #1024	@ 0x400
 80052d4:	601a      	str	r2, [r3, #0]
  __ASM volatile ("cpsie i" : : : "memory");
 80052d6:	b662      	cpsie	i
}
 80052d8:	e012      	b.n	8005300 <HAL_I2C_Mem_Read+0x1c4>
      __enable_irq();
    }
    else
    {
      /* Enable Acknowledge */
      SET_BIT(hi2c->Instance->CR1, I2C_CR1_ACK);
 80052da:	68fb      	ldr	r3, [r7, #12]
 80052dc:	681b      	ldr	r3, [r3, #0]
 80052de:	681a      	ldr	r2, [r3, #0]
 80052e0:	68fb      	ldr	r3, [r7, #12]
 80052e2:	681b      	ldr	r3, [r3, #0]
 80052e4:	f442 6280 	orr.w	r2, r2, #1024	@ 0x400
 80052e8:	601a      	str	r2, [r3, #0]
      /* Clear ADDR flag */
      __HAL_I2C_CLEAR_ADDRFLAG(hi2c);
 80052ea:	2300      	movs	r3, #0
 80052ec:	613b      	str	r3, [r7, #16]
 80052ee:	68fb      	ldr	r3, [r7, #12]
 80052f0:	681b      	ldr	r3, [r3, #0]
 80052f2:	695b      	ldr	r3, [r3, #20]
 80052f4:	613b      	str	r3, [r7, #16]
 80052f6:	68fb      	ldr	r3, [r7, #12]
 80052f8:	681b      	ldr	r3, [r3, #0]
 80052fa:	699b      	ldr	r3, [r3, #24]
 80052fc:	613b      	str	r3, [r7, #16]
 80052fe:	693b      	ldr	r3, [r7, #16]
    }

    while (hi2c->XferSize > 0U)
 8005300:	e172      	b.n	80055e8 <HAL_I2C_Mem_Read+0x4ac>
    {
      if (hi2c->XferSize <= 3U)
 8005302:	68fb      	ldr	r3, [r7, #12]
 8005304:	8d1b      	ldrh	r3, [r3, #40]	@ 0x28
 8005306:	2b03      	cmp	r3, #3
 8005308:	f200 811f 	bhi.w	800554a <HAL_I2C_Mem_Read+0x40e>
      {
        /* One byte */
        if (hi2c->XferSize == 1U)
 800530c:	68fb      	ldr	r3, [r7, #12]
 800530e:	8d1b      	ldrh	r3, [r3, #40]	@ 0x28
 8005310:	2b01      	cmp	r3, #1
 8005312:	d123      	bne.n	800535c <HAL_I2C_Mem_Read+0x220>
        {
          /* Wait until RXNE flag is set */
          if (I2C_WaitOnRXNEFlagUntilTimeout(hi2c, Timeout, tickstart) != HAL_OK)
 8005314:	6a7a      	ldr	r2, [r7, #36]	@ 0x24
 8005316:	6bb9      	ldr	r1, [r7, #56]	@ 0x38
 8005318:	68f8      	ldr	r0, [r7, #12]
 800531a:	f000 fca3 	bl	8005c64 <I2C_WaitOnRXNEFlagUntilTimeout>
 800531e:	4603      	mov	r3, r0
 8005320:	2b00      	cmp	r3, #0
 8005322:	d001      	beq.n	8005328 <HAL_I2C_Mem_Read+0x1ec>
          {
            return HAL_ERROR;
 8005324:	2301      	movs	r3, #1
 8005326:	e173      	b.n	8005610 <HAL_I2C_Mem_Read+0x4d4>
          }

          /* Read data from DR */
          *hi2c->pBuffPtr = (uint8_t)hi2c->Instance->DR;
 8005328:	68fb      	ldr	r3, [r7, #12]
 800532a:	681b      	ldr	r3, [r3, #0]
 800532c:	691a      	ldr	r2, [r3, #16]
 800532e:	68fb      	ldr	r3, [r7, #12]
 8005330:	6a5b      	ldr	r3, [r3, #36]	@ 0x24
 8005332:	b2d2      	uxtb	r2, r2
 8005334:	701a      	strb	r2, [r3, #0]

          /* Increment Buffer pointer */
          hi2c->pBuffPtr++;
 8005336:	68fb      	ldr	r3, [r7, #12]
 8005338:	6a5b      	ldr	r3, [r3, #36]	@ 0x24
 800533a:	1c5a      	adds	r2, r3, #1
 800533c:	68fb      	ldr	r3, [r7, #12]
 800533e:	625a      	str	r2, [r3, #36]	@ 0x24

          /* Update counter */
          hi2c->XferSize--;
 8005340:	68fb      	ldr	r3, [r7, #12]
 8005342:	8d1b      	ldrh	r3, [r3, #40]	@ 0x28
 8005344:	3b01      	subs	r3, #1
 8005346:	b29a      	uxth	r2, r3
 8005348:	68fb      	ldr	r3, [r7, #12]
 800534a:	851a      	strh	r2, [r3, #40]	@ 0x28
          hi2c->XferCount--;
 800534c:	68fb      	ldr	r3, [r7, #12]
 800534e:	8d5b      	ldrh	r3, [r3, #42]	@ 0x2a
 8005350:	b29b      	uxth	r3, r3
 8005352:	3b01      	subs	r3, #1
 8005354:	b29a      	uxth	r2, r3
 8005356:	68fb      	ldr	r3, [r7, #12]
 8005358:	855a      	strh	r2, [r3, #42]	@ 0x2a
 800535a:	e145      	b.n	80055e8 <HAL_I2C_Mem_Read+0x4ac>
        }
        /* Two bytes */
        else if (hi2c->XferSize == 2U)
 800535c:	68fb      	ldr	r3, [r7, #12]
 800535e:	8d1b      	ldrh	r3, [r3, #40]	@ 0x28
 8005360:	2b02      	cmp	r3, #2
 8005362:	d152      	bne.n	800540a <HAL_I2C_Mem_Read+0x2ce>
        {
          /* Wait until BTF flag is set */
          if (I2C_WaitOnFlagUntilTimeout(hi2c, I2C_FLAG_BTF, RESET, Timeout, tickstart) != HAL_OK)
 8005364:	6a7b      	ldr	r3, [r7, #36]	@ 0x24
 8005366:	9300      	str	r3, [sp, #0]
 8005368:	6bbb      	ldr	r3, [r7, #56]	@ 0x38
 800536a:	2200      	movs	r2, #0
 800536c:	4906      	ldr	r1, [pc, #24]	@ (8005388 <HAL_I2C_Mem_Read+0x24c>)
 800536e:	68f8      	ldr	r0, [r7, #12]
 8005370:	f000 face 	bl	8005910 <I2C_WaitOnFlagUntilTimeout>
 8005374:	4603      	mov	r3, r0
 8005376:	2b00      	cmp	r3, #0
 8005378:	d008      	beq.n	800538c <HAL_I2C_Mem_Read+0x250>
          {
            return HAL_ERROR;
 800537a:	2301      	movs	r3, #1
 800537c:	e148      	b.n	8005610 <HAL_I2C_Mem_Read+0x4d4>
 800537e:	bf00      	nop
 8005380:	00100002 	.word	0x00100002
 8005384:	ffff0000 	.word	0xffff0000
 8005388:	00010004 	.word	0x00010004
  __ASM volatile ("cpsid i" : : : "memory");
 800538c:	b672      	cpsid	i
}
 800538e:	bf00      	nop
          /* Disable all active IRQs around ADDR clearing and STOP programming because the EV6_3
             software sequence must complete before the current byte end of transfer */
          __disable_irq();

          /* Generate Stop */
          SET_BIT(hi2c->Instance->CR1, I2C_CR1_STOP);
 8005390:	68fb      	ldr	r3, [r7, #12]
 8005392:	681b      	ldr	r3, [r3, #0]
 8005394:	681a      	ldr	r2, [r3, #0]
 8005396:	68fb      	ldr	r3, [r7, #12]
 8005398:	681b      	ldr	r3, [r3, #0]
 800539a:	f442 7200 	orr.w	r2, r2, #512	@ 0x200
 800539e:	601a      	str	r2, [r3, #0]

          /* Read data from DR */
          *hi2c->pBuffPtr = (uint8_t)hi2c->Instance->DR;
 80053a0:	68fb      	ldr	r3, [r7, #12]
 80053a2:	681b      	ldr	r3, [r3, #0]
 80053a4:	691a      	ldr	r2, [r3, #16]
 80053a6:	68fb      	ldr	r3, [r7, #12]
 80053a8:	6a5b      	ldr	r3, [r3, #36]	@ 0x24
 80053aa:	b2d2      	uxtb	r2, r2
 80053ac:	701a      	strb	r2, [r3, #0]

          /* Increment Buffer pointer */
          hi2c->pBuffPtr++;
 80053ae:	68fb      	ldr	r3, [r7, #12]
 80053b0:	6a5b      	ldr	r3, [r3, #36]	@ 0x24
 80053b2:	1c5a      	adds	r2, r3, #1
 80053b4:	68fb      	ldr	r3, [r7, #12]
 80053b6:	625a      	str	r2, [r3, #36]	@ 0x24

          /* Update counter */
          hi2c->XferSize--;
 80053b8:	68fb      	ldr	r3, [r7, #12]
 80053ba:	8d1b      	ldrh	r3, [r3, #40]	@ 0x28
 80053bc:	3b01      	subs	r3, #1
 80053be:	b29a      	uxth	r2, r3
 80053c0:	68fb      	ldr	r3, [r7, #12]
 80053c2:	851a      	strh	r2, [r3, #40]	@ 0x28
          hi2c->XferCount--;
 80053c4:	68fb      	ldr	r3, [r7, #12]
 80053c6:	8d5b      	ldrh	r3, [r3, #42]	@ 0x2a
 80053c8:	b29b      	uxth	r3, r3
 80053ca:	3b01      	subs	r3, #1
 80053cc:	b29a      	uxth	r2, r3
 80053ce:	68fb      	ldr	r3, [r7, #12]
 80053d0:	855a      	strh	r2, [r3, #42]	@ 0x2a
  __ASM volatile ("cpsie i" : : : "memory");
 80053d2:	b662      	cpsie	i
}
 80053d4:	bf00      	nop

          /* Re-enable IRQs */
          __enable_irq();

          /* Read data from DR */
          *hi2c->pBuffPtr = (uint8_t)hi2c->Instance->DR;
 80053d6:	68fb      	ldr	r3, [r7, #12]
 80053d8:	681b      	ldr	r3, [r3, #0]
 80053da:	691a      	ldr	r2, [r3, #16]
 80053dc:	68fb      	ldr	r3, [r7, #12]
 80053de:	6a5b      	ldr	r3, [r3, #36]	@ 0x24
 80053e0:	b2d2      	uxtb	r2, r2
 80053e2:	701a      	strb	r2, [r3, #0]

          /* Increment Buffer pointer */
          hi2c->pBuffPtr++;
 80053e4:	68fb      	ldr	r3, [r7, #12]
 80053e6:	6a5b      	ldr	r3, [r3, #36]	@ 0x24
 80053e8:	1c5a      	adds	r2, r3, #1
 80053ea:	68fb      	ldr	r3, [r7, #12]
 80053ec:	625a      	str	r2, [r3, #36]	@ 0x24

          /* Update counter */
          hi2c->XferSize--;
 80053ee:	68fb      	ldr	r3, [r7, #12]
 80053f0:	8d1b      	ldrh	r3, [r3, #40]	@ 0x28
 80053f2:	3b01      	subs	r3, #1
 80053f4:	b29a      	uxth	r2, r3
 80053f6:	68fb      	ldr	r3, [r7, #12]
 80053f8:	851a      	strh	r2, [r3, #40]	@ 0x28
          hi2c->XferCount--;
 80053fa:	68fb      	ldr	r3, [r7, #12]
 80053fc:	8d5b      	ldrh	r3, [r3, #42]	@ 0x2a
 80053fe:	b29b      	uxth	r3, r3
 8005400:	3b01      	subs	r3, #1
 8005402:	b29a      	uxth	r2, r3
 8005404:	68fb      	ldr	r3, [r7, #12]
 8005406:	855a      	strh	r2, [r3, #42]	@ 0x2a
 8005408:	e0ee      	b.n	80055e8 <HAL_I2C_Mem_Read+0x4ac>
        }
        /* 3 Last bytes */
        else
        {
          /* Wait until BTF flag is set */
          if (I2C_WaitOnFlagUntilTimeout(hi2c, I2C_FLAG_BTF, RESET, Timeout, tickstart) != HAL_OK)
 800540a:	6a7b      	ldr	r3, [r7, #36]	@ 0x24
 800540c:	9300      	str	r3, [sp, #0]
 800540e:	6bbb      	ldr	r3, [r7, #56]	@ 0x38
 8005410:	2200      	movs	r2, #0
 8005412:	4981      	ldr	r1, [pc, #516]	@ (8005618 <HAL_I2C_Mem_Read+0x4dc>)
 8005414:	68f8      	ldr	r0, [r7, #12]
 8005416:	f000 fa7b 	bl	8005910 <I2C_WaitOnFlagUntilTimeout>
 800541a:	4603      	mov	r3, r0
 800541c:	2b00      	cmp	r3, #0
 800541e:	d001      	beq.n	8005424 <HAL_I2C_Mem_Read+0x2e8>
          {
            return HAL_ERROR;
 8005420:	2301      	movs	r3, #1
 8005422:	e0f5      	b.n	8005610 <HAL_I2C_Mem_Read+0x4d4>
          }

          /* Disable Acknowledge */
          CLEAR_BIT(hi2c->Instance->CR1, I2C_CR1_ACK);
 8005424:	68fb      	ldr	r3, [r7, #12]
 8005426:	681b      	ldr	r3, [r3, #0]
 8005428:	681a      	ldr	r2, [r3, #0]
 800542a:	68fb      	ldr	r3, [r7, #12]
 800542c:	681b      	ldr	r3, [r3, #0]
 800542e:	f422 6280 	bic.w	r2, r2, #1024	@ 0x400
 8005432:	601a      	str	r2, [r3, #0]
  __ASM volatile ("cpsid i" : : : "memory");
 8005434:	b672      	cpsid	i
}
 8005436:	bf00      	nop
          /* Disable all active IRQs around ADDR clearing and STOP programming because the EV6_3
             software sequence must complete before the current byte end of transfer */
          __disable_irq();

          /* Read data from DR */
          *hi2c->pBuffPtr = (uint8_t)hi2c->Instance->DR;
 8005438:	68fb      	ldr	r3, [r7, #12]
 800543a:	681b      	ldr	r3, [r3, #0]
 800543c:	691a      	ldr	r2, [r3, #16]
 800543e:	68fb      	ldr	r3, [r7, #12]
 8005440:	6a5b      	ldr	r3, [r3, #36]	@ 0x24
 8005442:	b2d2      	uxtb	r2, r2
 8005444:	701a      	strb	r2, [r3, #0]

          /* Increment Buffer pointer */
          hi2c->pBuffPtr++;
 8005446:	68fb      	ldr	r3, [r7, #12]
 8005448:	6a5b      	ldr	r3, [r3, #36]	@ 0x24
 800544a:	1c5a      	adds	r2, r3, #1
 800544c:	68fb      	ldr	r3, [r7, #12]
 800544e:	625a      	str	r2, [r3, #36]	@ 0x24

          /* Update counter */
          hi2c->XferSize--;
 8005450:	68fb      	ldr	r3, [r7, #12]
 8005452:	8d1b      	ldrh	r3, [r3, #40]	@ 0x28
 8005454:	3b01      	subs	r3, #1
 8005456:	b29a      	uxth	r2, r3
 8005458:	68fb      	ldr	r3, [r7, #12]
 800545a:	851a      	strh	r2, [r3, #40]	@ 0x28
          hi2c->XferCount--;
 800545c:	68fb      	ldr	r3, [r7, #12]
 800545e:	8d5b      	ldrh	r3, [r3, #42]	@ 0x2a
 8005460:	b29b      	uxth	r3, r3
 8005462:	3b01      	subs	r3, #1
 8005464:	b29a      	uxth	r2, r3
 8005466:	68fb      	ldr	r3, [r7, #12]
 8005468:	855a      	strh	r2, [r3, #42]	@ 0x2a

          /* Wait until BTF flag is set */
          count = I2C_TIMEOUT_FLAG * (SystemCoreClock / 25U / 1000U);
 800546a:	4b6c      	ldr	r3, [pc, #432]	@ (800561c <HAL_I2C_Mem_Read+0x4e0>)
 800546c:	681b      	ldr	r3, [r3, #0]
 800546e:	08db      	lsrs	r3, r3, #3
 8005470:	4a6b      	ldr	r2, [pc, #428]	@ (8005620 <HAL_I2C_Mem_Read+0x4e4>)
 8005472:	fba2 2303 	umull	r2, r3, r2, r3
 8005476:	0a1a      	lsrs	r2, r3, #8
 8005478:	4613      	mov	r3, r2
 800547a:	009b      	lsls	r3, r3, #2
 800547c:	4413      	add	r3, r2
 800547e:	00da      	lsls	r2, r3, #3
 8005480:	1ad3      	subs	r3, r2, r3
 8005482:	623b      	str	r3, [r7, #32]
          do
          {
            count--;
 8005484:	6a3b      	ldr	r3, [r7, #32]
 8005486:	3b01      	subs	r3, #1
 8005488:	623b      	str	r3, [r7, #32]
            if (count == 0U)
 800548a:	6a3b      	ldr	r3, [r7, #32]
 800548c:	2b00      	cmp	r3, #0
 800548e:	d118      	bne.n	80054c2 <HAL_I2C_Mem_Read+0x386>
            {
              hi2c->PreviousState       = I2C_STATE_NONE;
 8005490:	68fb      	ldr	r3, [r7, #12]
 8005492:	2200      	movs	r2, #0
 8005494:	631a      	str	r2, [r3, #48]	@ 0x30
              hi2c->State               = HAL_I2C_STATE_READY;
 8005496:	68fb      	ldr	r3, [r7, #12]
 8005498:	2220      	movs	r2, #32
 800549a:	f883 203d 	strb.w	r2, [r3, #61]	@ 0x3d
              hi2c->Mode                = HAL_I2C_MODE_NONE;
 800549e:	68fb      	ldr	r3, [r7, #12]
 80054a0:	2200      	movs	r2, #0
 80054a2:	f883 203e 	strb.w	r2, [r3, #62]	@ 0x3e
              hi2c->ErrorCode           |= HAL_I2C_ERROR_TIMEOUT;
 80054a6:	68fb      	ldr	r3, [r7, #12]
 80054a8:	6c1b      	ldr	r3, [r3, #64]	@ 0x40
 80054aa:	f043 0220 	orr.w	r2, r3, #32
 80054ae:	68fb      	ldr	r3, [r7, #12]
 80054b0:	641a      	str	r2, [r3, #64]	@ 0x40
  __ASM volatile ("cpsie i" : : : "memory");
 80054b2:	b662      	cpsie	i
}
 80054b4:	bf00      	nop

              /* Re-enable IRQs */
              __enable_irq();

              /* Process Unlocked */
              __HAL_UNLOCK(hi2c);
 80054b6:	68fb      	ldr	r3, [r7, #12]
 80054b8:	2200      	movs	r2, #0
 80054ba:	f883 203c 	strb.w	r2, [r3, #60]	@ 0x3c

              return HAL_ERROR;
 80054be:	2301      	movs	r3, #1
 80054c0:	e0a6      	b.n	8005610 <HAL_I2C_Mem_Read+0x4d4>
            }
          }
          while (__HAL_I2C_GET_FLAG(hi2c, I2C_FLAG_BTF) == RESET);
 80054c2:	68fb      	ldr	r3, [r7, #12]
 80054c4:	681b      	ldr	r3, [r3, #0]
 80054c6:	695b      	ldr	r3, [r3, #20]
 80054c8:	f003 0304 	and.w	r3, r3, #4
 80054cc:	2b04      	cmp	r3, #4
 80054ce:	d1d9      	bne.n	8005484 <HAL_I2C_Mem_Read+0x348>

          /* Generate Stop */
          SET_BIT(hi2c->Instance->CR1, I2C_CR1_STOP);
 80054d0:	68fb      	ldr	r3, [r7, #12]
 80054d2:	681b      	ldr	r3, [r3, #0]
 80054d4:	681a      	ldr	r2, [r3, #0]
 80054d6:	68fb      	ldr	r3, [r7, #12]
 80054d8:	681b      	ldr	r3, [r3, #0]
 80054da:	f442 7200 	orr.w	r2, r2, #512	@ 0x200
 80054de:	601a      	str	r2, [r3, #0]

          /* Read data from DR */
          *hi2c->pBuffPtr = (uint8_t)hi2c->Instance->DR;
 80054e0:	68fb      	ldr	r3, [r7, #12]
 80054e2:	681b      	ldr	r3, [r3, #0]
 80054e4:	691a      	ldr	r2, [r3, #16]
 80054e6:	68fb      	ldr	r3, [r7, #12]
 80054e8:	6a5b      	ldr	r3, [r3, #36]	@ 0x24
 80054ea:	b2d2      	uxtb	r2, r2
 80054ec:	701a      	strb	r2, [r3, #0]

          /* Increment Buffer pointer */
          hi2c->pBuffPtr++;
 80054ee:	68fb      	ldr	r3, [r7, #12]
 80054f0:	6a5b      	ldr	r3, [r3, #36]	@ 0x24
 80054f2:	1c5a      	adds	r2, r3, #1
 80054f4:	68fb      	ldr	r3, [r7, #12]
 80054f6:	625a      	str	r2, [r3, #36]	@ 0x24

          /* Update counter */
          hi2c->XferSize--;
 80054f8:	68fb      	ldr	r3, [r7, #12]
 80054fa:	8d1b      	ldrh	r3, [r3, #40]	@ 0x28
 80054fc:	3b01      	subs	r3, #1
 80054fe:	b29a      	uxth	r2, r3
 8005500:	68fb      	ldr	r3, [r7, #12]
 8005502:	851a      	strh	r2, [r3, #40]	@ 0x28
          hi2c->XferCount--;
 8005504:	68fb      	ldr	r3, [r7, #12]
 8005506:	8d5b      	ldrh	r3, [r3, #42]	@ 0x2a
 8005508:	b29b      	uxth	r3, r3
 800550a:	3b01      	subs	r3, #1
 800550c:	b29a      	uxth	r2, r3
 800550e:	68fb      	ldr	r3, [r7, #12]
 8005510:	855a      	strh	r2, [r3, #42]	@ 0x2a
  __ASM volatile ("cpsie i" : : : "memory");
 8005512:	b662      	cpsie	i
}
 8005514:	bf00      	nop

          /* Re-enable IRQs */
          __enable_irq();

          /* Read data from DR */
          *hi2c->pBuffPtr = (uint8_t)hi2c->Instance->DR;
 8005516:	68fb      	ldr	r3, [r7, #12]
 8005518:	681b      	ldr	r3, [r3, #0]
 800551a:	691a      	ldr	r2, [r3, #16]
 800551c:	68fb      	ldr	r3, [r7, #12]
 800551e:	6a5b      	ldr	r3, [r3, #36]	@ 0x24
 8005520:	b2d2      	uxtb	r2, r2
 8005522:	701a      	strb	r2, [r3, #0]

          /* Increment Buffer pointer */
          hi2c->pBuffPtr++;
 8005524:	68fb      	ldr	r3, [r7, #12]
 8005526:	6a5b      	ldr	r3, [r3, #36]	@ 0x24
 8005528:	1c5a      	adds	r2, r3, #1
 800552a:	68fb      	ldr	r3, [r7, #12]
 800552c:	625a      	str	r2, [r3, #36]	@ 0x24

          /* Update counter */
          hi2c->XferSize--;
 800552e:	68fb      	ldr	r3, [r7, #12]
 8005530:	8d1b      	ldrh	r3, [r3, #40]	@ 0x28
 8005532:	3b01      	subs	r3, #1
 8005534:	b29a      	uxth	r2, r3
 8005536:	68fb      	ldr	r3, [r7, #12]
 8005538:	851a      	strh	r2, [r3, #40]	@ 0x28
          hi2c->XferCount--;
 800553a:	68fb      	ldr	r3, [r7, #12]
 800553c:	8d5b      	ldrh	r3, [r3, #42]	@ 0x2a
 800553e:	b29b      	uxth	r3, r3
 8005540:	3b01      	subs	r3, #1
 8005542:	b29a      	uxth	r2, r3
 8005544:	68fb      	ldr	r3, [r7, #12]
 8005546:	855a      	strh	r2, [r3, #42]	@ 0x2a
 8005548:	e04e      	b.n	80055e8 <HAL_I2C_Mem_Read+0x4ac>
        }
      }
      else
      {
        /* Wait until RXNE flag is set */
        if (I2C_WaitOnRXNEFlagUntilTimeout(hi2c, Timeout, tickstart) != HAL_OK)
 800554a:	6a7a      	ldr	r2, [r7, #36]	@ 0x24
 800554c:	6bb9      	ldr	r1, [r7, #56]	@ 0x38
 800554e:	68f8      	ldr	r0, [r7, #12]
 8005550:	f000 fb88 	bl	8005c64 <I2C_WaitOnRXNEFlagUntilTimeout>
 8005554:	4603      	mov	r3, r0
 8005556:	2b00      	cmp	r3, #0
 8005558:	d001      	beq.n	800555e <HAL_I2C_Mem_Read+0x422>
        {
          return HAL_ERROR;
 800555a:	2301      	movs	r3, #1
 800555c:	e058      	b.n	8005610 <HAL_I2C_Mem_Read+0x4d4>
        }

        /* Read data from DR */
        *hi2c->pBuffPtr = (uint8_t)hi2c->Instance->DR;
 800555e:	68fb      	ldr	r3, [r7, #12]
 8005560:	681b      	ldr	r3, [r3, #0]
 8005562:	691a      	ldr	r2, [r3, #16]
 8005564:	68fb      	ldr	r3, [r7, #12]
 8005566:	6a5b      	ldr	r3, [r3, #36]	@ 0x24
 8005568:	b2d2      	uxtb	r2, r2
 800556a:	701a      	strb	r2, [r3, #0]

        /* Increment Buffer pointer */
        hi2c->pBuffPtr++;
 800556c:	68fb      	ldr	r3, [r7, #12]
 800556e:	6a5b      	ldr	r3, [r3, #36]	@ 0x24
 8005570:	1c5a      	adds	r2, r3, #1
 8005572:	68fb      	ldr	r3, [r7, #12]
 8005574:	625a      	str	r2, [r3, #36]	@ 0x24

        /* Update counter */
        hi2c->XferSize--;
 8005576:	68fb      	ldr	r3, [r7, #12]
 8005578:	8d1b      	ldrh	r3, [r3, #40]	@ 0x28
 800557a:	3b01      	subs	r3, #1
 800557c:	b29a      	uxth	r2, r3
 800557e:	68fb      	ldr	r3, [r7, #12]
 8005580:	851a      	strh	r2, [r3, #40]	@ 0x28
        hi2c->XferCount--;
 8005582:	68fb      	ldr	r3, [r7, #12]
 8005584:	8d5b      	ldrh	r3, [r3, #42]	@ 0x2a
 8005586:	b29b      	uxth	r3, r3
 8005588:	3b01      	subs	r3, #1
 800558a:	b29a      	uxth	r2, r3
 800558c:	68fb      	ldr	r3, [r7, #12]
 800558e:	855a      	strh	r2, [r3, #42]	@ 0x2a

        if (__HAL_I2C_GET_FLAG(hi2c, I2C_FLAG_BTF) == SET)
 8005590:	68fb      	ldr	r3, [r7, #12]
 8005592:	681b      	ldr	r3, [r3, #0]
 8005594:	695b      	ldr	r3, [r3, #20]
 8005596:	f003 0304 	and.w	r3, r3, #4
 800559a:	2b04      	cmp	r3, #4
 800559c:	d124      	bne.n	80055e8 <HAL_I2C_Mem_Read+0x4ac>
        {
          if (hi2c->XferSize == 3U)
 800559e:	68fb      	ldr	r3, [r7, #12]
 80055a0:	8d1b      	ldrh	r3, [r3, #40]	@ 0x28
 80055a2:	2b03      	cmp	r3, #3
 80055a4:	d107      	bne.n	80055b6 <HAL_I2C_Mem_Read+0x47a>
          {
            /* Disable Acknowledge */
            CLEAR_BIT(hi2c->Instance->CR1, I2C_CR1_ACK);
 80055a6:	68fb      	ldr	r3, [r7, #12]
 80055a8:	681b      	ldr	r3, [r3, #0]
 80055aa:	681a      	ldr	r2, [r3, #0]
 80055ac:	68fb      	ldr	r3, [r7, #12]
 80055ae:	681b      	ldr	r3, [r3, #0]
 80055b0:	f422 6280 	bic.w	r2, r2, #1024	@ 0x400
 80055b4:	601a      	str	r2, [r3, #0]
          }
          /* Read data from DR */
          *hi2c->pBuffPtr = (uint8_t)hi2c->Instance->DR;
 80055b6:	68fb      	ldr	r3, [r7, #12]
 80055b8:	681b      	ldr	r3, [r3, #0]
 80055ba:	691a      	ldr	r2, [r3, #16]
 80055bc:	68fb      	ldr	r3, [r7, #12]
 80055be:	6a5b      	ldr	r3, [r3, #36]	@ 0x24
 80055c0:	b2d2      	uxtb	r2, r2
 80055c2:	701a      	strb	r2, [r3, #0]

          /* Increment Buffer pointer */
          hi2c->pBuffPtr++;
 80055c4:	68fb      	ldr	r3, [r7, #12]
 80055c6:	6a5b      	ldr	r3, [r3, #36]	@ 0x24
 80055c8:	1c5a      	adds	r2, r3, #1
 80055ca:	68fb      	ldr	r3, [r7, #12]
 80055cc:	625a      	str	r2, [r3, #36]	@ 0x24

          /* Update counter */
          hi2c->XferSize--;
 80055ce:	68fb      	ldr	r3, [r7, #12]
 80055d0:	8d1b      	ldrh	r3, [r3, #40]	@ 0x28
 80055d2:	3b01      	subs	r3, #1
 80055d4:	b29a      	uxth	r2, r3
 80055d6:	68fb      	ldr	r3, [r7, #12]
 80055d8:	851a      	strh	r2, [r3, #40]	@ 0x28
          hi2c->XferCount--;
 80055da:	68fb      	ldr	r3, [r7, #12]
 80055dc:	8d5b      	ldrh	r3, [r3, #42]	@ 0x2a
 80055de:	b29b      	uxth	r3, r3
 80055e0:	3b01      	subs	r3, #1
 80055e2:	b29a      	uxth	r2, r3
 80055e4:	68fb      	ldr	r3, [r7, #12]
 80055e6:	855a      	strh	r2, [r3, #42]	@ 0x2a
    while (hi2c->XferSize > 0U)
 80055e8:	68fb      	ldr	r3, [r7, #12]
 80055ea:	8d1b      	ldrh	r3, [r3, #40]	@ 0x28
 80055ec:	2b00      	cmp	r3, #0
 80055ee:	f47f ae88 	bne.w	8005302 <HAL_I2C_Mem_Read+0x1c6>
        }
      }
    }

    hi2c->State = HAL_I2C_STATE_READY;
 80055f2:	68fb      	ldr	r3, [r7, #12]
 80055f4:	2220      	movs	r2, #32
 80055f6:	f883 203d 	strb.w	r2, [r3, #61]	@ 0x3d
    hi2c->Mode = HAL_I2C_MODE_NONE;
 80055fa:	68fb      	ldr	r3, [r7, #12]
 80055fc:	2200      	movs	r2, #0
 80055fe:	f883 203e 	strb.w	r2, [r3, #62]	@ 0x3e

    /* Process Unlocked */
    __HAL_UNLOCK(hi2c);
 8005602:	68fb      	ldr	r3, [r7, #12]
 8005604:	2200      	movs	r2, #0
 8005606:	f883 203c 	strb.w	r2, [r3, #60]	@ 0x3c

    return HAL_OK;
 800560a:	2300      	movs	r3, #0
 800560c:	e000      	b.n	8005610 <HAL_I2C_Mem_Read+0x4d4>
  }
  else
  {
    return HAL_BUSY;
 800560e:	2302      	movs	r3, #2
  }
}
 8005610:	4618      	mov	r0, r3
 8005612:	3728      	adds	r7, #40	@ 0x28
 8005614:	46bd      	mov	sp, r7
 8005616:	bd80      	pop	{r7, pc}
 8005618:	00010004 	.word	0x00010004
 800561c:	20000068 	.word	0x20000068
 8005620:	14f8b589 	.word	0x14f8b589

08005624 <HAL_I2C_GetError>:
  * @param  hi2c Pointer to a I2C_HandleTypeDef structure that contains
  *              the configuration information for the specified I2C.
  * @retval I2C Error Code
  */
uint32_t HAL_I2C_GetError(I2C_HandleTypeDef *hi2c)
{
 8005624:	b480      	push	{r7}
 8005626:	b083      	sub	sp, #12
 8005628:	af00      	add	r7, sp, #0
 800562a:	6078      	str	r0, [r7, #4]
  return hi2c->ErrorCode;
 800562c:	687b      	ldr	r3, [r7, #4]
 800562e:	6c1b      	ldr	r3, [r3, #64]	@ 0x40
}
 8005630:	4618      	mov	r0, r3
 8005632:	370c      	adds	r7, #12
 8005634:	46bd      	mov	sp, r7
 8005636:	bc80      	pop	{r7}
 8005638:	4770      	bx	lr
	...

0800563c <I2C_MasterRequestWrite>:
  * @param  Timeout Timeout duration
  * @param  Tickstart Tick start value
  * @retval HAL status
  */
static HAL_StatusTypeDef I2C_MasterRequestWrite(I2C_HandleTypeDef *hi2c, uint16_t DevAddress, uint32_t Timeout, uint32_t Tickstart)
{
 800563c:	b580      	push	{r7, lr}
 800563e:	b088      	sub	sp, #32
 8005640:	af02      	add	r7, sp, #8
 8005642:	60f8      	str	r0, [r7, #12]
 8005644:	607a      	str	r2, [r7, #4]
 8005646:	603b      	str	r3, [r7, #0]
 8005648:	460b      	mov	r3, r1
 800564a:	817b      	strh	r3, [r7, #10]
  /* Declaration of temporary variable to prevent undefined behavior of volatile usage */
  uint32_t CurrentXferOptions = hi2c->XferOptions;
 800564c:	68fb      	ldr	r3, [r7, #12]
 800564e:	6adb      	ldr	r3, [r3, #44]	@ 0x2c
 8005650:	617b      	str	r3, [r7, #20]

  /* Generate Start condition if first transfer */
  if ((CurrentXferOptions == I2C_FIRST_AND_LAST_FRAME) || (CurrentXferOptions == I2C_FIRST_FRAME) || (CurrentXferOptions == I2C_NO_OPTION_FRAME))
 8005652:	697b      	ldr	r3, [r7, #20]
 8005654:	2b08      	cmp	r3, #8
 8005656:	d006      	beq.n	8005666 <I2C_MasterRequestWrite+0x2a>
 8005658:	697b      	ldr	r3, [r7, #20]
 800565a:	2b01      	cmp	r3, #1
 800565c:	d003      	beq.n	8005666 <I2C_MasterRequestWrite+0x2a>
 800565e:	697b      	ldr	r3, [r7, #20]
 8005660:	f513 3f80 	cmn.w	r3, #65536	@ 0x10000
 8005664:	d108      	bne.n	8005678 <I2C_MasterRequestWrite+0x3c>
  {
    /* Generate Start */
    SET_BIT(hi2c->Instance->CR1, I2C_CR1_START);
 8005666:	68fb      	ldr	r3, [r7, #12]
 8005668:	681b      	ldr	r3, [r3, #0]
 800566a:	681a      	ldr	r2, [r3, #0]
 800566c:	68fb      	ldr	r3, [r7, #12]
 800566e:	681b      	ldr	r3, [r3, #0]
 8005670:	f442 7280 	orr.w	r2, r2, #256	@ 0x100
 8005674:	601a      	str	r2, [r3, #0]
 8005676:	e00b      	b.n	8005690 <I2C_MasterRequestWrite+0x54>
  }
  else if (hi2c->PreviousState == I2C_STATE_MASTER_BUSY_RX)
 8005678:	68fb      	ldr	r3, [r7, #12]
 800567a:	6b1b      	ldr	r3, [r3, #48]	@ 0x30
 800567c:	2b12      	cmp	r3, #18
 800567e:	d107      	bne.n	8005690 <I2C_MasterRequestWrite+0x54>
  {
    /* Generate ReStart */
    SET_BIT(hi2c->Instance->CR1, I2C_CR1_START);
 8005680:	68fb      	ldr	r3, [r7, #12]
 8005682:	681b      	ldr	r3, [r3, #0]
 8005684:	681a      	ldr	r2, [r3, #0]
 8005686:	68fb      	ldr	r3, [r7, #12]
 8005688:	681b      	ldr	r3, [r3, #0]
 800568a:	f442 7280 	orr.w	r2, r2, #256	@ 0x100
 800568e:	601a      	str	r2, [r3, #0]
  {
    /* Do nothing */
  }

  /* Wait until SB flag is set */
  if (I2C_WaitOnFlagUntilTimeout(hi2c, I2C_FLAG_SB, RESET, Timeout, Tickstart) != HAL_OK)
 8005690:	683b      	ldr	r3, [r7, #0]
 8005692:	9300      	str	r3, [sp, #0]
 8005694:	687b      	ldr	r3, [r7, #4]
 8005696:	2200      	movs	r2, #0
 8005698:	f04f 1101 	mov.w	r1, #65537	@ 0x10001
 800569c:	68f8      	ldr	r0, [r7, #12]
 800569e:	f000 f937 	bl	8005910 <I2C_WaitOnFlagUntilTimeout>
 80056a2:	4603      	mov	r3, r0
 80056a4:	2b00      	cmp	r3, #0
 80056a6:	d00d      	beq.n	80056c4 <I2C_MasterRequestWrite+0x88>
  {
    if (READ_BIT(hi2c->Instance->CR1, I2C_CR1_START) == I2C_CR1_START)
 80056a8:	68fb      	ldr	r3, [r7, #12]
 80056aa:	681b      	ldr	r3, [r3, #0]
 80056ac:	681b      	ldr	r3, [r3, #0]
 80056ae:	f403 7380 	and.w	r3, r3, #256	@ 0x100
 80056b2:	f5b3 7f80 	cmp.w	r3, #256	@ 0x100
 80056b6:	d103      	bne.n	80056c0 <I2C_MasterRequestWrite+0x84>
    {
      hi2c->ErrorCode = HAL_I2C_WRONG_START;
 80056b8:	68fb      	ldr	r3, [r7, #12]
 80056ba:	f44f 7200 	mov.w	r2, #512	@ 0x200
 80056be:	641a      	str	r2, [r3, #64]	@ 0x40
    }
    return HAL_TIMEOUT;
 80056c0:	2303      	movs	r3, #3
 80056c2:	e035      	b.n	8005730 <I2C_MasterRequestWrite+0xf4>
  }

  if (hi2c->Init.AddressingMode == I2C_ADDRESSINGMODE_7BIT)
 80056c4:	68fb      	ldr	r3, [r7, #12]
 80056c6:	691b      	ldr	r3, [r3, #16]
 80056c8:	f5b3 4f80 	cmp.w	r3, #16384	@ 0x4000
 80056cc:	d108      	bne.n	80056e0 <I2C_MasterRequestWrite+0xa4>
  {
    /* Send slave address */
    hi2c->Instance->DR = I2C_7BIT_ADD_WRITE(DevAddress);
 80056ce:	897b      	ldrh	r3, [r7, #10]
 80056d0:	b2db      	uxtb	r3, r3
 80056d2:	461a      	mov	r2, r3
 80056d4:	68fb      	ldr	r3, [r7, #12]
 80056d6:	681b      	ldr	r3, [r3, #0]
 80056d8:	f002 02fe 	and.w	r2, r2, #254	@ 0xfe
 80056dc:	611a      	str	r2, [r3, #16]
 80056de:	e01b      	b.n	8005718 <I2C_MasterRequestWrite+0xdc>
  }
  else
  {
    /* Send header of slave address */
    hi2c->Instance->DR = I2C_10BIT_HEADER_WRITE(DevAddress);
 80056e0:	897b      	ldrh	r3, [r7, #10]
 80056e2:	11db      	asrs	r3, r3, #7
 80056e4:	b2db      	uxtb	r3, r3
 80056e6:	f003 0306 	and.w	r3, r3, #6
 80056ea:	b2db      	uxtb	r3, r3
 80056ec:	f063 030f 	orn	r3, r3, #15
 80056f0:	b2da      	uxtb	r2, r3
 80056f2:	68fb      	ldr	r3, [r7, #12]
 80056f4:	681b      	ldr	r3, [r3, #0]
 80056f6:	611a      	str	r2, [r3, #16]

    /* Wait until ADD10 flag is set */
    if (I2C_WaitOnMasterAddressFlagUntilTimeout(hi2c, I2C_FLAG_ADD10, Timeout, Tickstart) != HAL_OK)
 80056f8:	683b      	ldr	r3, [r7, #0]
 80056fa:	687a      	ldr	r2, [r7, #4]
 80056fc:	490e      	ldr	r1, [pc, #56]	@ (8005738 <I2C_MasterRequestWrite+0xfc>)
 80056fe:	68f8      	ldr	r0, [r7, #12]
 8005700:	f000 f980 	bl	8005a04 <I2C_WaitOnMasterAddressFlagUntilTimeout>
 8005704:	4603      	mov	r3, r0
 8005706:	2b00      	cmp	r3, #0
 8005708:	d001      	beq.n	800570e <I2C_MasterRequestWrite+0xd2>
    {
      return HAL_ERROR;
 800570a:	2301      	movs	r3, #1
 800570c:	e010      	b.n	8005730 <I2C_MasterRequestWrite+0xf4>
    }

    /* Send slave address */
    hi2c->Instance->DR = I2C_10BIT_ADDRESS(DevAddress);
 800570e:	897b      	ldrh	r3, [r7, #10]
 8005710:	b2da      	uxtb	r2, r3
 8005712:	68fb      	ldr	r3, [r7, #12]
 8005714:	681b      	ldr	r3, [r3, #0]
 8005716:	611a      	str	r2, [r3, #16]
  }

  /* Wait until ADDR flag is set */
  if (I2C_WaitOnMasterAddressFlagUntilTimeout(hi2c, I2C_FLAG_ADDR, Timeout, Tickstart) != HAL_OK)
 8005718:	683b      	ldr	r3, [r7, #0]
 800571a:	687a      	ldr	r2, [r7, #4]
 800571c:	4907      	ldr	r1, [pc, #28]	@ (800573c <I2C_MasterRequestWrite+0x100>)
 800571e:	68f8      	ldr	r0, [r7, #12]
 8005720:	f000 f970 	bl	8005a04 <I2C_WaitOnMasterAddressFlagUntilTimeout>
 8005724:	4603      	mov	r3, r0
 8005726:	2b00      	cmp	r3, #0
 8005728:	d001      	beq.n	800572e <I2C_MasterRequestWrite+0xf2>
  {
    return HAL_ERROR;
 800572a:	2301      	movs	r3, #1
 800572c:	e000      	b.n	8005730 <I2C_MasterRequestWrite+0xf4>
  }

  return HAL_OK;
 800572e:	2300      	movs	r3, #0
}
 8005730:	4618      	mov	r0, r3
 8005732:	3718      	adds	r7, #24
 8005734:	46bd      	mov	sp, r7
 8005736:	bd80      	pop	{r7, pc}
 8005738:	00010008 	.word	0x00010008
 800573c:	00010002 	.word	0x00010002

08005740 <I2C_RequestMemoryRead>:
  * @param  Timeout Timeout duration
  * @param  Tickstart Tick start value
  * @retval HAL status
  */
static HAL_StatusTypeDef I2C_RequestMemoryRead(I2C_HandleTypeDef *hi2c, uint16_t DevAddress, uint16_t MemAddress, uint16_t MemAddSize, uint32_t Timeout, uint32_t Tickstart)
{
 8005740:	b580      	push	{r7, lr}
 8005742:	b088      	sub	sp, #32
 8005744:	af02      	add	r7, sp, #8
 8005746:	60f8      	str	r0, [r7, #12]
 8005748:	4608      	mov	r0, r1
 800574a:	4611      	mov	r1, r2
 800574c:	461a      	mov	r2, r3
 800574e:	4603      	mov	r3, r0
 8005750:	817b      	strh	r3, [r7, #10]
 8005752:	460b      	mov	r3, r1
 8005754:	813b      	strh	r3, [r7, #8]
 8005756:	4613      	mov	r3, r2
 8005758:	80fb      	strh	r3, [r7, #6]
  /* Enable Acknowledge */
  SET_BIT(hi2c->Instance->CR1, I2C_CR1_ACK);
 800575a:	68fb      	ldr	r3, [r7, #12]
 800575c:	681b      	ldr	r3, [r3, #0]
 800575e:	681a      	ldr	r2, [r3, #0]
 8005760:	68fb      	ldr	r3, [r7, #12]
 8005762:	681b      	ldr	r3, [r3, #0]
 8005764:	f442 6280 	orr.w	r2, r2, #1024	@ 0x400
 8005768:	601a      	str	r2, [r3, #0]

  /* Generate Start */
  SET_BIT(hi2c->Instance->CR1, I2C_CR1_START);
 800576a:	68fb      	ldr	r3, [r7, #12]
 800576c:	681b      	ldr	r3, [r3, #0]
 800576e:	681a      	ldr	r2, [r3, #0]
 8005770:	68fb      	ldr	r3, [r7, #12]
 8005772:	681b      	ldr	r3, [r3, #0]
 8005774:	f442 7280 	orr.w	r2, r2, #256	@ 0x100
 8005778:	601a      	str	r2, [r3, #0]

  /* Wait until SB flag is set */
  if (I2C_WaitOnFlagUntilTimeout(hi2c, I2C_FLAG_SB, RESET, Timeout, Tickstart) != HAL_OK)
 800577a:	6a7b      	ldr	r3, [r7, #36]	@ 0x24
 800577c:	9300      	str	r3, [sp, #0]
 800577e:	6a3b      	ldr	r3, [r7, #32]
 8005780:	2200      	movs	r2, #0
 8005782:	f04f 1101 	mov.w	r1, #65537	@ 0x10001
 8005786:	68f8      	ldr	r0, [r7, #12]
 8005788:	f000 f8c2 	bl	8005910 <I2C_WaitOnFlagUntilTimeout>
 800578c:	4603      	mov	r3, r0
 800578e:	2b00      	cmp	r3, #0
 8005790:	d00d      	beq.n	80057ae <I2C_RequestMemoryRead+0x6e>
  {
    if (READ_BIT(hi2c->Instance->CR1, I2C_CR1_START) == I2C_CR1_START)
 8005792:	68fb      	ldr	r3, [r7, #12]
 8005794:	681b      	ldr	r3, [r3, #0]
 8005796:	681b      	ldr	r3, [r3, #0]
 8005798:	f403 7380 	and.w	r3, r3, #256	@ 0x100
 800579c:	f5b3 7f80 	cmp.w	r3, #256	@ 0x100
 80057a0:	d103      	bne.n	80057aa <I2C_RequestMemoryRead+0x6a>
    {
      hi2c->ErrorCode = HAL_I2C_WRONG_START;
 80057a2:	68fb      	ldr	r3, [r7, #12]
 80057a4:	f44f 7200 	mov.w	r2, #512	@ 0x200
 80057a8:	641a      	str	r2, [r3, #64]	@ 0x40
    }
    return HAL_TIMEOUT;
 80057aa:	2303      	movs	r3, #3
 80057ac:	e0aa      	b.n	8005904 <I2C_RequestMemoryRead+0x1c4>
  }

  /* Send slave address */
  hi2c->Instance->DR = I2C_7BIT_ADD_WRITE(DevAddress);
 80057ae:	897b      	ldrh	r3, [r7, #10]
 80057b0:	b2db      	uxtb	r3, r3
 80057b2:	461a      	mov	r2, r3
 80057b4:	68fb      	ldr	r3, [r7, #12]
 80057b6:	681b      	ldr	r3, [r3, #0]
 80057b8:	f002 02fe 	and.w	r2, r2, #254	@ 0xfe
 80057bc:	611a      	str	r2, [r3, #16]

  /* Wait until ADDR flag is set */
  if (I2C_WaitOnMasterAddressFlagUntilTimeout(hi2c, I2C_FLAG_ADDR, Timeout, Tickstart) != HAL_OK)
 80057be:	6a7b      	ldr	r3, [r7, #36]	@ 0x24
 80057c0:	6a3a      	ldr	r2, [r7, #32]
 80057c2:	4952      	ldr	r1, [pc, #328]	@ (800590c <I2C_RequestMemoryRead+0x1cc>)
 80057c4:	68f8      	ldr	r0, [r7, #12]
 80057c6:	f000 f91d 	bl	8005a04 <I2C_WaitOnMasterAddressFlagUntilTimeout>
 80057ca:	4603      	mov	r3, r0
 80057cc:	2b00      	cmp	r3, #0
 80057ce:	d001      	beq.n	80057d4 <I2C_RequestMemoryRead+0x94>
  {
    return HAL_ERROR;
 80057d0:	2301      	movs	r3, #1
 80057d2:	e097      	b.n	8005904 <I2C_RequestMemoryRead+0x1c4>
  }

  /* Clear ADDR flag */
  __HAL_I2C_CLEAR_ADDRFLAG(hi2c);
 80057d4:	2300      	movs	r3, #0
 80057d6:	617b      	str	r3, [r7, #20]
 80057d8:	68fb      	ldr	r3, [r7, #12]
 80057da:	681b      	ldr	r3, [r3, #0]
 80057dc:	695b      	ldr	r3, [r3, #20]
 80057de:	617b      	str	r3, [r7, #20]
 80057e0:	68fb      	ldr	r3, [r7, #12]
 80057e2:	681b      	ldr	r3, [r3, #0]
 80057e4:	699b      	ldr	r3, [r3, #24]
 80057e6:	617b      	str	r3, [r7, #20]
 80057e8:	697b      	ldr	r3, [r7, #20]

  /* Wait until TXE flag is set */
  if (I2C_WaitOnTXEFlagUntilTimeout(hi2c, Timeout, Tickstart) != HAL_OK)
 80057ea:	6a7a      	ldr	r2, [r7, #36]	@ 0x24
 80057ec:	6a39      	ldr	r1, [r7, #32]
 80057ee:	68f8      	ldr	r0, [r7, #12]
 80057f0:	f000 f9a8 	bl	8005b44 <I2C_WaitOnTXEFlagUntilTimeout>
 80057f4:	4603      	mov	r3, r0
 80057f6:	2b00      	cmp	r3, #0
 80057f8:	d00d      	beq.n	8005816 <I2C_RequestMemoryRead+0xd6>
  {
    if (hi2c->ErrorCode == HAL_I2C_ERROR_AF)
 80057fa:	68fb      	ldr	r3, [r7, #12]
 80057fc:	6c1b      	ldr	r3, [r3, #64]	@ 0x40
 80057fe:	2b04      	cmp	r3, #4
 8005800:	d107      	bne.n	8005812 <I2C_RequestMemoryRead+0xd2>
    {
      /* Generate Stop */
      SET_BIT(hi2c->Instance->CR1, I2C_CR1_STOP);
 8005802:	68fb      	ldr	r3, [r7, #12]
 8005804:	681b      	ldr	r3, [r3, #0]
 8005806:	681a      	ldr	r2, [r3, #0]
 8005808:	68fb      	ldr	r3, [r7, #12]
 800580a:	681b      	ldr	r3, [r3, #0]
 800580c:	f442 7200 	orr.w	r2, r2, #512	@ 0x200
 8005810:	601a      	str	r2, [r3, #0]
    }
    return HAL_ERROR;
 8005812:	2301      	movs	r3, #1
 8005814:	e076      	b.n	8005904 <I2C_RequestMemoryRead+0x1c4>
  }

  /* If Memory address size is 8Bit */
  if (MemAddSize == I2C_MEMADD_SIZE_8BIT)
 8005816:	88fb      	ldrh	r3, [r7, #6]
 8005818:	2b01      	cmp	r3, #1
 800581a:	d105      	bne.n	8005828 <I2C_RequestMemoryRead+0xe8>
  {
    /* Send Memory Address */
    hi2c->Instance->DR = I2C_MEM_ADD_LSB(MemAddress);
 800581c:	893b      	ldrh	r3, [r7, #8]
 800581e:	b2da      	uxtb	r2, r3
 8005820:	68fb      	ldr	r3, [r7, #12]
 8005822:	681b      	ldr	r3, [r3, #0]
 8005824:	611a      	str	r2, [r3, #16]
 8005826:	e021      	b.n	800586c <I2C_RequestMemoryRead+0x12c>
  }
  /* If Memory address size is 16Bit */
  else
  {
    /* Send MSB of Memory Address */
    hi2c->Instance->DR = I2C_MEM_ADD_MSB(MemAddress);
 8005828:	893b      	ldrh	r3, [r7, #8]
 800582a:	0a1b      	lsrs	r3, r3, #8
 800582c:	b29b      	uxth	r3, r3
 800582e:	b2da      	uxtb	r2, r3
 8005830:	68fb      	ldr	r3, [r7, #12]
 8005832:	681b      	ldr	r3, [r3, #0]
 8005834:	611a      	str	r2, [r3, #16]

    /* Wait until TXE flag is set */
    if (I2C_WaitOnTXEFlagUntilTimeout(hi2c, Timeout, Tickstart) != HAL_OK)
 8005836:	6a7a      	ldr	r2, [r7, #36]	@ 0x24
 8005838:	6a39      	ldr	r1, [r7, #32]
 800583a:	68f8      	ldr	r0, [r7, #12]
 800583c:	f000 f982 	bl	8005b44 <I2C_WaitOnTXEFlagUntilTimeout>
 8005840:	4603      	mov	r3, r0
 8005842:	2b00      	cmp	r3, #0
 8005844:	d00d      	beq.n	8005862 <I2C_RequestMemoryRead+0x122>
    {
      if (hi2c->ErrorCode == HAL_I2C_ERROR_AF)
 8005846:	68fb      	ldr	r3, [r7, #12]
 8005848:	6c1b      	ldr	r3, [r3, #64]	@ 0x40
 800584a:	2b04      	cmp	r3, #4
 800584c:	d107      	bne.n	800585e <I2C_RequestMemoryRead+0x11e>
      {
        /* Generate Stop */
        SET_BIT(hi2c->Instance->CR1, I2C_CR1_STOP);
 800584e:	68fb      	ldr	r3, [r7, #12]
 8005850:	681b      	ldr	r3, [r3, #0]
 8005852:	681a      	ldr	r2, [r3, #0]
 8005854:	68fb      	ldr	r3, [r7, #12]
 8005856:	681b      	ldr	r3, [r3, #0]
 8005858:	f442 7200 	orr.w	r2, r2, #512	@ 0x200
 800585c:	601a      	str	r2, [r3, #0]
      }
      return HAL_ERROR;
 800585e:	2301      	movs	r3, #1
 8005860:	e050      	b.n	8005904 <I2C_RequestMemoryRead+0x1c4>
    }

    /* Send LSB of Memory Address */
    hi2c->Instance->DR = I2C_MEM_ADD_LSB(MemAddress);
 8005862:	893b      	ldrh	r3, [r7, #8]
 8005864:	b2da      	uxtb	r2, r3
 8005866:	68fb      	ldr	r3, [r7, #12]
 8005868:	681b      	ldr	r3, [r3, #0]
 800586a:	611a      	str	r2, [r3, #16]
  }

  /* Wait until TXE flag is set */
  if (I2C_WaitOnTXEFlagUntilTimeout(hi2c, Timeout, Tickstart) != HAL_OK)
 800586c:	6a7a      	ldr	r2, [r7, #36]	@ 0x24
 800586e:	6a39      	ldr	r1, [r7, #32]
 8005870:	68f8      	ldr	r0, [r7, #12]
 8005872:	f000 f967 	bl	8005b44 <I2C_WaitOnTXEFlagUntilTimeout>
 8005876:	4603      	mov	r3, r0
 8005878:	2b00      	cmp	r3, #0
 800587a:	d00d      	beq.n	8005898 <I2C_RequestMemoryRead+0x158>
  {
    if (hi2c->ErrorCode == HAL_I2C_ERROR_AF)
 800587c:	68fb      	ldr	r3, [r7, #12]
 800587e:	6c1b      	ldr	r3, [r3, #64]	@ 0x40
 8005880:	2b04      	cmp	r3, #4
 8005882:	d107      	bne.n	8005894 <I2C_RequestMemoryRead+0x154>
    {
      /* Generate Stop */
      SET_BIT(hi2c->Instance->CR1, I2C_CR1_STOP);
 8005884:	68fb      	ldr	r3, [r7, #12]
 8005886:	681b      	ldr	r3, [r3, #0]
 8005888:	681a      	ldr	r2, [r3, #0]
 800588a:	68fb      	ldr	r3, [r7, #12]
 800588c:	681b      	ldr	r3, [r3, #0]
 800588e:	f442 7200 	orr.w	r2, r2, #512	@ 0x200
 8005892:	601a      	str	r2, [r3, #0]
    }
    return HAL_ERROR;
 8005894:	2301      	movs	r3, #1
 8005896:	e035      	b.n	8005904 <I2C_RequestMemoryRead+0x1c4>
  }

  /* Generate Restart */
  SET_BIT(hi2c->Instance->CR1, I2C_CR1_START);
 8005898:	68fb      	ldr	r3, [r7, #12]
 800589a:	681b      	ldr	r3, [r3, #0]
 800589c:	681a      	ldr	r2, [r3, #0]
 800589e:	68fb      	ldr	r3, [r7, #12]
 80058a0:	681b      	ldr	r3, [r3, #0]
 80058a2:	f442 7280 	orr.w	r2, r2, #256	@ 0x100
 80058a6:	601a      	str	r2, [r3, #0]

  /* Wait until SB flag is set */
  if (I2C_WaitOnFlagUntilTimeout(hi2c, I2C_FLAG_SB, RESET, Timeout, Tickstart) != HAL_OK)
 80058a8:	6a7b      	ldr	r3, [r7, #36]	@ 0x24
 80058aa:	9300      	str	r3, [sp, #0]
 80058ac:	6a3b      	ldr	r3, [r7, #32]
 80058ae:	2200      	movs	r2, #0
 80058b0:	f04f 1101 	mov.w	r1, #65537	@ 0x10001
 80058b4:	68f8      	ldr	r0, [r7, #12]
 80058b6:	f000 f82b 	bl	8005910 <I2C_WaitOnFlagUntilTimeout>
 80058ba:	4603      	mov	r3, r0
 80058bc:	2b00      	cmp	r3, #0
 80058be:	d00d      	beq.n	80058dc <I2C_RequestMemoryRead+0x19c>
  {
    if (READ_BIT(hi2c->Instance->CR1, I2C_CR1_START) == I2C_CR1_START)
 80058c0:	68fb      	ldr	r3, [r7, #12]
 80058c2:	681b      	ldr	r3, [r3, #0]
 80058c4:	681b      	ldr	r3, [r3, #0]
 80058c6:	f403 7380 	and.w	r3, r3, #256	@ 0x100
 80058ca:	f5b3 7f80 	cmp.w	r3, #256	@ 0x100
 80058ce:	d103      	bne.n	80058d8 <I2C_RequestMemoryRead+0x198>
    {
      hi2c->ErrorCode = HAL_I2C_WRONG_START;
 80058d0:	68fb      	ldr	r3, [r7, #12]
 80058d2:	f44f 7200 	mov.w	r2, #512	@ 0x200
 80058d6:	641a      	str	r2, [r3, #64]	@ 0x40
    }
    return HAL_TIMEOUT;
 80058d8:	2303      	movs	r3, #3
 80058da:	e013      	b.n	8005904 <I2C_RequestMemoryRead+0x1c4>
  }

  /* Send slave address */
  hi2c->Instance->DR = I2C_7BIT_ADD_READ(DevAddress);
 80058dc:	897b      	ldrh	r3, [r7, #10]
 80058de:	b2db      	uxtb	r3, r3
 80058e0:	f043 0301 	orr.w	r3, r3, #1
 80058e4:	b2da      	uxtb	r2, r3
 80058e6:	68fb      	ldr	r3, [r7, #12]
 80058e8:	681b      	ldr	r3, [r3, #0]
 80058ea:	611a      	str	r2, [r3, #16]

  /* Wait until ADDR flag is set */
  if (I2C_WaitOnMasterAddressFlagUntilTimeout(hi2c, I2C_FLAG_ADDR, Timeout, Tickstart) != HAL_OK)
 80058ec:	6a7b      	ldr	r3, [r7, #36]	@ 0x24
 80058ee:	6a3a      	ldr	r2, [r7, #32]
 80058f0:	4906      	ldr	r1, [pc, #24]	@ (800590c <I2C_RequestMemoryRead+0x1cc>)
 80058f2:	68f8      	ldr	r0, [r7, #12]
 80058f4:	f000 f886 	bl	8005a04 <I2C_WaitOnMasterAddressFlagUntilTimeout>
 80058f8:	4603      	mov	r3, r0
 80058fa:	2b00      	cmp	r3, #0
 80058fc:	d001      	beq.n	8005902 <I2C_RequestMemoryRead+0x1c2>
  {
    return HAL_ERROR;
 80058fe:	2301      	movs	r3, #1
 8005900:	e000      	b.n	8005904 <I2C_RequestMemoryRead+0x1c4>
  }

  return HAL_OK;
 8005902:	2300      	movs	r3, #0
}
 8005904:	4618      	mov	r0, r3
 8005906:	3718      	adds	r7, #24
 8005908:	46bd      	mov	sp, r7
 800590a:	bd80      	pop	{r7, pc}
 800590c:	00010002 	.word	0x00010002

08005910 <I2C_WaitOnFlagUntilTimeout>:
  * @param  Timeout Timeout duration
  * @param  Tickstart Tick start value
  * @retval HAL status
  */
static HAL_StatusTypeDef I2C_WaitOnFlagUntilTimeout(I2C_HandleTypeDef *hi2c, uint32_t Flag, FlagStatus Status, uint32_t Timeout, uint32_t Tickstart)
{
 8005910:	b580      	push	{r7, lr}
 8005912:	b084      	sub	sp, #16
 8005914:	af00      	add	r7, sp, #0
 8005916:	60f8      	str	r0, [r7, #12]
 8005918:	60b9      	str	r1, [r7, #8]
 800591a:	603b      	str	r3, [r7, #0]
 800591c:	4613      	mov	r3, r2
 800591e:	71fb      	strb	r3, [r7, #7]
  /* Wait until flag is set */
  while (__HAL_I2C_GET_FLAG(hi2c, Flag) == Status)
 8005920:	e048      	b.n	80059b4 <I2C_WaitOnFlagUntilTimeout+0xa4>
  {
    /* Check for the Timeout */
    if (Timeout != HAL_MAX_DELAY)
 8005922:	683b      	ldr	r3, [r7, #0]
 8005924:	f1b3 3fff 	cmp.w	r3, #4294967295
 8005928:	d044      	beq.n	80059b4 <I2C_WaitOnFlagUntilTimeout+0xa4>
    {
      if (((HAL_GetTick() - Tickstart) > Timeout) || (Timeout == 0U))
 800592a:	f7fe f9e1 	bl	8003cf0 <HAL_GetTick>
 800592e:	4602      	mov	r2, r0
 8005930:	69bb      	ldr	r3, [r7, #24]
 8005932:	1ad3      	subs	r3, r2, r3
 8005934:	683a      	ldr	r2, [r7, #0]
 8005936:	429a      	cmp	r2, r3
 8005938:	d302      	bcc.n	8005940 <I2C_WaitOnFlagUntilTimeout+0x30>
 800593a:	683b      	ldr	r3, [r7, #0]
 800593c:	2b00      	cmp	r3, #0
 800593e:	d139      	bne.n	80059b4 <I2C_WaitOnFlagUntilTimeout+0xa4>
      {
        if ((__HAL_I2C_GET_FLAG(hi2c, Flag) == Status))
 8005940:	68bb      	ldr	r3, [r7, #8]
 8005942:	0c1b      	lsrs	r3, r3, #16
 8005944:	b2db      	uxtb	r3, r3
 8005946:	2b01      	cmp	r3, #1
 8005948:	d10d      	bne.n	8005966 <I2C_WaitOnFlagUntilTimeout+0x56>
 800594a:	68fb      	ldr	r3, [r7, #12]
 800594c:	681b      	ldr	r3, [r3, #0]
 800594e:	695b      	ldr	r3, [r3, #20]
 8005950:	43da      	mvns	r2, r3
 8005952:	68bb      	ldr	r3, [r7, #8]
 8005954:	4013      	ands	r3, r2
 8005956:	b29b      	uxth	r3, r3
 8005958:	2b00      	cmp	r3, #0
 800595a:	bf0c      	ite	eq
 800595c:	2301      	moveq	r3, #1
 800595e:	2300      	movne	r3, #0
 8005960:	b2db      	uxtb	r3, r3
 8005962:	461a      	mov	r2, r3
 8005964:	e00c      	b.n	8005980 <I2C_WaitOnFlagUntilTimeout+0x70>
 8005966:	68fb      	ldr	r3, [r7, #12]
 8005968:	681b      	ldr	r3, [r3, #0]
 800596a:	699b      	ldr	r3, [r3, #24]
 800596c:	43da      	mvns	r2, r3
 800596e:	68bb      	ldr	r3, [r7, #8]
 8005970:	4013      	ands	r3, r2
 8005972:	b29b      	uxth	r3, r3
 8005974:	2b00      	cmp	r3, #0
 8005976:	bf0c      	ite	eq
 8005978:	2301      	moveq	r3, #1
 800597a:	2300      	movne	r3, #0
 800597c:	b2db      	uxtb	r3, r3
 800597e:	461a      	mov	r2, r3
 8005980:	79fb      	ldrb	r3, [r7, #7]
 8005982:	429a      	cmp	r2, r3
 8005984:	d116      	bne.n	80059b4 <I2C_WaitOnFlagUntilTimeout+0xa4>
        {
          hi2c->PreviousState     = I2C_STATE_NONE;
 8005986:	68fb      	ldr	r3, [r7, #12]
 8005988:	2200      	movs	r2, #0
 800598a:	631a      	str	r2, [r3, #48]	@ 0x30
          hi2c->State             = HAL_I2C_STATE_READY;
 800598c:	68fb      	ldr	r3, [r7, #12]
 800598e:	2220      	movs	r2, #32
 8005990:	f883 203d 	strb.w	r2, [r3, #61]	@ 0x3d
          hi2c->Mode              = HAL_I2C_MODE_NONE;
 8005994:	68fb      	ldr	r3, [r7, #12]
 8005996:	2200      	movs	r2, #0
 8005998:	f883 203e 	strb.w	r2, [r3, #62]	@ 0x3e
          hi2c->ErrorCode         |= HAL_I2C_ERROR_TIMEOUT;
 800599c:	68fb      	ldr	r3, [r7, #12]
 800599e:	6c1b      	ldr	r3, [r3, #64]	@ 0x40
 80059a0:	f043 0220 	orr.w	r2, r3, #32
 80059a4:	68fb      	ldr	r3, [r7, #12]
 80059a6:	641a      	str	r2, [r3, #64]	@ 0x40

          /* Process Unlocked */
          __HAL_UNLOCK(hi2c);
 80059a8:	68fb      	ldr	r3, [r7, #12]
 80059aa:	2200      	movs	r2, #0
 80059ac:	f883 203c 	strb.w	r2, [r3, #60]	@ 0x3c

          return HAL_ERROR;
 80059b0:	2301      	movs	r3, #1
 80059b2:	e023      	b.n	80059fc <I2C_WaitOnFlagUntilTimeout+0xec>
  while (__HAL_I2C_GET_FLAG(hi2c, Flag) == Status)
 80059b4:	68bb      	ldr	r3, [r7, #8]
 80059b6:	0c1b      	lsrs	r3, r3, #16
 80059b8:	b2db      	uxtb	r3, r3
 80059ba:	2b01      	cmp	r3, #1
 80059bc:	d10d      	bne.n	80059da <I2C_WaitOnFlagUntilTimeout+0xca>
 80059be:	68fb      	ldr	r3, [r7, #12]
 80059c0:	681b      	ldr	r3, [r3, #0]
 80059c2:	695b      	ldr	r3, [r3, #20]
 80059c4:	43da      	mvns	r2, r3
 80059c6:	68bb      	ldr	r3, [r7, #8]
 80059c8:	4013      	ands	r3, r2
 80059ca:	b29b      	uxth	r3, r3
 80059cc:	2b00      	cmp	r3, #0
 80059ce:	bf0c      	ite	eq
 80059d0:	2301      	moveq	r3, #1
 80059d2:	2300      	movne	r3, #0
 80059d4:	b2db      	uxtb	r3, r3
 80059d6:	461a      	mov	r2, r3
 80059d8:	e00c      	b.n	80059f4 <I2C_WaitOnFlagUntilTimeout+0xe4>
 80059da:	68fb      	ldr	r3, [r7, #12]
 80059dc:	681b      	ldr	r3, [r3, #0]
 80059de:	699b      	ldr	r3, [r3, #24]
 80059e0:	43da      	mvns	r2, r3
 80059e2:	68bb      	ldr	r3, [r7, #8]
 80059e4:	4013      	ands	r3, r2
 80059e6:	b29b      	uxth	r3, r3
 80059e8:	2b00      	cmp	r3, #0
 80059ea:	bf0c      	ite	eq
 80059ec:	2301      	moveq	r3, #1
 80059ee:	2300      	movne	r3, #0
 80059f0:	b2db      	uxtb	r3, r3
 80059f2:	461a      	mov	r2, r3
 80059f4:	79fb      	ldrb	r3, [r7, #7]
 80059f6:	429a      	cmp	r2, r3
 80059f8:	d093      	beq.n	8005922 <I2C_WaitOnFlagUntilTimeout+0x12>
        }
      }
    }
  }
  return HAL_OK;
 80059fa:	2300      	movs	r3, #0
}
 80059fc:	4618      	mov	r0, r3
 80059fe:	3710      	adds	r7, #16
 8005a00:	46bd      	mov	sp, r7
 8005a02:	bd80      	pop	{r7, pc}

08005a04 <I2C_WaitOnMasterAddressFlagUntilTimeout>:
  * @param  Timeout Timeout duration
  * @param  Tickstart Tick start value
  * @retval HAL status
  */
static HAL_StatusTypeDef I2C_WaitOnMasterAddressFlagUntilTimeout(I2C_HandleTypeDef *hi2c, uint32_t Flag, uint32_t Timeout, uint32_t Tickstart)
{
 8005a04:	b580      	push	{r7, lr}
 8005a06:	b084      	sub	sp, #16
 8005a08:	af00      	add	r7, sp, #0
 8005a0a:	60f8      	str	r0, [r7, #12]
 8005a0c:	60b9      	str	r1, [r7, #8]
 8005a0e:	607a      	str	r2, [r7, #4]
 8005a10:	603b      	str	r3, [r7, #0]
  while (__HAL_I2C_GET_FLAG(hi2c, Flag) == RESET)
 8005a12:	e071      	b.n	8005af8 <I2C_WaitOnMasterAddressFlagUntilTimeout+0xf4>
  {
    if (__HAL_I2C_GET_FLAG(hi2c, I2C_FLAG_AF) == SET)
 8005a14:	68fb      	ldr	r3, [r7, #12]
 8005a16:	681b      	ldr	r3, [r3, #0]
 8005a18:	695b      	ldr	r3, [r3, #20]
 8005a1a:	f403 6380 	and.w	r3, r3, #1024	@ 0x400
 8005a1e:	f5b3 6f80 	cmp.w	r3, #1024	@ 0x400
 8005a22:	d123      	bne.n	8005a6c <I2C_WaitOnMasterAddressFlagUntilTimeout+0x68>
    {
      /* Generate Stop */
      SET_BIT(hi2c->Instance->CR1, I2C_CR1_STOP);
 8005a24:	68fb      	ldr	r3, [r7, #12]
 8005a26:	681b      	ldr	r3, [r3, #0]
 8005a28:	681a      	ldr	r2, [r3, #0]
 8005a2a:	68fb      	ldr	r3, [r7, #12]
 8005a2c:	681b      	ldr	r3, [r3, #0]
 8005a2e:	f442 7200 	orr.w	r2, r2, #512	@ 0x200
 8005a32:	601a      	str	r2, [r3, #0]

      /* Clear AF Flag */
      __HAL_I2C_CLEAR_FLAG(hi2c, I2C_FLAG_AF);
 8005a34:	68fb      	ldr	r3, [r7, #12]
 8005a36:	681b      	ldr	r3, [r3, #0]
 8005a38:	f46f 6280 	mvn.w	r2, #1024	@ 0x400
 8005a3c:	615a      	str	r2, [r3, #20]

      hi2c->PreviousState       = I2C_STATE_NONE;
 8005a3e:	68fb      	ldr	r3, [r7, #12]
 8005a40:	2200      	movs	r2, #0
 8005a42:	631a      	str	r2, [r3, #48]	@ 0x30
      hi2c->State               = HAL_I2C_STATE_READY;
 8005a44:	68fb      	ldr	r3, [r7, #12]
 8005a46:	2220      	movs	r2, #32
 8005a48:	f883 203d 	strb.w	r2, [r3, #61]	@ 0x3d
      hi2c->Mode                = HAL_I2C_MODE_NONE;
 8005a4c:	68fb      	ldr	r3, [r7, #12]
 8005a4e:	2200      	movs	r2, #0
 8005a50:	f883 203e 	strb.w	r2, [r3, #62]	@ 0x3e
      hi2c->ErrorCode           |= HAL_I2C_ERROR_AF;
 8005a54:	68fb      	ldr	r3, [r7, #12]
 8005a56:	6c1b      	ldr	r3, [r3, #64]	@ 0x40
 8005a58:	f043 0204 	orr.w	r2, r3, #4
 8005a5c:	68fb      	ldr	r3, [r7, #12]
 8005a5e:	641a      	str	r2, [r3, #64]	@ 0x40

      /* Process Unlocked */
      __HAL_UNLOCK(hi2c);
 8005a60:	68fb      	ldr	r3, [r7, #12]
 8005a62:	2200      	movs	r2, #0
 8005a64:	f883 203c 	strb.w	r2, [r3, #60]	@ 0x3c

      return HAL_ERROR;
 8005a68:	2301      	movs	r3, #1
 8005a6a:	e067      	b.n	8005b3c <I2C_WaitOnMasterAddressFlagUntilTimeout+0x138>
    }

    /* Check for the Timeout */
    if (Timeout != HAL_MAX_DELAY)
 8005a6c:	687b      	ldr	r3, [r7, #4]
 8005a6e:	f1b3 3fff 	cmp.w	r3, #4294967295
 8005a72:	d041      	beq.n	8005af8 <I2C_WaitOnMasterAddressFlagUntilTimeout+0xf4>
    {
      if (((HAL_GetTick() - Tickstart) > Timeout) || (Timeout == 0U))
 8005a74:	f7fe f93c 	bl	8003cf0 <HAL_GetTick>
 8005a78:	4602      	mov	r2, r0
 8005a7a:	683b      	ldr	r3, [r7, #0]
 8005a7c:	1ad3      	subs	r3, r2, r3
 8005a7e:	687a      	ldr	r2, [r7, #4]
 8005a80:	429a      	cmp	r2, r3
 8005a82:	d302      	bcc.n	8005a8a <I2C_WaitOnMasterAddressFlagUntilTimeout+0x86>
 8005a84:	687b      	ldr	r3, [r7, #4]
 8005a86:	2b00      	cmp	r3, #0
 8005a88:	d136      	bne.n	8005af8 <I2C_WaitOnMasterAddressFlagUntilTimeout+0xf4>
      {
        if ((__HAL_I2C_GET_FLAG(hi2c, Flag) == RESET))
 8005a8a:	68bb      	ldr	r3, [r7, #8]
 8005a8c:	0c1b      	lsrs	r3, r3, #16
 8005a8e:	b2db      	uxtb	r3, r3
 8005a90:	2b01      	cmp	r3, #1
 8005a92:	d10c      	bne.n	8005aae <I2C_WaitOnMasterAddressFlagUntilTimeout+0xaa>
 8005a94:	68fb      	ldr	r3, [r7, #12]
 8005a96:	681b      	ldr	r3, [r3, #0]
 8005a98:	695b      	ldr	r3, [r3, #20]
 8005a9a:	43da      	mvns	r2, r3
 8005a9c:	68bb      	ldr	r3, [r7, #8]
 8005a9e:	4013      	ands	r3, r2
 8005aa0:	b29b      	uxth	r3, r3
 8005aa2:	2b00      	cmp	r3, #0
 8005aa4:	bf14      	ite	ne
 8005aa6:	2301      	movne	r3, #1
 8005aa8:	2300      	moveq	r3, #0
 8005aaa:	b2db      	uxtb	r3, r3
 8005aac:	e00b      	b.n	8005ac6 <I2C_WaitOnMasterAddressFlagUntilTimeout+0xc2>
 8005aae:	68fb      	ldr	r3, [r7, #12]
 8005ab0:	681b      	ldr	r3, [r3, #0]
 8005ab2:	699b      	ldr	r3, [r3, #24]
 8005ab4:	43da      	mvns	r2, r3
 8005ab6:	68bb      	ldr	r3, [r7, #8]
 8005ab8:	4013      	ands	r3, r2
 8005aba:	b29b      	uxth	r3, r3
 8005abc:	2b00      	cmp	r3, #0
 8005abe:	bf14      	ite	ne
 8005ac0:	2301      	movne	r3, #1
 8005ac2:	2300      	moveq	r3, #0
 8005ac4:	b2db      	uxtb	r3, r3
 8005ac6:	2b00      	cmp	r3, #0
 8005ac8:	d016      	beq.n	8005af8 <I2C_WaitOnMasterAddressFlagUntilTimeout+0xf4>
        {
          hi2c->PreviousState       = I2C_STATE_NONE;
 8005aca:	68fb      	ldr	r3, [r7, #12]
 8005acc:	2200      	movs	r2, #0
 8005ace:	631a      	str	r2, [r3, #48]	@ 0x30
          hi2c->State               = HAL_I2C_STATE_READY;
 8005ad0:	68fb      	ldr	r3, [r7, #12]
 8005ad2:	2220      	movs	r2, #32
 8005ad4:	f883 203d 	strb.w	r2, [r3, #61]	@ 0x3d
          hi2c->Mode                = HAL_I2C_MODE_NONE;
 8005ad8:	68fb      	ldr	r3, [r7, #12]
 8005ada:	2200      	movs	r2, #0
 8005adc:	f883 203e 	strb.w	r2, [r3, #62]	@ 0x3e
          hi2c->ErrorCode           |= HAL_I2C_ERROR_TIMEOUT;
 8005ae0:	68fb      	ldr	r3, [r7, #12]
 8005ae2:	6c1b      	ldr	r3, [r3, #64]	@ 0x40
 8005ae4:	f043 0220 	orr.w	r2, r3, #32
 8005ae8:	68fb      	ldr	r3, [r7, #12]
 8005aea:	641a      	str	r2, [r3, #64]	@ 0x40

          /* Process Unlocked */
          __HAL_UNLOCK(hi2c);
 8005aec:	68fb      	ldr	r3, [r7, #12]
 8005aee:	2200      	movs	r2, #0
 8005af0:	f883 203c 	strb.w	r2, [r3, #60]	@ 0x3c

          return HAL_ERROR;
 8005af4:	2301      	movs	r3, #1
 8005af6:	e021      	b.n	8005b3c <I2C_WaitOnMasterAddressFlagUntilTimeout+0x138>
  while (__HAL_I2C_GET_FLAG(hi2c, Flag) == RESET)
 8005af8:	68bb      	ldr	r3, [r7, #8]
 8005afa:	0c1b      	lsrs	r3, r3, #16
 8005afc:	b2db      	uxtb	r3, r3
 8005afe:	2b01      	cmp	r3, #1
 8005b00:	d10c      	bne.n	8005b1c <I2C_WaitOnMasterAddressFlagUntilTimeout+0x118>
 8005b02:	68fb      	ldr	r3, [r7, #12]
 8005b04:	681b      	ldr	r3, [r3, #0]
 8005b06:	695b      	ldr	r3, [r3, #20]
 8005b08:	43da      	mvns	r2, r3
 8005b0a:	68bb      	ldr	r3, [r7, #8]
 8005b0c:	4013      	ands	r3, r2
 8005b0e:	b29b      	uxth	r3, r3
 8005b10:	2b00      	cmp	r3, #0
 8005b12:	bf14      	ite	ne
 8005b14:	2301      	movne	r3, #1
 8005b16:	2300      	moveq	r3, #0
 8005b18:	b2db      	uxtb	r3, r3
 8005b1a:	e00b      	b.n	8005b34 <I2C_WaitOnMasterAddressFlagUntilTimeout+0x130>
 8005b1c:	68fb      	ldr	r3, [r7, #12]
 8005b1e:	681b      	ldr	r3, [r3, #0]
 8005b20:	699b      	ldr	r3, [r3, #24]
 8005b22:	43da      	mvns	r2, r3
 8005b24:	68bb      	ldr	r3, [r7, #8]
 8005b26:	4013      	ands	r3, r2
 8005b28:	b29b      	uxth	r3, r3
 8005b2a:	2b00      	cmp	r3, #0
 8005b2c:	bf14      	ite	ne
 8005b2e:	2301      	movne	r3, #1
 8005b30:	2300      	moveq	r3, #0
 8005b32:	b2db      	uxtb	r3, r3
 8005b34:	2b00      	cmp	r3, #0
 8005b36:	f47f af6d 	bne.w	8005a14 <I2C_WaitOnMasterAddressFlagUntilTimeout+0x10>
        }
      }
    }
  }
  return HAL_OK;
 8005b3a:	2300      	movs	r3, #0
}
 8005b3c:	4618      	mov	r0, r3
 8005b3e:	3710      	adds	r7, #16
 8005b40:	46bd      	mov	sp, r7
 8005b42:	bd80      	pop	{r7, pc}

08005b44 <I2C_WaitOnTXEFlagUntilTimeout>:
  * @param  Timeout Timeout duration
  * @param  Tickstart Tick start value
  * @retval HAL status
  */
static HAL_StatusTypeDef I2C_WaitOnTXEFlagUntilTimeout(I2C_HandleTypeDef *hi2c, uint32_t Timeout, uint32_t Tickstart)
{
 8005b44:	b580      	push	{r7, lr}
 8005b46:	b084      	sub	sp, #16
 8005b48:	af00      	add	r7, sp, #0
 8005b4a:	60f8      	str	r0, [r7, #12]
 8005b4c:	60b9      	str	r1, [r7, #8]
 8005b4e:	607a      	str	r2, [r7, #4]
  while (__HAL_I2C_GET_FLAG(hi2c, I2C_FLAG_TXE) == RESET)
 8005b50:	e034      	b.n	8005bbc <I2C_WaitOnTXEFlagUntilTimeout+0x78>
  {
    /* Check if a NACK is detected */
    if (I2C_IsAcknowledgeFailed(hi2c) != HAL_OK)
 8005b52:	68f8      	ldr	r0, [r7, #12]
 8005b54:	f000 f8e3 	bl	8005d1e <I2C_IsAcknowledgeFailed>
 8005b58:	4603      	mov	r3, r0
 8005b5a:	2b00      	cmp	r3, #0
 8005b5c:	d001      	beq.n	8005b62 <I2C_WaitOnTXEFlagUntilTimeout+0x1e>
    {
      return HAL_ERROR;
 8005b5e:	2301      	movs	r3, #1
 8005b60:	e034      	b.n	8005bcc <I2C_WaitOnTXEFlagUntilTimeout+0x88>
    }

    /* Check for the Timeout */
    if (Timeout != HAL_MAX_DELAY)
 8005b62:	68bb      	ldr	r3, [r7, #8]
 8005b64:	f1b3 3fff 	cmp.w	r3, #4294967295
 8005b68:	d028      	beq.n	8005bbc <I2C_WaitOnTXEFlagUntilTimeout+0x78>
    {
      if (((HAL_GetTick() - Tickstart) > Timeout) || (Timeout == 0U))
 8005b6a:	f7fe f8c1 	bl	8003cf0 <HAL_GetTick>
 8005b6e:	4602      	mov	r2, r0
 8005b70:	687b      	ldr	r3, [r7, #4]
 8005b72:	1ad3      	subs	r3, r2, r3
 8005b74:	68ba      	ldr	r2, [r7, #8]
 8005b76:	429a      	cmp	r2, r3
 8005b78:	d302      	bcc.n	8005b80 <I2C_WaitOnTXEFlagUntilTimeout+0x3c>
 8005b7a:	68bb      	ldr	r3, [r7, #8]
 8005b7c:	2b00      	cmp	r3, #0
 8005b7e:	d11d      	bne.n	8005bbc <I2C_WaitOnTXEFlagUntilTimeout+0x78>
      {
        if ((__HAL_I2C_GET_FLAG(hi2c, I2C_FLAG_TXE) == RESET))
 8005b80:	68fb      	ldr	r3, [r7, #12]
 8005b82:	681b      	ldr	r3, [r3, #0]
 8005b84:	695b      	ldr	r3, [r3, #20]
 8005b86:	f003 0380 	and.w	r3, r3, #128	@ 0x80
 8005b8a:	2b80      	cmp	r3, #128	@ 0x80
 8005b8c:	d016      	beq.n	8005bbc <I2C_WaitOnTXEFlagUntilTimeout+0x78>
        {
          hi2c->PreviousState       = I2C_STATE_NONE;
 8005b8e:	68fb      	ldr	r3, [r7, #12]
 8005b90:	2200      	movs	r2, #0
 8005b92:	631a      	str	r2, [r3, #48]	@ 0x30
          hi2c->State               = HAL_I2C_STATE_READY;
 8005b94:	68fb      	ldr	r3, [r7, #12]
 8005b96:	2220      	movs	r2, #32
 8005b98:	f883 203d 	strb.w	r2, [r3, #61]	@ 0x3d
          hi2c->Mode                = HAL_I2C_MODE_NONE;
 8005b9c:	68fb      	ldr	r3, [r7, #12]
 8005b9e:	2200      	movs	r2, #0
 8005ba0:	f883 203e 	strb.w	r2, [r3, #62]	@ 0x3e
          hi2c->ErrorCode           |= HAL_I2C_ERROR_TIMEOUT;
 8005ba4:	68fb      	ldr	r3, [r7, #12]
 8005ba6:	6c1b      	ldr	r3, [r3, #64]	@ 0x40
 8005ba8:	f043 0220 	orr.w	r2, r3, #32
 8005bac:	68fb      	ldr	r3, [r7, #12]
 8005bae:	641a      	str	r2, [r3, #64]	@ 0x40

          /* Process Unlocked */
          __HAL_UNLOCK(hi2c);
 8005bb0:	68fb      	ldr	r3, [r7, #12]
 8005bb2:	2200      	movs	r2, #0
 8005bb4:	f883 203c 	strb.w	r2, [r3, #60]	@ 0x3c

          return HAL_ERROR;
 8005bb8:	2301      	movs	r3, #1
 8005bba:	e007      	b.n	8005bcc <I2C_WaitOnTXEFlagUntilTimeout+0x88>
  while (__HAL_I2C_GET_FLAG(hi2c, I2C_FLAG_TXE) == RESET)
 8005bbc:	68fb      	ldr	r3, [r7, #12]
 8005bbe:	681b      	ldr	r3, [r3, #0]
 8005bc0:	695b      	ldr	r3, [r3, #20]
 8005bc2:	f003 0380 	and.w	r3, r3, #128	@ 0x80
 8005bc6:	2b80      	cmp	r3, #128	@ 0x80
 8005bc8:	d1c3      	bne.n	8005b52 <I2C_WaitOnTXEFlagUntilTimeout+0xe>
        }
      }
    }
  }
  return HAL_OK;
 8005bca:	2300      	movs	r3, #0
}
 8005bcc:	4618      	mov	r0, r3
 8005bce:	3710      	adds	r7, #16
 8005bd0:	46bd      	mov	sp, r7
 8005bd2:	bd80      	pop	{r7, pc}

08005bd4 <I2C_WaitOnBTFFlagUntilTimeout>:
  * @param  Timeout Timeout duration
  * @param  Tickstart Tick start value
  * @retval HAL status
  */
static HAL_StatusTypeDef I2C_WaitOnBTFFlagUntilTimeout(I2C_HandleTypeDef *hi2c, uint32_t Timeout, uint32_t Tickstart)
{
 8005bd4:	b580      	push	{r7, lr}
 8005bd6:	b084      	sub	sp, #16
 8005bd8:	af00      	add	r7, sp, #0
 8005bda:	60f8      	str	r0, [r7, #12]
 8005bdc:	60b9      	str	r1, [r7, #8]
 8005bde:	607a      	str	r2, [r7, #4]
  while (__HAL_I2C_GET_FLAG(hi2c, I2C_FLAG_BTF) == RESET)
 8005be0:	e034      	b.n	8005c4c <I2C_WaitOnBTFFlagUntilTimeout+0x78>
  {
    /* Check if a NACK is detected */
    if (I2C_IsAcknowledgeFailed(hi2c) != HAL_OK)
 8005be2:	68f8      	ldr	r0, [r7, #12]
 8005be4:	f000 f89b 	bl	8005d1e <I2C_IsAcknowledgeFailed>
 8005be8:	4603      	mov	r3, r0
 8005bea:	2b00      	cmp	r3, #0
 8005bec:	d001      	beq.n	8005bf2 <I2C_WaitOnBTFFlagUntilTimeout+0x1e>
    {
      return HAL_ERROR;
 8005bee:	2301      	movs	r3, #1
 8005bf0:	e034      	b.n	8005c5c <I2C_WaitOnBTFFlagUntilTimeout+0x88>
    }

    /* Check for the Timeout */
    if (Timeout != HAL_MAX_DELAY)
 8005bf2:	68bb      	ldr	r3, [r7, #8]
 8005bf4:	f1b3 3fff 	cmp.w	r3, #4294967295
 8005bf8:	d028      	beq.n	8005c4c <I2C_WaitOnBTFFlagUntilTimeout+0x78>
    {
      if (((HAL_GetTick() - Tickstart) > Timeout) || (Timeout == 0U))
 8005bfa:	f7fe f879 	bl	8003cf0 <HAL_GetTick>
 8005bfe:	4602      	mov	r2, r0
 8005c00:	687b      	ldr	r3, [r7, #4]
 8005c02:	1ad3      	subs	r3, r2, r3
 8005c04:	68ba      	ldr	r2, [r7, #8]
 8005c06:	429a      	cmp	r2, r3
 8005c08:	d302      	bcc.n	8005c10 <I2C_WaitOnBTFFlagUntilTimeout+0x3c>
 8005c0a:	68bb      	ldr	r3, [r7, #8]
 8005c0c:	2b00      	cmp	r3, #0
 8005c0e:	d11d      	bne.n	8005c4c <I2C_WaitOnBTFFlagUntilTimeout+0x78>
      {
        if ((__HAL_I2C_GET_FLAG(hi2c, I2C_FLAG_BTF) == RESET))
 8005c10:	68fb      	ldr	r3, [r7, #12]
 8005c12:	681b      	ldr	r3, [r3, #0]
 8005c14:	695b      	ldr	r3, [r3, #20]
 8005c16:	f003 0304 	and.w	r3, r3, #4
 8005c1a:	2b04      	cmp	r3, #4
 8005c1c:	d016      	beq.n	8005c4c <I2C_WaitOnBTFFlagUntilTimeout+0x78>
        {
          hi2c->PreviousState       = I2C_STATE_NONE;
 8005c1e:	68fb      	ldr	r3, [r7, #12]
 8005c20:	2200      	movs	r2, #0
 8005c22:	631a      	str	r2, [r3, #48]	@ 0x30
          hi2c->State               = HAL_I2C_STATE_READY;
 8005c24:	68fb      	ldr	r3, [r7, #12]
 8005c26:	2220      	movs	r2, #32
 8005c28:	f883 203d 	strb.w	r2, [r3, #61]	@ 0x3d
          hi2c->Mode                = HAL_I2C_MODE_NONE;
 8005c2c:	68fb      	ldr	r3, [r7, #12]
 8005c2e:	2200      	movs	r2, #0
 8005c30:	f883 203e 	strb.w	r2, [r3, #62]	@ 0x3e
          hi2c->ErrorCode           |= HAL_I2C_ERROR_TIMEOUT;
 8005c34:	68fb      	ldr	r3, [r7, #12]
 8005c36:	6c1b      	ldr	r3, [r3, #64]	@ 0x40
 8005c38:	f043 0220 	orr.w	r2, r3, #32
 8005c3c:	68fb      	ldr	r3, [r7, #12]
 8005c3e:	641a      	str	r2, [r3, #64]	@ 0x40

          /* Process Unlocked */
          __HAL_UNLOCK(hi2c);
 8005c40:	68fb      	ldr	r3, [r7, #12]
 8005c42:	2200      	movs	r2, #0
 8005c44:	f883 203c 	strb.w	r2, [r3, #60]	@ 0x3c

          return HAL_ERROR;
 8005c48:	2301      	movs	r3, #1
 8005c4a:	e007      	b.n	8005c5c <I2C_WaitOnBTFFlagUntilTimeout+0x88>
  while (__HAL_I2C_GET_FLAG(hi2c, I2C_FLAG_BTF) == RESET)
 8005c4c:	68fb      	ldr	r3, [r7, #12]
 8005c4e:	681b      	ldr	r3, [r3, #0]
 8005c50:	695b      	ldr	r3, [r3, #20]
 8005c52:	f003 0304 	and.w	r3, r3, #4
 8005c56:	2b04      	cmp	r3, #4
 8005c58:	d1c3      	bne.n	8005be2 <I2C_WaitOnBTFFlagUntilTimeout+0xe>
        }
      }
    }
  }
  return HAL_OK;
 8005c5a:	2300      	movs	r3, #0
}
 8005c5c:	4618      	mov	r0, r3
 8005c5e:	3710      	adds	r7, #16
 8005c60:	46bd      	mov	sp, r7
 8005c62:	bd80      	pop	{r7, pc}

08005c64 <I2C_WaitOnRXNEFlagUntilTimeout>:
  * @param  Timeout Timeout duration
  * @param  Tickstart Tick start value
  * @retval HAL status
  */
static HAL_StatusTypeDef I2C_WaitOnRXNEFlagUntilTimeout(I2C_HandleTypeDef *hi2c, uint32_t Timeout, uint32_t Tickstart)
{
 8005c64:	b580      	push	{r7, lr}
 8005c66:	b084      	sub	sp, #16
 8005c68:	af00      	add	r7, sp, #0
 8005c6a:	60f8      	str	r0, [r7, #12]
 8005c6c:	60b9      	str	r1, [r7, #8]
 8005c6e:	607a      	str	r2, [r7, #4]

  while (__HAL_I2C_GET_FLAG(hi2c, I2C_FLAG_RXNE) == RESET)
 8005c70:	e049      	b.n	8005d06 <I2C_WaitOnRXNEFlagUntilTimeout+0xa2>
  {
    /* Check if a STOPF is detected */
    if (__HAL_I2C_GET_FLAG(hi2c, I2C_FLAG_STOPF) == SET)
 8005c72:	68fb      	ldr	r3, [r7, #12]
 8005c74:	681b      	ldr	r3, [r3, #0]
 8005c76:	695b      	ldr	r3, [r3, #20]
 8005c78:	f003 0310 	and.w	r3, r3, #16
 8005c7c:	2b10      	cmp	r3, #16
 8005c7e:	d119      	bne.n	8005cb4 <I2C_WaitOnRXNEFlagUntilTimeout+0x50>
    {
      /* Clear STOP Flag */
      __HAL_I2C_CLEAR_FLAG(hi2c, I2C_FLAG_STOPF);
 8005c80:	68fb      	ldr	r3, [r7, #12]
 8005c82:	681b      	ldr	r3, [r3, #0]
 8005c84:	f06f 0210 	mvn.w	r2, #16
 8005c88:	615a      	str	r2, [r3, #20]

      hi2c->PreviousState       = I2C_STATE_NONE;
 8005c8a:	68fb      	ldr	r3, [r7, #12]
 8005c8c:	2200      	movs	r2, #0
 8005c8e:	631a      	str	r2, [r3, #48]	@ 0x30
      hi2c->State               = HAL_I2C_STATE_READY;
 8005c90:	68fb      	ldr	r3, [r7, #12]
 8005c92:	2220      	movs	r2, #32
 8005c94:	f883 203d 	strb.w	r2, [r3, #61]	@ 0x3d
      hi2c->Mode                = HAL_I2C_MODE_NONE;
 8005c98:	68fb      	ldr	r3, [r7, #12]
 8005c9a:	2200      	movs	r2, #0
 8005c9c:	f883 203e 	strb.w	r2, [r3, #62]	@ 0x3e
      hi2c->ErrorCode           |= HAL_I2C_ERROR_NONE;
 8005ca0:	68fb      	ldr	r3, [r7, #12]
 8005ca2:	6c1a      	ldr	r2, [r3, #64]	@ 0x40
 8005ca4:	68fb      	ldr	r3, [r7, #12]
 8005ca6:	641a      	str	r2, [r3, #64]	@ 0x40

      /* Process Unlocked */
      __HAL_UNLOCK(hi2c);
 8005ca8:	68fb      	ldr	r3, [r7, #12]
 8005caa:	2200      	movs	r2, #0
 8005cac:	f883 203c 	strb.w	r2, [r3, #60]	@ 0x3c

      return HAL_ERROR;
 8005cb0:	2301      	movs	r3, #1
 8005cb2:	e030      	b.n	8005d16 <I2C_WaitOnRXNEFlagUntilTimeout+0xb2>
    }

    /* Check for the Timeout */
    if (((HAL_GetTick() - Tickstart) > Timeout) || (Timeout == 0U))
 8005cb4:	f7fe f81c 	bl	8003cf0 <HAL_GetTick>
 8005cb8:	4602      	mov	r2, r0
 8005cba:	687b      	ldr	r3, [r7, #4]
 8005cbc:	1ad3      	subs	r3, r2, r3
 8005cbe:	68ba      	ldr	r2, [r7, #8]
 8005cc0:	429a      	cmp	r2, r3
 8005cc2:	d302      	bcc.n	8005cca <I2C_WaitOnRXNEFlagUntilTimeout+0x66>
 8005cc4:	68bb      	ldr	r3, [r7, #8]
 8005cc6:	2b00      	cmp	r3, #0
 8005cc8:	d11d      	bne.n	8005d06 <I2C_WaitOnRXNEFlagUntilTimeout+0xa2>
    {
      if ((__HAL_I2C_GET_FLAG(hi2c, I2C_FLAG_RXNE) == RESET))
 8005cca:	68fb      	ldr	r3, [r7, #12]
 8005ccc:	681b      	ldr	r3, [r3, #0]
 8005cce:	695b      	ldr	r3, [r3, #20]
 8005cd0:	f003 0340 	and.w	r3, r3, #64	@ 0x40
 8005cd4:	2b40      	cmp	r3, #64	@ 0x40
 8005cd6:	d016      	beq.n	8005d06 <I2C_WaitOnRXNEFlagUntilTimeout+0xa2>
      {
        hi2c->PreviousState       = I2C_STATE_NONE;
 8005cd8:	68fb      	ldr	r3, [r7, #12]
 8005cda:	2200      	movs	r2, #0
 8005cdc:	631a      	str	r2, [r3, #48]	@ 0x30
        hi2c->State               = HAL_I2C_STATE_READY;
 8005cde:	68fb      	ldr	r3, [r7, #12]
 8005ce0:	2220      	movs	r2, #32
 8005ce2:	f883 203d 	strb.w	r2, [r3, #61]	@ 0x3d
        hi2c->Mode                = HAL_I2C_MODE_NONE;
 8005ce6:	68fb      	ldr	r3, [r7, #12]
 8005ce8:	2200      	movs	r2, #0
 8005cea:	f883 203e 	strb.w	r2, [r3, #62]	@ 0x3e
        hi2c->ErrorCode           |= HAL_I2C_ERROR_TIMEOUT;
 8005cee:	68fb      	ldr	r3, [r7, #12]
 8005cf0:	6c1b      	ldr	r3, [r3, #64]	@ 0x40
 8005cf2:	f043 0220 	orr.w	r2, r3, #32
 8005cf6:	68fb      	ldr	r3, [r7, #12]
 8005cf8:	641a      	str	r2, [r3, #64]	@ 0x40

        /* Process Unlocked */
        __HAL_UNLOCK(hi2c);
 8005cfa:	68fb      	ldr	r3, [r7, #12]
 8005cfc:	2200      	movs	r2, #0
 8005cfe:	f883 203c 	strb.w	r2, [r3, #60]	@ 0x3c

        return HAL_ERROR;
 8005d02:	2301      	movs	r3, #1
 8005d04:	e007      	b.n	8005d16 <I2C_WaitOnRXNEFlagUntilTimeout+0xb2>
  while (__HAL_I2C_GET_FLAG(hi2c, I2C_FLAG_RXNE) == RESET)
 8005d06:	68fb      	ldr	r3, [r7, #12]
 8005d08:	681b      	ldr	r3, [r3, #0]
 8005d0a:	695b      	ldr	r3, [r3, #20]
 8005d0c:	f003 0340 	and.w	r3, r3, #64	@ 0x40
 8005d10:	2b40      	cmp	r3, #64	@ 0x40
 8005d12:	d1ae      	bne.n	8005c72 <I2C_WaitOnRXNEFlagUntilTimeout+0xe>
      }
    }
  }
  return HAL_OK;
 8005d14:	2300      	movs	r3, #0
}
 8005d16:	4618      	mov	r0, r3
 8005d18:	3710      	adds	r7, #16
 8005d1a:	46bd      	mov	sp, r7
 8005d1c:	bd80      	pop	{r7, pc}

08005d1e <I2C_IsAcknowledgeFailed>:
  * @param  hi2c Pointer to a I2C_HandleTypeDef structure that contains
  *                the configuration information for the specified I2C.
  * @retval HAL status
  */
static HAL_StatusTypeDef I2C_IsAcknowledgeFailed(I2C_HandleTypeDef *hi2c)
{
 8005d1e:	b480      	push	{r7}
 8005d20:	b083      	sub	sp, #12
 8005d22:	af00      	add	r7, sp, #0
 8005d24:	6078      	str	r0, [r7, #4]
  if (__HAL_I2C_GET_FLAG(hi2c, I2C_FLAG_AF) == SET)
 8005d26:	687b      	ldr	r3, [r7, #4]
 8005d28:	681b      	ldr	r3, [r3, #0]
 8005d2a:	695b      	ldr	r3, [r3, #20]
 8005d2c:	f403 6380 	and.w	r3, r3, #1024	@ 0x400
 8005d30:	f5b3 6f80 	cmp.w	r3, #1024	@ 0x400
 8005d34:	d11b      	bne.n	8005d6e <I2C_IsAcknowledgeFailed+0x50>
  {
    /* Clear NACKF Flag */
    __HAL_I2C_CLEAR_FLAG(hi2c, I2C_FLAG_AF);
 8005d36:	687b      	ldr	r3, [r7, #4]
 8005d38:	681b      	ldr	r3, [r3, #0]
 8005d3a:	f46f 6280 	mvn.w	r2, #1024	@ 0x400
 8005d3e:	615a      	str	r2, [r3, #20]

    hi2c->PreviousState       = I2C_STATE_NONE;
 8005d40:	687b      	ldr	r3, [r7, #4]
 8005d42:	2200      	movs	r2, #0
 8005d44:	631a      	str	r2, [r3, #48]	@ 0x30
    hi2c->State               = HAL_I2C_STATE_READY;
 8005d46:	687b      	ldr	r3, [r7, #4]
 8005d48:	2220      	movs	r2, #32
 8005d4a:	f883 203d 	strb.w	r2, [r3, #61]	@ 0x3d
    hi2c->Mode                = HAL_I2C_MODE_NONE;
 8005d4e:	687b      	ldr	r3, [r7, #4]
 8005d50:	2200      	movs	r2, #0
 8005d52:	f883 203e 	strb.w	r2, [r3, #62]	@ 0x3e
    hi2c->ErrorCode           |= HAL_I2C_ERROR_AF;
 8005d56:	687b      	ldr	r3, [r7, #4]
 8005d58:	6c1b      	ldr	r3, [r3, #64]	@ 0x40
 8005d5a:	f043 0204 	orr.w	r2, r3, #4
 8005d5e:	687b      	ldr	r3, [r7, #4]
 8005d60:	641a      	str	r2, [r3, #64]	@ 0x40

    /* Process Unlocked */
    __HAL_UNLOCK(hi2c);
 8005d62:	687b      	ldr	r3, [r7, #4]
 8005d64:	2200      	movs	r2, #0
 8005d66:	f883 203c 	strb.w	r2, [r3, #60]	@ 0x3c

    return HAL_ERROR;
 8005d6a:	2301      	movs	r3, #1
 8005d6c:	e000      	b.n	8005d70 <I2C_IsAcknowledgeFailed+0x52>
  }
  return HAL_OK;
 8005d6e:	2300      	movs	r3, #0
}
 8005d70:	4618      	mov	r0, r3
 8005d72:	370c      	adds	r7, #12
 8005d74:	46bd      	mov	sp, r7
 8005d76:	bc80      	pop	{r7}
 8005d78:	4770      	bx	lr
	...

08005d7c <HAL_RCC_OscConfig>:
  *         supported by this macro. User should request a transition to HSE Off
  *         first and then HSE On or HSE Bypass.
  * @retval HAL status
  */
HAL_StatusTypeDef HAL_RCC_OscConfig(RCC_OscInitTypeDef  *RCC_OscInitStruct)
{
 8005d7c:	b580      	push	{r7, lr}
 8005d7e:	b086      	sub	sp, #24
 8005d80:	af00      	add	r7, sp, #0
 8005d82:	6078      	str	r0, [r7, #4]
  uint32_t tickstart;
  uint32_t pll_config;

  /* Check Null pointer */
  if (RCC_OscInitStruct == NULL)
 8005d84:	687b      	ldr	r3, [r7, #4]
 8005d86:	2b00      	cmp	r3, #0
 8005d88:	d101      	bne.n	8005d8e <HAL_RCC_OscConfig+0x12>
  {
    return HAL_ERROR;
 8005d8a:	2301      	movs	r3, #1
 8005d8c:	e272      	b.n	8006274 <HAL_RCC_OscConfig+0x4f8>

  /* Check the parameters */
  assert_param(IS_RCC_OSCILLATORTYPE(RCC_OscInitStruct->OscillatorType));

  /*------------------------------- HSE Configuration ------------------------*/
  if (((RCC_OscInitStruct->OscillatorType) & RCC_OSCILLATORTYPE_HSE) == RCC_OSCILLATORTYPE_HSE)
 8005d8e:	687b      	ldr	r3, [r7, #4]
 8005d90:	681b      	ldr	r3, [r3, #0]
 8005d92:	f003 0301 	and.w	r3, r3, #1
 8005d96:	2b00      	cmp	r3, #0
 8005d98:	f000 8087 	beq.w	8005eaa <HAL_RCC_OscConfig+0x12e>
  {
    /* Check the parameters */
    assert_param(IS_RCC_HSE(RCC_OscInitStruct->HSEState));

    /* When the HSE is used as system clock or clock source for PLL in these cases it is not allowed to be disabled */
    if ((__HAL_RCC_GET_SYSCLK_SOURCE() == RCC_SYSCLKSOURCE_STATUS_HSE)
 8005d9c:	4b92      	ldr	r3, [pc, #584]	@ (8005fe8 <HAL_RCC_OscConfig+0x26c>)
 8005d9e:	685b      	ldr	r3, [r3, #4]
 8005da0:	f003 030c 	and.w	r3, r3, #12
 8005da4:	2b04      	cmp	r3, #4
 8005da6:	d00c      	beq.n	8005dc2 <HAL_RCC_OscConfig+0x46>
        || ((__HAL_RCC_GET_SYSCLK_SOURCE() == RCC_SYSCLKSOURCE_STATUS_PLLCLK) && (__HAL_RCC_GET_PLL_OSCSOURCE() == RCC_PLLSOURCE_HSE)))
 8005da8:	4b8f      	ldr	r3, [pc, #572]	@ (8005fe8 <HAL_RCC_OscConfig+0x26c>)
 8005daa:	685b      	ldr	r3, [r3, #4]
 8005dac:	f003 030c 	and.w	r3, r3, #12
 8005db0:	2b08      	cmp	r3, #8
 8005db2:	d112      	bne.n	8005dda <HAL_RCC_OscConfig+0x5e>
 8005db4:	4b8c      	ldr	r3, [pc, #560]	@ (8005fe8 <HAL_RCC_OscConfig+0x26c>)
 8005db6:	685b      	ldr	r3, [r3, #4]
 8005db8:	f403 3380 	and.w	r3, r3, #65536	@ 0x10000
 8005dbc:	f5b3 3f80 	cmp.w	r3, #65536	@ 0x10000
 8005dc0:	d10b      	bne.n	8005dda <HAL_RCC_OscConfig+0x5e>
    {
      if ((__HAL_RCC_GET_FLAG(RCC_FLAG_HSERDY) != RESET) && (RCC_OscInitStruct->HSEState == RCC_HSE_OFF))
 8005dc2:	4b89      	ldr	r3, [pc, #548]	@ (8005fe8 <HAL_RCC_OscConfig+0x26c>)
 8005dc4:	681b      	ldr	r3, [r3, #0]
 8005dc6:	f403 3300 	and.w	r3, r3, #131072	@ 0x20000
 8005dca:	2b00      	cmp	r3, #0
 8005dcc:	d06c      	beq.n	8005ea8 <HAL_RCC_OscConfig+0x12c>
 8005dce:	687b      	ldr	r3, [r7, #4]
 8005dd0:	685b      	ldr	r3, [r3, #4]
 8005dd2:	2b00      	cmp	r3, #0
 8005dd4:	d168      	bne.n	8005ea8 <HAL_RCC_OscConfig+0x12c>
      {
        return HAL_ERROR;
 8005dd6:	2301      	movs	r3, #1
 8005dd8:	e24c      	b.n	8006274 <HAL_RCC_OscConfig+0x4f8>
      }
    }
    else
    {
      /* Set the new HSE configuration ---------------------------------------*/
      __HAL_RCC_HSE_CONFIG(RCC_OscInitStruct->HSEState);
 8005dda:	687b      	ldr	r3, [r7, #4]
 8005ddc:	685b      	ldr	r3, [r3, #4]
 8005dde:	f5b3 3f80 	cmp.w	r3, #65536	@ 0x10000
 8005de2:	d106      	bne.n	8005df2 <HAL_RCC_OscConfig+0x76>
 8005de4:	4b80      	ldr	r3, [pc, #512]	@ (8005fe8 <HAL_RCC_OscConfig+0x26c>)
 8005de6:	681b      	ldr	r3, [r3, #0]
 8005de8:	4a7f      	ldr	r2, [pc, #508]	@ (8005fe8 <HAL_RCC_OscConfig+0x26c>)
 8005dea:	f443 3380 	orr.w	r3, r3, #65536	@ 0x10000
 8005dee:	6013      	str	r3, [r2, #0]
 8005df0:	e02e      	b.n	8005e50 <HAL_RCC_OscConfig+0xd4>
 8005df2:	687b      	ldr	r3, [r7, #4]
 8005df4:	685b      	ldr	r3, [r3, #4]
 8005df6:	2b00      	cmp	r3, #0
 8005df8:	d10c      	bne.n	8005e14 <HAL_RCC_OscConfig+0x98>
 8005dfa:	4b7b      	ldr	r3, [pc, #492]	@ (8005fe8 <HAL_RCC_OscConfig+0x26c>)
 8005dfc:	681b      	ldr	r3, [r3, #0]
 8005dfe:	4a7a      	ldr	r2, [pc, #488]	@ (8005fe8 <HAL_RCC_OscConfig+0x26c>)
 8005e00:	f423 3380 	bic.w	r3, r3, #65536	@ 0x10000
 8005e04:	6013      	str	r3, [r2, #0]
 8005e06:	4b78      	ldr	r3, [pc, #480]	@ (8005fe8 <HAL_RCC_OscConfig+0x26c>)
 8005e08:	681b      	ldr	r3, [r3, #0]
 8005e0a:	4a77      	ldr	r2, [pc, #476]	@ (8005fe8 <HAL_RCC_OscConfig+0x26c>)
 8005e0c:	f423 2380 	bic.w	r3, r3, #262144	@ 0x40000
 8005e10:	6013      	str	r3, [r2, #0]
 8005e12:	e01d      	b.n	8005e50 <HAL_RCC_OscConfig+0xd4>
 8005e14:	687b      	ldr	r3, [r7, #4]
 8005e16:	685b      	ldr	r3, [r3, #4]
 8005e18:	f5b3 2fa0 	cmp.w	r3, #327680	@ 0x50000
 8005e1c:	d10c      	bne.n	8005e38 <HAL_RCC_OscConfig+0xbc>
 8005e1e:	4b72      	ldr	r3, [pc, #456]	@ (8005fe8 <HAL_RCC_OscConfig+0x26c>)
 8005e20:	681b      	ldr	r3, [r3, #0]
 8005e22:	4a71      	ldr	r2, [pc, #452]	@ (8005fe8 <HAL_RCC_OscConfig+0x26c>)
 8005e24:	f443 2380 	orr.w	r3, r3, #262144	@ 0x40000
 8005e28:	6013      	str	r3, [r2, #0]
 8005e2a:	4b6f      	ldr	r3, [pc, #444]	@ (8005fe8 <HAL_RCC_OscConfig+0x26c>)
 8005e2c:	681b      	ldr	r3, [r3, #0]
 8005e2e:	4a6e      	ldr	r2, [pc, #440]	@ (8005fe8 <HAL_RCC_OscConfig+0x26c>)
 8005e30:	f443 3380 	orr.w	r3, r3, #65536	@ 0x10000
 8005e34:	6013      	str	r3, [r2, #0]
 8005e36:	e00b      	b.n	8005e50 <HAL_RCC_OscConfig+0xd4>
 8005e38:	4b6b      	ldr	r3, [pc, #428]	@ (8005fe8 <HAL_RCC_OscConfig+0x26c>)
 8005e3a:	681b      	ldr	r3, [r3, #0]
 8005e3c:	4a6a      	ldr	r2, [pc, #424]	@ (8005fe8 <HAL_RCC_OscConfig+0x26c>)
 8005e3e:	f423 3380 	bic.w	r3, r3, #65536	@ 0x10000
 8005e42:	6013      	str	r3, [r2, #0]
 8005e44:	4b68      	ldr	r3, [pc, #416]	@ (8005fe8 <HAL_RCC_OscConfig+0x26c>)
 8005e46:	681b      	ldr	r3, [r3, #0]
 8005e48:	4a67      	ldr	r2, [pc, #412]	@ (8005fe8 <HAL_RCC_OscConfig+0x26c>)
 8005e4a:	f423 2380 	bic.w	r3, r3, #262144	@ 0x40000
 8005e4e:	6013      	str	r3, [r2, #0]


      /* Check the HSE State */
      if (RCC_OscInitStruct->HSEState != RCC_HSE_OFF)
 8005e50:	687b      	ldr	r3, [r7, #4]
 8005e52:	685b      	ldr	r3, [r3, #4]
 8005e54:	2b00      	cmp	r3, #0
 8005e56:	d013      	beq.n	8005e80 <HAL_RCC_OscConfig+0x104>
      {
        /* Get Start Tick */
        tickstart = HAL_GetTick();
 8005e58:	f7fd ff4a 	bl	8003cf0 <HAL_GetTick>
 8005e5c:	6138      	str	r0, [r7, #16]

        /* Wait till HSE is ready */
        while (__HAL_RCC_GET_FLAG(RCC_FLAG_HSERDY) == RESET)
 8005e5e:	e008      	b.n	8005e72 <HAL_RCC_OscConfig+0xf6>
        {
          if ((HAL_GetTick() - tickstart) > HSE_TIMEOUT_VALUE)
 8005e60:	f7fd ff46 	bl	8003cf0 <HAL_GetTick>
 8005e64:	4602      	mov	r2, r0
 8005e66:	693b      	ldr	r3, [r7, #16]
 8005e68:	1ad3      	subs	r3, r2, r3
 8005e6a:	2b64      	cmp	r3, #100	@ 0x64
 8005e6c:	d901      	bls.n	8005e72 <HAL_RCC_OscConfig+0xf6>
          {
            return HAL_TIMEOUT;
 8005e6e:	2303      	movs	r3, #3
 8005e70:	e200      	b.n	8006274 <HAL_RCC_OscConfig+0x4f8>
        while (__HAL_RCC_GET_FLAG(RCC_FLAG_HSERDY) == RESET)
 8005e72:	4b5d      	ldr	r3, [pc, #372]	@ (8005fe8 <HAL_RCC_OscConfig+0x26c>)
 8005e74:	681b      	ldr	r3, [r3, #0]
 8005e76:	f403 3300 	and.w	r3, r3, #131072	@ 0x20000
 8005e7a:	2b00      	cmp	r3, #0
 8005e7c:	d0f0      	beq.n	8005e60 <HAL_RCC_OscConfig+0xe4>
 8005e7e:	e014      	b.n	8005eaa <HAL_RCC_OscConfig+0x12e>
        }
      }
      else
      {
        /* Get Start Tick */
        tickstart = HAL_GetTick();
 8005e80:	f7fd ff36 	bl	8003cf0 <HAL_GetTick>
 8005e84:	6138      	str	r0, [r7, #16]

        /* Wait till HSE is disabled */
        while (__HAL_RCC_GET_FLAG(RCC_FLAG_HSERDY) != RESET)
 8005e86:	e008      	b.n	8005e9a <HAL_RCC_OscConfig+0x11e>
        {
          if ((HAL_GetTick() - tickstart) > HSE_TIMEOUT_VALUE)
 8005e88:	f7fd ff32 	bl	8003cf0 <HAL_GetTick>
 8005e8c:	4602      	mov	r2, r0
 8005e8e:	693b      	ldr	r3, [r7, #16]
 8005e90:	1ad3      	subs	r3, r2, r3
 8005e92:	2b64      	cmp	r3, #100	@ 0x64
 8005e94:	d901      	bls.n	8005e9a <HAL_RCC_OscConfig+0x11e>
          {
            return HAL_TIMEOUT;
 8005e96:	2303      	movs	r3, #3
 8005e98:	e1ec      	b.n	8006274 <HAL_RCC_OscConfig+0x4f8>
        while (__HAL_RCC_GET_FLAG(RCC_FLAG_HSERDY) != RESET)
 8005e9a:	4b53      	ldr	r3, [pc, #332]	@ (8005fe8 <HAL_RCC_OscConfig+0x26c>)
 8005e9c:	681b      	ldr	r3, [r3, #0]
 8005e9e:	f403 3300 	and.w	r3, r3, #131072	@ 0x20000
 8005ea2:	2b00      	cmp	r3, #0
 8005ea4:	d1f0      	bne.n	8005e88 <HAL_RCC_OscConfig+0x10c>
 8005ea6:	e000      	b.n	8005eaa <HAL_RCC_OscConfig+0x12e>
      if ((__HAL_RCC_GET_FLAG(RCC_FLAG_HSERDY) != RESET) && (RCC_OscInitStruct->HSEState == RCC_HSE_OFF))
 8005ea8:	bf00      	nop
        }
      }
    }
  }
  /*----------------------------- HSI Configuration --------------------------*/
  if (((RCC_OscInitStruct->OscillatorType) & RCC_OSCILLATORTYPE_HSI) == RCC_OSCILLATORTYPE_HSI)
 8005eaa:	687b      	ldr	r3, [r7, #4]
 8005eac:	681b      	ldr	r3, [r3, #0]
 8005eae:	f003 0302 	and.w	r3, r3, #2
 8005eb2:	2b00      	cmp	r3, #0
 8005eb4:	d063      	beq.n	8005f7e <HAL_RCC_OscConfig+0x202>
    /* Check the parameters */
    assert_param(IS_RCC_HSI(RCC_OscInitStruct->HSIState));
    assert_param(IS_RCC_CALIBRATION_VALUE(RCC_OscInitStruct->HSICalibrationValue));

    /* Check if HSI is used as system clock or as PLL source when PLL is selected as system clock */
    if ((__HAL_RCC_GET_SYSCLK_SOURCE() == RCC_SYSCLKSOURCE_STATUS_HSI)
 8005eb6:	4b4c      	ldr	r3, [pc, #304]	@ (8005fe8 <HAL_RCC_OscConfig+0x26c>)
 8005eb8:	685b      	ldr	r3, [r3, #4]
 8005eba:	f003 030c 	and.w	r3, r3, #12
 8005ebe:	2b00      	cmp	r3, #0
 8005ec0:	d00b      	beq.n	8005eda <HAL_RCC_OscConfig+0x15e>
        || ((__HAL_RCC_GET_SYSCLK_SOURCE() == RCC_SYSCLKSOURCE_STATUS_PLLCLK) && (__HAL_RCC_GET_PLL_OSCSOURCE() == RCC_PLLSOURCE_HSI_DIV2)))
 8005ec2:	4b49      	ldr	r3, [pc, #292]	@ (8005fe8 <HAL_RCC_OscConfig+0x26c>)
 8005ec4:	685b      	ldr	r3, [r3, #4]
 8005ec6:	f003 030c 	and.w	r3, r3, #12
 8005eca:	2b08      	cmp	r3, #8
 8005ecc:	d11c      	bne.n	8005f08 <HAL_RCC_OscConfig+0x18c>
 8005ece:	4b46      	ldr	r3, [pc, #280]	@ (8005fe8 <HAL_RCC_OscConfig+0x26c>)
 8005ed0:	685b      	ldr	r3, [r3, #4]
 8005ed2:	f403 3380 	and.w	r3, r3, #65536	@ 0x10000
 8005ed6:	2b00      	cmp	r3, #0
 8005ed8:	d116      	bne.n	8005f08 <HAL_RCC_OscConfig+0x18c>
    {
      /* When HSI is used as system clock it will not disabled */
      if ((__HAL_RCC_GET_FLAG(RCC_FLAG_HSIRDY) != RESET) && (RCC_OscInitStruct->HSIState != RCC_HSI_ON))
 8005eda:	4b43      	ldr	r3, [pc, #268]	@ (8005fe8 <HAL_RCC_OscConfig+0x26c>)
 8005edc:	681b      	ldr	r3, [r3, #0]
 8005ede:	f003 0302 	and.w	r3, r3, #2
 8005ee2:	2b00      	cmp	r3, #0
 8005ee4:	d005      	beq.n	8005ef2 <HAL_RCC_OscConfig+0x176>
 8005ee6:	687b      	ldr	r3, [r7, #4]
 8005ee8:	691b      	ldr	r3, [r3, #16]
 8005eea:	2b01      	cmp	r3, #1
 8005eec:	d001      	beq.n	8005ef2 <HAL_RCC_OscConfig+0x176>
      {
        return HAL_ERROR;
 8005eee:	2301      	movs	r3, #1
 8005ef0:	e1c0      	b.n	8006274 <HAL_RCC_OscConfig+0x4f8>
      }
      /* Otherwise, just the calibration is allowed */
      else
      {
        /* Adjusts the Internal High Speed oscillator (HSI) calibration value.*/
        __HAL_RCC_HSI_CALIBRATIONVALUE_ADJUST(RCC_OscInitStruct->HSICalibrationValue);
 8005ef2:	4b3d      	ldr	r3, [pc, #244]	@ (8005fe8 <HAL_RCC_OscConfig+0x26c>)
 8005ef4:	681b      	ldr	r3, [r3, #0]
 8005ef6:	f023 02f8 	bic.w	r2, r3, #248	@ 0xf8
 8005efa:	687b      	ldr	r3, [r7, #4]
 8005efc:	695b      	ldr	r3, [r3, #20]
 8005efe:	00db      	lsls	r3, r3, #3
 8005f00:	4939      	ldr	r1, [pc, #228]	@ (8005fe8 <HAL_RCC_OscConfig+0x26c>)
 8005f02:	4313      	orrs	r3, r2
 8005f04:	600b      	str	r3, [r1, #0]
      if ((__HAL_RCC_GET_FLAG(RCC_FLAG_HSIRDY) != RESET) && (RCC_OscInitStruct->HSIState != RCC_HSI_ON))
 8005f06:	e03a      	b.n	8005f7e <HAL_RCC_OscConfig+0x202>
      }
    }
    else
    {
      /* Check the HSI State */
      if (RCC_OscInitStruct->HSIState != RCC_HSI_OFF)
 8005f08:	687b      	ldr	r3, [r7, #4]
 8005f0a:	691b      	ldr	r3, [r3, #16]
 8005f0c:	2b00      	cmp	r3, #0
 8005f0e:	d020      	beq.n	8005f52 <HAL_RCC_OscConfig+0x1d6>
      {
        /* Enable the Internal High Speed oscillator (HSI). */
        __HAL_RCC_HSI_ENABLE();
 8005f10:	4b36      	ldr	r3, [pc, #216]	@ (8005fec <HAL_RCC_OscConfig+0x270>)
 8005f12:	2201      	movs	r2, #1
 8005f14:	601a      	str	r2, [r3, #0]

        /* Get Start Tick */
        tickstart = HAL_GetTick();
 8005f16:	f7fd feeb 	bl	8003cf0 <HAL_GetTick>
 8005f1a:	6138      	str	r0, [r7, #16]

        /* Wait till HSI is ready */
        while (__HAL_RCC_GET_FLAG(RCC_FLAG_HSIRDY) == RESET)
 8005f1c:	e008      	b.n	8005f30 <HAL_RCC_OscConfig+0x1b4>
        {
          if ((HAL_GetTick() - tickstart) > HSI_TIMEOUT_VALUE)
 8005f1e:	f7fd fee7 	bl	8003cf0 <HAL_GetTick>
 8005f22:	4602      	mov	r2, r0
 8005f24:	693b      	ldr	r3, [r7, #16]
 8005f26:	1ad3      	subs	r3, r2, r3
 8005f28:	2b02      	cmp	r3, #2
 8005f2a:	d901      	bls.n	8005f30 <HAL_RCC_OscConfig+0x1b4>
          {
            return HAL_TIMEOUT;
 8005f2c:	2303      	movs	r3, #3
 8005f2e:	e1a1      	b.n	8006274 <HAL_RCC_OscConfig+0x4f8>
        while (__HAL_RCC_GET_FLAG(RCC_FLAG_HSIRDY) == RESET)
 8005f30:	4b2d      	ldr	r3, [pc, #180]	@ (8005fe8 <HAL_RCC_OscConfig+0x26c>)
 8005f32:	681b      	ldr	r3, [r3, #0]
 8005f34:	f003 0302 	and.w	r3, r3, #2
 8005f38:	2b00      	cmp	r3, #0
 8005f3a:	d0f0      	beq.n	8005f1e <HAL_RCC_OscConfig+0x1a2>
          }
        }

        /* Adjusts the Internal High Speed oscillator (HSI) calibration value.*/
        __HAL_RCC_HSI_CALIBRATIONVALUE_ADJUST(RCC_OscInitStruct->HSICalibrationValue);
 8005f3c:	4b2a      	ldr	r3, [pc, #168]	@ (8005fe8 <HAL_RCC_OscConfig+0x26c>)
 8005f3e:	681b      	ldr	r3, [r3, #0]
 8005f40:	f023 02f8 	bic.w	r2, r3, #248	@ 0xf8
 8005f44:	687b      	ldr	r3, [r7, #4]
 8005f46:	695b      	ldr	r3, [r3, #20]
 8005f48:	00db      	lsls	r3, r3, #3
 8005f4a:	4927      	ldr	r1, [pc, #156]	@ (8005fe8 <HAL_RCC_OscConfig+0x26c>)
 8005f4c:	4313      	orrs	r3, r2
 8005f4e:	600b      	str	r3, [r1, #0]
 8005f50:	e015      	b.n	8005f7e <HAL_RCC_OscConfig+0x202>
      }
      else
      {
        /* Disable the Internal High Speed oscillator (HSI). */
        __HAL_RCC_HSI_DISABLE();
 8005f52:	4b26      	ldr	r3, [pc, #152]	@ (8005fec <HAL_RCC_OscConfig+0x270>)
 8005f54:	2200      	movs	r2, #0
 8005f56:	601a      	str	r2, [r3, #0]

        /* Get Start Tick */
        tickstart = HAL_GetTick();
 8005f58:	f7fd feca 	bl	8003cf0 <HAL_GetTick>
 8005f5c:	6138      	str	r0, [r7, #16]

        /* Wait till HSI is disabled */
        while (__HAL_RCC_GET_FLAG(RCC_FLAG_HSIRDY) != RESET)
 8005f5e:	e008      	b.n	8005f72 <HAL_RCC_OscConfig+0x1f6>
        {
          if ((HAL_GetTick() - tickstart) > HSI_TIMEOUT_VALUE)
 8005f60:	f7fd fec6 	bl	8003cf0 <HAL_GetTick>
 8005f64:	4602      	mov	r2, r0
 8005f66:	693b      	ldr	r3, [r7, #16]
 8005f68:	1ad3      	subs	r3, r2, r3
 8005f6a:	2b02      	cmp	r3, #2
 8005f6c:	d901      	bls.n	8005f72 <HAL_RCC_OscConfig+0x1f6>
          {
            return HAL_TIMEOUT;
 8005f6e:	2303      	movs	r3, #3
 8005f70:	e180      	b.n	8006274 <HAL_RCC_OscConfig+0x4f8>
        while (__HAL_RCC_GET_FLAG(RCC_FLAG_HSIRDY) != RESET)
 8005f72:	4b1d      	ldr	r3, [pc, #116]	@ (8005fe8 <HAL_RCC_OscConfig+0x26c>)
 8005f74:	681b      	ldr	r3, [r3, #0]
 8005f76:	f003 0302 	and.w	r3, r3, #2
 8005f7a:	2b00      	cmp	r3, #0
 8005f7c:	d1f0      	bne.n	8005f60 <HAL_RCC_OscConfig+0x1e4>
        }
      }
    }
  }
  /*------------------------------ LSI Configuration -------------------------*/
  if (((RCC_OscInitStruct->OscillatorType) & RCC_OSCILLATORTYPE_LSI) == RCC_OSCILLATORTYPE_LSI)
 8005f7e:	687b      	ldr	r3, [r7, #4]
 8005f80:	681b      	ldr	r3, [r3, #0]
 8005f82:	f003 0308 	and.w	r3, r3, #8
 8005f86:	2b00      	cmp	r3, #0
 8005f88:	d03a      	beq.n	8006000 <HAL_RCC_OscConfig+0x284>
  {
    /* Check the parameters */
    assert_param(IS_RCC_LSI(RCC_OscInitStruct->LSIState));

    /* Check the LSI State */
    if (RCC_OscInitStruct->LSIState != RCC_LSI_OFF)
 8005f8a:	687b      	ldr	r3, [r7, #4]
 8005f8c:	699b      	ldr	r3, [r3, #24]
 8005f8e:	2b00      	cmp	r3, #0
 8005f90:	d019      	beq.n	8005fc6 <HAL_RCC_OscConfig+0x24a>
    {
      /* Enable the Internal Low Speed oscillator (LSI). */
      __HAL_RCC_LSI_ENABLE();
 8005f92:	4b17      	ldr	r3, [pc, #92]	@ (8005ff0 <HAL_RCC_OscConfig+0x274>)
 8005f94:	2201      	movs	r2, #1
 8005f96:	601a      	str	r2, [r3, #0]

      /* Get Start Tick */
      tickstart = HAL_GetTick();
 8005f98:	f7fd feaa 	bl	8003cf0 <HAL_GetTick>
 8005f9c:	6138      	str	r0, [r7, #16]

      /* Wait till LSI is ready */
      while (__HAL_RCC_GET_FLAG(RCC_FLAG_LSIRDY) == RESET)
 8005f9e:	e008      	b.n	8005fb2 <HAL_RCC_OscConfig+0x236>
      {
        if ((HAL_GetTick() - tickstart) > LSI_TIMEOUT_VALUE)
 8005fa0:	f7fd fea6 	bl	8003cf0 <HAL_GetTick>
 8005fa4:	4602      	mov	r2, r0
 8005fa6:	693b      	ldr	r3, [r7, #16]
 8005fa8:	1ad3      	subs	r3, r2, r3
 8005faa:	2b02      	cmp	r3, #2
 8005fac:	d901      	bls.n	8005fb2 <HAL_RCC_OscConfig+0x236>
        {
          return HAL_TIMEOUT;
 8005fae:	2303      	movs	r3, #3
 8005fb0:	e160      	b.n	8006274 <HAL_RCC_OscConfig+0x4f8>
      while (__HAL_RCC_GET_FLAG(RCC_FLAG_LSIRDY) == RESET)
 8005fb2:	4b0d      	ldr	r3, [pc, #52]	@ (8005fe8 <HAL_RCC_OscConfig+0x26c>)
 8005fb4:	6a5b      	ldr	r3, [r3, #36]	@ 0x24
 8005fb6:	f003 0302 	and.w	r3, r3, #2
 8005fba:	2b00      	cmp	r3, #0
 8005fbc:	d0f0      	beq.n	8005fa0 <HAL_RCC_OscConfig+0x224>
        }
      }
      /*  To have a fully stabilized clock in the specified range, a software delay of 1ms
          should be added.*/
      RCC_Delay(1);
 8005fbe:	2001      	movs	r0, #1
 8005fc0:	f000 face 	bl	8006560 <RCC_Delay>
 8005fc4:	e01c      	b.n	8006000 <HAL_RCC_OscConfig+0x284>
    }
    else
    {
      /* Disable the Internal Low Speed oscillator (LSI). */
      __HAL_RCC_LSI_DISABLE();
 8005fc6:	4b0a      	ldr	r3, [pc, #40]	@ (8005ff0 <HAL_RCC_OscConfig+0x274>)
 8005fc8:	2200      	movs	r2, #0
 8005fca:	601a      	str	r2, [r3, #0]

      /* Get Start Tick */
      tickstart = HAL_GetTick();
 8005fcc:	f7fd fe90 	bl	8003cf0 <HAL_GetTick>
 8005fd0:	6138      	str	r0, [r7, #16]

      /* Wait till LSI is disabled */
      while (__HAL_RCC_GET_FLAG(RCC_FLAG_LSIRDY) != RESET)
 8005fd2:	e00f      	b.n	8005ff4 <HAL_RCC_OscConfig+0x278>
      {
        if ((HAL_GetTick() - tickstart) > LSI_TIMEOUT_VALUE)
 8005fd4:	f7fd fe8c 	bl	8003cf0 <HAL_GetTick>
 8005fd8:	4602      	mov	r2, r0
 8005fda:	693b      	ldr	r3, [r7, #16]
 8005fdc:	1ad3      	subs	r3, r2, r3
 8005fde:	2b02      	cmp	r3, #2
 8005fe0:	d908      	bls.n	8005ff4 <HAL_RCC_OscConfig+0x278>
        {
          return HAL_TIMEOUT;
 8005fe2:	2303      	movs	r3, #3
 8005fe4:	e146      	b.n	8006274 <HAL_RCC_OscConfig+0x4f8>
 8005fe6:	bf00      	nop
 8005fe8:	40021000 	.word	0x40021000
 8005fec:	42420000 	.word	0x42420000
 8005ff0:	42420480 	.word	0x42420480
      while (__HAL_RCC_GET_FLAG(RCC_FLAG_LSIRDY) != RESET)
 8005ff4:	4b92      	ldr	r3, [pc, #584]	@ (8006240 <HAL_RCC_OscConfig+0x4c4>)
 8005ff6:	6a5b      	ldr	r3, [r3, #36]	@ 0x24
 8005ff8:	f003 0302 	and.w	r3, r3, #2
 8005ffc:	2b00      	cmp	r3, #0
 8005ffe:	d1e9      	bne.n	8005fd4 <HAL_RCC_OscConfig+0x258>
        }
      }
    }
  }
  /*------------------------------ LSE Configuration -------------------------*/
  if (((RCC_OscInitStruct->OscillatorType) & RCC_OSCILLATORTYPE_LSE) == RCC_OSCILLATORTYPE_LSE)
 8006000:	687b      	ldr	r3, [r7, #4]
 8006002:	681b      	ldr	r3, [r3, #0]
 8006004:	f003 0304 	and.w	r3, r3, #4
 8006008:	2b00      	cmp	r3, #0
 800600a:	f000 80a6 	beq.w	800615a <HAL_RCC_OscConfig+0x3de>
  {
    FlagStatus       pwrclkchanged = RESET;
 800600e:	2300      	movs	r3, #0
 8006010:	75fb      	strb	r3, [r7, #23]
    /* Check the parameters */
    assert_param(IS_RCC_LSE(RCC_OscInitStruct->LSEState));

    /* Update LSE configuration in Backup Domain control register    */
    /* Requires to enable write access to Backup Domain of necessary */
    if (__HAL_RCC_PWR_IS_CLK_DISABLED())
 8006012:	4b8b      	ldr	r3, [pc, #556]	@ (8006240 <HAL_RCC_OscConfig+0x4c4>)
 8006014:	69db      	ldr	r3, [r3, #28]
 8006016:	f003 5380 	and.w	r3, r3, #268435456	@ 0x10000000
 800601a:	2b00      	cmp	r3, #0
 800601c:	d10d      	bne.n	800603a <HAL_RCC_OscConfig+0x2be>
    {
      __HAL_RCC_PWR_CLK_ENABLE();
 800601e:	4b88      	ldr	r3, [pc, #544]	@ (8006240 <HAL_RCC_OscConfig+0x4c4>)
 8006020:	69db      	ldr	r3, [r3, #28]
 8006022:	4a87      	ldr	r2, [pc, #540]	@ (8006240 <HAL_RCC_OscConfig+0x4c4>)
 8006024:	f043 5380 	orr.w	r3, r3, #268435456	@ 0x10000000
 8006028:	61d3      	str	r3, [r2, #28]
 800602a:	4b85      	ldr	r3, [pc, #532]	@ (8006240 <HAL_RCC_OscConfig+0x4c4>)
 800602c:	69db      	ldr	r3, [r3, #28]
 800602e:	f003 5380 	and.w	r3, r3, #268435456	@ 0x10000000
 8006032:	60bb      	str	r3, [r7, #8]
 8006034:	68bb      	ldr	r3, [r7, #8]
      pwrclkchanged = SET;
 8006036:	2301      	movs	r3, #1
 8006038:	75fb      	strb	r3, [r7, #23]
    }

    if (HAL_IS_BIT_CLR(PWR->CR, PWR_CR_DBP))
 800603a:	4b82      	ldr	r3, [pc, #520]	@ (8006244 <HAL_RCC_OscConfig+0x4c8>)
 800603c:	681b      	ldr	r3, [r3, #0]
 800603e:	f403 7380 	and.w	r3, r3, #256	@ 0x100
 8006042:	2b00      	cmp	r3, #0
 8006044:	d118      	bne.n	8006078 <HAL_RCC_OscConfig+0x2fc>
    {
      /* Enable write access to Backup domain */
      SET_BIT(PWR->CR, PWR_CR_DBP);
 8006046:	4b7f      	ldr	r3, [pc, #508]	@ (8006244 <HAL_RCC_OscConfig+0x4c8>)
 8006048:	681b      	ldr	r3, [r3, #0]
 800604a:	4a7e      	ldr	r2, [pc, #504]	@ (8006244 <HAL_RCC_OscConfig+0x4c8>)
 800604c:	f443 7380 	orr.w	r3, r3, #256	@ 0x100
 8006050:	6013      	str	r3, [r2, #0]

      /* Wait for Backup domain Write protection disable */
      tickstart = HAL_GetTick();
 8006052:	f7fd fe4d 	bl	8003cf0 <HAL_GetTick>
 8006056:	6138      	str	r0, [r7, #16]

      while (HAL_IS_BIT_CLR(PWR->CR, PWR_CR_DBP))
 8006058:	e008      	b.n	800606c <HAL_RCC_OscConfig+0x2f0>
      {
        if ((HAL_GetTick() - tickstart) > RCC_DBP_TIMEOUT_VALUE)
 800605a:	f7fd fe49 	bl	8003cf0 <HAL_GetTick>
 800605e:	4602      	mov	r2, r0
 8006060:	693b      	ldr	r3, [r7, #16]
 8006062:	1ad3      	subs	r3, r2, r3
 8006064:	2b64      	cmp	r3, #100	@ 0x64
 8006066:	d901      	bls.n	800606c <HAL_RCC_OscConfig+0x2f0>
        {
          return HAL_TIMEOUT;
 8006068:	2303      	movs	r3, #3
 800606a:	e103      	b.n	8006274 <HAL_RCC_OscConfig+0x4f8>
      while (HAL_IS_BIT_CLR(PWR->CR, PWR_CR_DBP))
 800606c:	4b75      	ldr	r3, [pc, #468]	@ (8006244 <HAL_RCC_OscConfig+0x4c8>)
 800606e:	681b      	ldr	r3, [r3, #0]
 8006070:	f403 7380 	and.w	r3, r3, #256	@ 0x100
 8006074:	2b00      	cmp	r3, #0
 8006076:	d0f0      	beq.n	800605a <HAL_RCC_OscConfig+0x2de>
        }
      }
    }

    /* Set the new LSE configuration -----------------------------------------*/
    __HAL_RCC_LSE_CONFIG(RCC_OscInitStruct->LSEState);
 8006078:	687b      	ldr	r3, [r7, #4]
 800607a:	68db      	ldr	r3, [r3, #12]
 800607c:	2b01      	cmp	r3, #1
 800607e:	d106      	bne.n	800608e <HAL_RCC_OscConfig+0x312>
 8006080:	4b6f      	ldr	r3, [pc, #444]	@ (8006240 <HAL_RCC_OscConfig+0x4c4>)
 8006082:	6a1b      	ldr	r3, [r3, #32]
 8006084:	4a6e      	ldr	r2, [pc, #440]	@ (8006240 <HAL_RCC_OscConfig+0x4c4>)
 8006086:	f043 0301 	orr.w	r3, r3, #1
 800608a:	6213      	str	r3, [r2, #32]
 800608c:	e02d      	b.n	80060ea <HAL_RCC_OscConfig+0x36e>
 800608e:	687b      	ldr	r3, [r7, #4]
 8006090:	68db      	ldr	r3, [r3, #12]
 8006092:	2b00      	cmp	r3, #0
 8006094:	d10c      	bne.n	80060b0 <HAL_RCC_OscConfig+0x334>
 8006096:	4b6a      	ldr	r3, [pc, #424]	@ (8006240 <HAL_RCC_OscConfig+0x4c4>)
 8006098:	6a1b      	ldr	r3, [r3, #32]
 800609a:	4a69      	ldr	r2, [pc, #420]	@ (8006240 <HAL_RCC_OscConfig+0x4c4>)
 800609c:	f023 0301 	bic.w	r3, r3, #1
 80060a0:	6213      	str	r3, [r2, #32]
 80060a2:	4b67      	ldr	r3, [pc, #412]	@ (8006240 <HAL_RCC_OscConfig+0x4c4>)
 80060a4:	6a1b      	ldr	r3, [r3, #32]
 80060a6:	4a66      	ldr	r2, [pc, #408]	@ (8006240 <HAL_RCC_OscConfig+0x4c4>)
 80060a8:	f023 0304 	bic.w	r3, r3, #4
 80060ac:	6213      	str	r3, [r2, #32]
 80060ae:	e01c      	b.n	80060ea <HAL_RCC_OscConfig+0x36e>
 80060b0:	687b      	ldr	r3, [r7, #4]
 80060b2:	68db      	ldr	r3, [r3, #12]
 80060b4:	2b05      	cmp	r3, #5
 80060b6:	d10c      	bne.n	80060d2 <HAL_RCC_OscConfig+0x356>
 80060b8:	4b61      	ldr	r3, [pc, #388]	@ (8006240 <HAL_RCC_OscConfig+0x4c4>)
 80060ba:	6a1b      	ldr	r3, [r3, #32]
 80060bc:	4a60      	ldr	r2, [pc, #384]	@ (8006240 <HAL_RCC_OscConfig+0x4c4>)
 80060be:	f043 0304 	orr.w	r3, r3, #4
 80060c2:	6213      	str	r3, [r2, #32]
 80060c4:	4b5e      	ldr	r3, [pc, #376]	@ (8006240 <HAL_RCC_OscConfig+0x4c4>)
 80060c6:	6a1b      	ldr	r3, [r3, #32]
 80060c8:	4a5d      	ldr	r2, [pc, #372]	@ (8006240 <HAL_RCC_OscConfig+0x4c4>)
 80060ca:	f043 0301 	orr.w	r3, r3, #1
 80060ce:	6213      	str	r3, [r2, #32]
 80060d0:	e00b      	b.n	80060ea <HAL_RCC_OscConfig+0x36e>
 80060d2:	4b5b      	ldr	r3, [pc, #364]	@ (8006240 <HAL_RCC_OscConfig+0x4c4>)
 80060d4:	6a1b      	ldr	r3, [r3, #32]
 80060d6:	4a5a      	ldr	r2, [pc, #360]	@ (8006240 <HAL_RCC_OscConfig+0x4c4>)
 80060d8:	f023 0301 	bic.w	r3, r3, #1
 80060dc:	6213      	str	r3, [r2, #32]
 80060de:	4b58      	ldr	r3, [pc, #352]	@ (8006240 <HAL_RCC_OscConfig+0x4c4>)
 80060e0:	6a1b      	ldr	r3, [r3, #32]
 80060e2:	4a57      	ldr	r2, [pc, #348]	@ (8006240 <HAL_RCC_OscConfig+0x4c4>)
 80060e4:	f023 0304 	bic.w	r3, r3, #4
 80060e8:	6213      	str	r3, [r2, #32]
    /* Check the LSE State */
    if (RCC_OscInitStruct->LSEState != RCC_LSE_OFF)
 80060ea:	687b      	ldr	r3, [r7, #4]
 80060ec:	68db      	ldr	r3, [r3, #12]
 80060ee:	2b00      	cmp	r3, #0
 80060f0:	d015      	beq.n	800611e <HAL_RCC_OscConfig+0x3a2>
    {
      /* Get Start Tick */
      tickstart = HAL_GetTick();
 80060f2:	f7fd fdfd 	bl	8003cf0 <HAL_GetTick>
 80060f6:	6138      	str	r0, [r7, #16]

      /* Wait till LSE is ready */
      while (__HAL_RCC_GET_FLAG(RCC_FLAG_LSERDY) == RESET)
 80060f8:	e00a      	b.n	8006110 <HAL_RCC_OscConfig+0x394>
      {
        if ((HAL_GetTick() - tickstart) > RCC_LSE_TIMEOUT_VALUE)
 80060fa:	f7fd fdf9 	bl	8003cf0 <HAL_GetTick>
 80060fe:	4602      	mov	r2, r0
 8006100:	693b      	ldr	r3, [r7, #16]
 8006102:	1ad3      	subs	r3, r2, r3
 8006104:	f241 3288 	movw	r2, #5000	@ 0x1388
 8006108:	4293      	cmp	r3, r2
 800610a:	d901      	bls.n	8006110 <HAL_RCC_OscConfig+0x394>
        {
          return HAL_TIMEOUT;
 800610c:	2303      	movs	r3, #3
 800610e:	e0b1      	b.n	8006274 <HAL_RCC_OscConfig+0x4f8>
      while (__HAL_RCC_GET_FLAG(RCC_FLAG_LSERDY) == RESET)
 8006110:	4b4b      	ldr	r3, [pc, #300]	@ (8006240 <HAL_RCC_OscConfig+0x4c4>)
 8006112:	6a1b      	ldr	r3, [r3, #32]
 8006114:	f003 0302 	and.w	r3, r3, #2
 8006118:	2b00      	cmp	r3, #0
 800611a:	d0ee      	beq.n	80060fa <HAL_RCC_OscConfig+0x37e>
 800611c:	e014      	b.n	8006148 <HAL_RCC_OscConfig+0x3cc>
      }
    }
    else
    {
      /* Get Start Tick */
      tickstart = HAL_GetTick();
 800611e:	f7fd fde7 	bl	8003cf0 <HAL_GetTick>
 8006122:	6138      	str	r0, [r7, #16]

      /* Wait till LSE is disabled */
      while (__HAL_RCC_GET_FLAG(RCC_FLAG_LSERDY) != RESET)
 8006124:	e00a      	b.n	800613c <HAL_RCC_OscConfig+0x3c0>
      {
        if ((HAL_GetTick() - tickstart) > RCC_LSE_TIMEOUT_VALUE)
 8006126:	f7fd fde3 	bl	8003cf0 <HAL_GetTick>
 800612a:	4602      	mov	r2, r0
 800612c:	693b      	ldr	r3, [r7, #16]
 800612e:	1ad3      	subs	r3, r2, r3
 8006130:	f241 3288 	movw	r2, #5000	@ 0x1388
 8006134:	4293      	cmp	r3, r2
 8006136:	d901      	bls.n	800613c <HAL_RCC_OscConfig+0x3c0>
        {
          return HAL_TIMEOUT;
 8006138:	2303      	movs	r3, #3
 800613a:	e09b      	b.n	8006274 <HAL_RCC_OscConfig+0x4f8>
      while (__HAL_RCC_GET_FLAG(RCC_FLAG_LSERDY) != RESET)
 800613c:	4b40      	ldr	r3, [pc, #256]	@ (8006240 <HAL_RCC_OscConfig+0x4c4>)
 800613e:	6a1b      	ldr	r3, [r3, #32]
 8006140:	f003 0302 	and.w	r3, r3, #2
 8006144:	2b00      	cmp	r3, #0
 8006146:	d1ee      	bne.n	8006126 <HAL_RCC_OscConfig+0x3aa>
        }
      }
    }

    /* Require to disable power clock if necessary */
    if (pwrclkchanged == SET)
 8006148:	7dfb      	ldrb	r3, [r7, #23]
 800614a:	2b01      	cmp	r3, #1
 800614c:	d105      	bne.n	800615a <HAL_RCC_OscConfig+0x3de>
    {
      __HAL_RCC_PWR_CLK_DISABLE();
 800614e:	4b3c      	ldr	r3, [pc, #240]	@ (8006240 <HAL_RCC_OscConfig+0x4c4>)
 8006150:	69db      	ldr	r3, [r3, #28]
 8006152:	4a3b      	ldr	r2, [pc, #236]	@ (8006240 <HAL_RCC_OscConfig+0x4c4>)
 8006154:	f023 5380 	bic.w	r3, r3, #268435456	@ 0x10000000
 8006158:	61d3      	str	r3, [r2, #28]

#endif /* RCC_CR_PLL2ON */
  /*-------------------------------- PLL Configuration -----------------------*/
  /* Check the parameters */
  assert_param(IS_RCC_PLL(RCC_OscInitStruct->PLL.PLLState));
  if ((RCC_OscInitStruct->PLL.PLLState) != RCC_PLL_NONE)
 800615a:	687b      	ldr	r3, [r7, #4]
 800615c:	69db      	ldr	r3, [r3, #28]
 800615e:	2b00      	cmp	r3, #0
 8006160:	f000 8087 	beq.w	8006272 <HAL_RCC_OscConfig+0x4f6>
  {
    /* Check if the PLL is used as system clock or not */
    if (__HAL_RCC_GET_SYSCLK_SOURCE() != RCC_SYSCLKSOURCE_STATUS_PLLCLK)
 8006164:	4b36      	ldr	r3, [pc, #216]	@ (8006240 <HAL_RCC_OscConfig+0x4c4>)
 8006166:	685b      	ldr	r3, [r3, #4]
 8006168:	f003 030c 	and.w	r3, r3, #12
 800616c:	2b08      	cmp	r3, #8
 800616e:	d061      	beq.n	8006234 <HAL_RCC_OscConfig+0x4b8>
    {
      if ((RCC_OscInitStruct->PLL.PLLState) == RCC_PLL_ON)
 8006170:	687b      	ldr	r3, [r7, #4]
 8006172:	69db      	ldr	r3, [r3, #28]
 8006174:	2b02      	cmp	r3, #2
 8006176:	d146      	bne.n	8006206 <HAL_RCC_OscConfig+0x48a>
        /* Check the parameters */
        assert_param(IS_RCC_PLLSOURCE(RCC_OscInitStruct->PLL.PLLSource));
        assert_param(IS_RCC_PLL_MUL(RCC_OscInitStruct->PLL.PLLMUL));

        /* Disable the main PLL. */
        __HAL_RCC_PLL_DISABLE();
 8006178:	4b33      	ldr	r3, [pc, #204]	@ (8006248 <HAL_RCC_OscConfig+0x4cc>)
 800617a:	2200      	movs	r2, #0
 800617c:	601a      	str	r2, [r3, #0]

        /* Get Start Tick */
        tickstart = HAL_GetTick();
 800617e:	f7fd fdb7 	bl	8003cf0 <HAL_GetTick>
 8006182:	6138      	str	r0, [r7, #16]

        /* Wait till PLL is disabled */
        while (__HAL_RCC_GET_FLAG(RCC_FLAG_PLLRDY)  != RESET)
 8006184:	e008      	b.n	8006198 <HAL_RCC_OscConfig+0x41c>
        {
          if ((HAL_GetTick() - tickstart) > PLL_TIMEOUT_VALUE)
 8006186:	f7fd fdb3 	bl	8003cf0 <HAL_GetTick>
 800618a:	4602      	mov	r2, r0
 800618c:	693b      	ldr	r3, [r7, #16]
 800618e:	1ad3      	subs	r3, r2, r3
 8006190:	2b02      	cmp	r3, #2
 8006192:	d901      	bls.n	8006198 <HAL_RCC_OscConfig+0x41c>
          {
            return HAL_TIMEOUT;
 8006194:	2303      	movs	r3, #3
 8006196:	e06d      	b.n	8006274 <HAL_RCC_OscConfig+0x4f8>
        while (__HAL_RCC_GET_FLAG(RCC_FLAG_PLLRDY)  != RESET)
 8006198:	4b29      	ldr	r3, [pc, #164]	@ (8006240 <HAL_RCC_OscConfig+0x4c4>)
 800619a:	681b      	ldr	r3, [r3, #0]
 800619c:	f003 7300 	and.w	r3, r3, #33554432	@ 0x2000000
 80061a0:	2b00      	cmp	r3, #0
 80061a2:	d1f0      	bne.n	8006186 <HAL_RCC_OscConfig+0x40a>
          }
        }

        /* Configure the HSE prediv factor --------------------------------*/
        /* It can be written only when the PLL is disabled. Not used in PLL source is different than HSE */
        if (RCC_OscInitStruct->PLL.PLLSource == RCC_PLLSOURCE_HSE)
 80061a4:	687b      	ldr	r3, [r7, #4]
 80061a6:	6a1b      	ldr	r3, [r3, #32]
 80061a8:	f5b3 3f80 	cmp.w	r3, #65536	@ 0x10000
 80061ac:	d108      	bne.n	80061c0 <HAL_RCC_OscConfig+0x444>
          /* Set PREDIV1 source */
          SET_BIT(RCC->CFGR2, RCC_OscInitStruct->Prediv1Source);
#endif /* RCC_CFGR2_PREDIV1SRC */

          /* Set PREDIV1 Value */
          __HAL_RCC_HSE_PREDIV_CONFIG(RCC_OscInitStruct->HSEPredivValue);
 80061ae:	4b24      	ldr	r3, [pc, #144]	@ (8006240 <HAL_RCC_OscConfig+0x4c4>)
 80061b0:	685b      	ldr	r3, [r3, #4]
 80061b2:	f423 3200 	bic.w	r2, r3, #131072	@ 0x20000
 80061b6:	687b      	ldr	r3, [r7, #4]
 80061b8:	689b      	ldr	r3, [r3, #8]
 80061ba:	4921      	ldr	r1, [pc, #132]	@ (8006240 <HAL_RCC_OscConfig+0x4c4>)
 80061bc:	4313      	orrs	r3, r2
 80061be:	604b      	str	r3, [r1, #4]
        }

        /* Configure the main PLL clock source and multiplication factors. */
        __HAL_RCC_PLL_CONFIG(RCC_OscInitStruct->PLL.PLLSource,
 80061c0:	4b1f      	ldr	r3, [pc, #124]	@ (8006240 <HAL_RCC_OscConfig+0x4c4>)
 80061c2:	685b      	ldr	r3, [r3, #4]
 80061c4:	f423 1274 	bic.w	r2, r3, #3997696	@ 0x3d0000
 80061c8:	687b      	ldr	r3, [r7, #4]
 80061ca:	6a19      	ldr	r1, [r3, #32]
 80061cc:	687b      	ldr	r3, [r7, #4]
 80061ce:	6a5b      	ldr	r3, [r3, #36]	@ 0x24
 80061d0:	430b      	orrs	r3, r1
 80061d2:	491b      	ldr	r1, [pc, #108]	@ (8006240 <HAL_RCC_OscConfig+0x4c4>)
 80061d4:	4313      	orrs	r3, r2
 80061d6:	604b      	str	r3, [r1, #4]
                             RCC_OscInitStruct->PLL.PLLMUL);
        /* Enable the main PLL. */
        __HAL_RCC_PLL_ENABLE();
 80061d8:	4b1b      	ldr	r3, [pc, #108]	@ (8006248 <HAL_RCC_OscConfig+0x4cc>)
 80061da:	2201      	movs	r2, #1
 80061dc:	601a      	str	r2, [r3, #0]

        /* Get Start Tick */
        tickstart = HAL_GetTick();
 80061de:	f7fd fd87 	bl	8003cf0 <HAL_GetTick>
 80061e2:	6138      	str	r0, [r7, #16]

        /* Wait till PLL is ready */
        while (__HAL_RCC_GET_FLAG(RCC_FLAG_PLLRDY)  == RESET)
 80061e4:	e008      	b.n	80061f8 <HAL_RCC_OscConfig+0x47c>
        {
          if ((HAL_GetTick() - tickstart) > PLL_TIMEOUT_VALUE)
 80061e6:	f7fd fd83 	bl	8003cf0 <HAL_GetTick>
 80061ea:	4602      	mov	r2, r0
 80061ec:	693b      	ldr	r3, [r7, #16]
 80061ee:	1ad3      	subs	r3, r2, r3
 80061f0:	2b02      	cmp	r3, #2
 80061f2:	d901      	bls.n	80061f8 <HAL_RCC_OscConfig+0x47c>
          {
            return HAL_TIMEOUT;
 80061f4:	2303      	movs	r3, #3
 80061f6:	e03d      	b.n	8006274 <HAL_RCC_OscConfig+0x4f8>
        while (__HAL_RCC_GET_FLAG(RCC_FLAG_PLLRDY)  == RESET)
 80061f8:	4b11      	ldr	r3, [pc, #68]	@ (8006240 <HAL_RCC_OscConfig+0x4c4>)
 80061fa:	681b      	ldr	r3, [r3, #0]
 80061fc:	f003 7300 	and.w	r3, r3, #33554432	@ 0x2000000
 8006200:	2b00      	cmp	r3, #0
 8006202:	d0f0      	beq.n	80061e6 <HAL_RCC_OscConfig+0x46a>
 8006204:	e035      	b.n	8006272 <HAL_RCC_OscConfig+0x4f6>
        }
      }
      else
      {
        /* Disable the main PLL. */
        __HAL_RCC_PLL_DISABLE();
 8006206:	4b10      	ldr	r3, [pc, #64]	@ (8006248 <HAL_RCC_OscConfig+0x4cc>)
 8006208:	2200      	movs	r2, #0
 800620a:	601a      	str	r2, [r3, #0]

        /* Get Start Tick */
        tickstart = HAL_GetTick();
 800620c:	f7fd fd70 	bl	8003cf0 <HAL_GetTick>
 8006210:	6138      	str	r0, [r7, #16]

        /* Wait till PLL is disabled */
        while (__HAL_RCC_GET_FLAG(RCC_FLAG_PLLRDY)  != RESET)
 8006212:	e008      	b.n	8006226 <HAL_RCC_OscConfig+0x4aa>
        {
          if ((HAL_GetTick() - tickstart) > PLL_TIMEOUT_VALUE)
 8006214:	f7fd fd6c 	bl	8003cf0 <HAL_GetTick>
 8006218:	4602      	mov	r2, r0
 800621a:	693b      	ldr	r3, [r7, #16]
 800621c:	1ad3      	subs	r3, r2, r3
 800621e:	2b02      	cmp	r3, #2
 8006220:	d901      	bls.n	8006226 <HAL_RCC_OscConfig+0x4aa>
          {
            return HAL_TIMEOUT;
 8006222:	2303      	movs	r3, #3
 8006224:	e026      	b.n	8006274 <HAL_RCC_OscConfig+0x4f8>
        while (__HAL_RCC_GET_FLAG(RCC_FLAG_PLLRDY)  != RESET)
 8006226:	4b06      	ldr	r3, [pc, #24]	@ (8006240 <HAL_RCC_OscConfig+0x4c4>)
 8006228:	681b      	ldr	r3, [r3, #0]
 800622a:	f003 7300 	and.w	r3, r3, #33554432	@ 0x2000000
 800622e:	2b00      	cmp	r3, #0
 8006230:	d1f0      	bne.n	8006214 <HAL_RCC_OscConfig+0x498>
 8006232:	e01e      	b.n	8006272 <HAL_RCC_OscConfig+0x4f6>
      }
    }
    else
    {
      /* Check if there is a request to disable the PLL used as System clock source */
      if ((RCC_OscInitStruct->PLL.PLLState) == RCC_PLL_OFF)
 8006234:	687b      	ldr	r3, [r7, #4]
 8006236:	69db      	ldr	r3, [r3, #28]
 8006238:	2b01      	cmp	r3, #1
 800623a:	d107      	bne.n	800624c <HAL_RCC_OscConfig+0x4d0>
      {
        return HAL_ERROR;
 800623c:	2301      	movs	r3, #1
 800623e:	e019      	b.n	8006274 <HAL_RCC_OscConfig+0x4f8>
 8006240:	40021000 	.word	0x40021000
 8006244:	40007000 	.word	0x40007000
 8006248:	42420060 	.word	0x42420060
      }
      else
      {
        /* Do not return HAL_ERROR if request repeats the current configuration */
        pll_config = RCC->CFGR;
 800624c:	4b0b      	ldr	r3, [pc, #44]	@ (800627c <HAL_RCC_OscConfig+0x500>)
 800624e:	685b      	ldr	r3, [r3, #4]
 8006250:	60fb      	str	r3, [r7, #12]
        if ((READ_BIT(pll_config, RCC_CFGR_PLLSRC) != RCC_OscInitStruct->PLL.PLLSource) ||
 8006252:	68fb      	ldr	r3, [r7, #12]
 8006254:	f403 3280 	and.w	r2, r3, #65536	@ 0x10000
 8006258:	687b      	ldr	r3, [r7, #4]
 800625a:	6a1b      	ldr	r3, [r3, #32]
 800625c:	429a      	cmp	r2, r3
 800625e:	d106      	bne.n	800626e <HAL_RCC_OscConfig+0x4f2>
            (READ_BIT(pll_config, RCC_CFGR_PLLMULL) != RCC_OscInitStruct->PLL.PLLMUL))
 8006260:	68fb      	ldr	r3, [r7, #12]
 8006262:	f403 1270 	and.w	r2, r3, #3932160	@ 0x3c0000
 8006266:	687b      	ldr	r3, [r7, #4]
 8006268:	6a5b      	ldr	r3, [r3, #36]	@ 0x24
        if ((READ_BIT(pll_config, RCC_CFGR_PLLSRC) != RCC_OscInitStruct->PLL.PLLSource) ||
 800626a:	429a      	cmp	r2, r3
 800626c:	d001      	beq.n	8006272 <HAL_RCC_OscConfig+0x4f6>
        {
          return HAL_ERROR;
 800626e:	2301      	movs	r3, #1
 8006270:	e000      	b.n	8006274 <HAL_RCC_OscConfig+0x4f8>
        }
      }
    }
  }

  return HAL_OK;
 8006272:	2300      	movs	r3, #0
}
 8006274:	4618      	mov	r0, r3
 8006276:	3718      	adds	r7, #24
 8006278:	46bd      	mov	sp, r7
 800627a:	bd80      	pop	{r7, pc}
 800627c:	40021000 	.word	0x40021000

08006280 <HAL_RCC_ClockConfig>:
  *         You can use @ref HAL_RCC_GetClockConfig() function to know which clock is
  *         currently used as system clock source.
  * @retval HAL status
  */
HAL_StatusTypeDef HAL_RCC_ClockConfig(RCC_ClkInitTypeDef  *RCC_ClkInitStruct, uint32_t FLatency)
{
 8006280:	b580      	push	{r7, lr}
 8006282:	b084      	sub	sp, #16
 8006284:	af00      	add	r7, sp, #0
 8006286:	6078      	str	r0, [r7, #4]
 8006288:	6039      	str	r1, [r7, #0]
  uint32_t tickstart;

  /* Check Null pointer */
  if (RCC_ClkInitStruct == NULL)
 800628a:	687b      	ldr	r3, [r7, #4]
 800628c:	2b00      	cmp	r3, #0
 800628e:	d101      	bne.n	8006294 <HAL_RCC_ClockConfig+0x14>
  {
    return HAL_ERROR;
 8006290:	2301      	movs	r3, #1
 8006292:	e0d0      	b.n	8006436 <HAL_RCC_ClockConfig+0x1b6>
  must be correctly programmed according to the frequency of the CPU clock
    (HCLK) of the device. */

#if defined(FLASH_ACR_LATENCY)
  /* Increasing the number of wait states because of higher CPU frequency */
  if (FLatency > __HAL_FLASH_GET_LATENCY())
 8006294:	4b6a      	ldr	r3, [pc, #424]	@ (8006440 <HAL_RCC_ClockConfig+0x1c0>)
 8006296:	681b      	ldr	r3, [r3, #0]
 8006298:	f003 0307 	and.w	r3, r3, #7
 800629c:	683a      	ldr	r2, [r7, #0]
 800629e:	429a      	cmp	r2, r3
 80062a0:	d910      	bls.n	80062c4 <HAL_RCC_ClockConfig+0x44>
  {
    /* Program the new number of wait states to the LATENCY bits in the FLASH_ACR register */
    __HAL_FLASH_SET_LATENCY(FLatency);
 80062a2:	4b67      	ldr	r3, [pc, #412]	@ (8006440 <HAL_RCC_ClockConfig+0x1c0>)
 80062a4:	681b      	ldr	r3, [r3, #0]
 80062a6:	f023 0207 	bic.w	r2, r3, #7
 80062aa:	4965      	ldr	r1, [pc, #404]	@ (8006440 <HAL_RCC_ClockConfig+0x1c0>)
 80062ac:	683b      	ldr	r3, [r7, #0]
 80062ae:	4313      	orrs	r3, r2
 80062b0:	600b      	str	r3, [r1, #0]

    /* Check that the new number of wait states is taken into account to access the Flash
    memory by reading the FLASH_ACR register */
    if (__HAL_FLASH_GET_LATENCY() != FLatency)
 80062b2:	4b63      	ldr	r3, [pc, #396]	@ (8006440 <HAL_RCC_ClockConfig+0x1c0>)
 80062b4:	681b      	ldr	r3, [r3, #0]
 80062b6:	f003 0307 	and.w	r3, r3, #7
 80062ba:	683a      	ldr	r2, [r7, #0]
 80062bc:	429a      	cmp	r2, r3
 80062be:	d001      	beq.n	80062c4 <HAL_RCC_ClockConfig+0x44>
  {
    return HAL_ERROR;
 80062c0:	2301      	movs	r3, #1
 80062c2:	e0b8      	b.n	8006436 <HAL_RCC_ClockConfig+0x1b6>
  }
}

#endif /* FLASH_ACR_LATENCY */
/*-------------------------- HCLK Configuration --------------------------*/
if (((RCC_ClkInitStruct->ClockType) & RCC_CLOCKTYPE_HCLK) == RCC_CLOCKTYPE_HCLK)
 80062c4:	687b      	ldr	r3, [r7, #4]
 80062c6:	681b      	ldr	r3, [r3, #0]
 80062c8:	f003 0302 	and.w	r3, r3, #2
 80062cc:	2b00      	cmp	r3, #0
 80062ce:	d020      	beq.n	8006312 <HAL_RCC_ClockConfig+0x92>
  {
    /* Set the highest APBx dividers in order to ensure that we do not go through
    a non-spec phase whatever we decrease or increase HCLK. */
    if (((RCC_ClkInitStruct->ClockType) & RCC_CLOCKTYPE_PCLK1) == RCC_CLOCKTYPE_PCLK1)
 80062d0:	687b      	ldr	r3, [r7, #4]
 80062d2:	681b      	ldr	r3, [r3, #0]
 80062d4:	f003 0304 	and.w	r3, r3, #4
 80062d8:	2b00      	cmp	r3, #0
 80062da:	d005      	beq.n	80062e8 <HAL_RCC_ClockConfig+0x68>
    {
      MODIFY_REG(RCC->CFGR, RCC_CFGR_PPRE1, RCC_HCLK_DIV16);
 80062dc:	4b59      	ldr	r3, [pc, #356]	@ (8006444 <HAL_RCC_ClockConfig+0x1c4>)
 80062de:	685b      	ldr	r3, [r3, #4]
 80062e0:	4a58      	ldr	r2, [pc, #352]	@ (8006444 <HAL_RCC_ClockConfig+0x1c4>)
 80062e2:	f443 63e0 	orr.w	r3, r3, #1792	@ 0x700
 80062e6:	6053      	str	r3, [r2, #4]
    }

    if (((RCC_ClkInitStruct->ClockType) & RCC_CLOCKTYPE_PCLK2) == RCC_CLOCKTYPE_PCLK2)
 80062e8:	687b      	ldr	r3, [r7, #4]
 80062ea:	681b      	ldr	r3, [r3, #0]
 80062ec:	f003 0308 	and.w	r3, r3, #8
 80062f0:	2b00      	cmp	r3, #0
 80062f2:	d005      	beq.n	8006300 <HAL_RCC_ClockConfig+0x80>
    {
      MODIFY_REG(RCC->CFGR, RCC_CFGR_PPRE2, (RCC_HCLK_DIV16 << 3));
 80062f4:	4b53      	ldr	r3, [pc, #332]	@ (8006444 <HAL_RCC_ClockConfig+0x1c4>)
 80062f6:	685b      	ldr	r3, [r3, #4]
 80062f8:	4a52      	ldr	r2, [pc, #328]	@ (8006444 <HAL_RCC_ClockConfig+0x1c4>)
 80062fa:	f443 5360 	orr.w	r3, r3, #14336	@ 0x3800
 80062fe:	6053      	str	r3, [r2, #4]
    }

    /* Set the new HCLK clock divider */
    assert_param(IS_RCC_HCLK(RCC_ClkInitStruct->AHBCLKDivider));
    MODIFY_REG(RCC->CFGR, RCC_CFGR_HPRE, RCC_ClkInitStruct->AHBCLKDivider);
 8006300:	4b50      	ldr	r3, [pc, #320]	@ (8006444 <HAL_RCC_ClockConfig+0x1c4>)
 8006302:	685b      	ldr	r3, [r3, #4]
 8006304:	f023 02f0 	bic.w	r2, r3, #240	@ 0xf0
 8006308:	687b      	ldr	r3, [r7, #4]
 800630a:	689b      	ldr	r3, [r3, #8]
 800630c:	494d      	ldr	r1, [pc, #308]	@ (8006444 <HAL_RCC_ClockConfig+0x1c4>)
 800630e:	4313      	orrs	r3, r2
 8006310:	604b      	str	r3, [r1, #4]
  }

  /*------------------------- SYSCLK Configuration ---------------------------*/
  if (((RCC_ClkInitStruct->ClockType) & RCC_CLOCKTYPE_SYSCLK) == RCC_CLOCKTYPE_SYSCLK)
 8006312:	687b      	ldr	r3, [r7, #4]
 8006314:	681b      	ldr	r3, [r3, #0]
 8006316:	f003 0301 	and.w	r3, r3, #1
 800631a:	2b00      	cmp	r3, #0
 800631c:	d040      	beq.n	80063a0 <HAL_RCC_ClockConfig+0x120>
  {
    assert_param(IS_RCC_SYSCLKSOURCE(RCC_ClkInitStruct->SYSCLKSource));

    /* HSE is selected as System Clock Source */
    if (RCC_ClkInitStruct->SYSCLKSource == RCC_SYSCLKSOURCE_HSE)
 800631e:	687b      	ldr	r3, [r7, #4]
 8006320:	685b      	ldr	r3, [r3, #4]
 8006322:	2b01      	cmp	r3, #1
 8006324:	d107      	bne.n	8006336 <HAL_RCC_ClockConfig+0xb6>
    {
      /* Check the HSE ready flag */
      if (__HAL_RCC_GET_FLAG(RCC_FLAG_HSERDY) == RESET)
 8006326:	4b47      	ldr	r3, [pc, #284]	@ (8006444 <HAL_RCC_ClockConfig+0x1c4>)
 8006328:	681b      	ldr	r3, [r3, #0]
 800632a:	f403 3300 	and.w	r3, r3, #131072	@ 0x20000
 800632e:	2b00      	cmp	r3, #0
 8006330:	d115      	bne.n	800635e <HAL_RCC_ClockConfig+0xde>
      {
        return HAL_ERROR;
 8006332:	2301      	movs	r3, #1
 8006334:	e07f      	b.n	8006436 <HAL_RCC_ClockConfig+0x1b6>
      }
    }
    /* PLL is selected as System Clock Source */
    else if (RCC_ClkInitStruct->SYSCLKSource == RCC_SYSCLKSOURCE_PLLCLK)
 8006336:	687b      	ldr	r3, [r7, #4]
 8006338:	685b      	ldr	r3, [r3, #4]
 800633a:	2b02      	cmp	r3, #2
 800633c:	d107      	bne.n	800634e <HAL_RCC_ClockConfig+0xce>
    {
      /* Check the PLL ready flag */
      if (__HAL_RCC_GET_FLAG(RCC_FLAG_PLLRDY) == RESET)
 800633e:	4b41      	ldr	r3, [pc, #260]	@ (8006444 <HAL_RCC_ClockConfig+0x1c4>)
 8006340:	681b      	ldr	r3, [r3, #0]
 8006342:	f003 7300 	and.w	r3, r3, #33554432	@ 0x2000000
 8006346:	2b00      	cmp	r3, #0
 8006348:	d109      	bne.n	800635e <HAL_RCC_ClockConfig+0xde>
      {
        return HAL_ERROR;
 800634a:	2301      	movs	r3, #1
 800634c:	e073      	b.n	8006436 <HAL_RCC_ClockConfig+0x1b6>
    }
    /* HSI is selected as System Clock Source */
    else
    {
      /* Check the HSI ready flag */
      if (__HAL_RCC_GET_FLAG(RCC_FLAG_HSIRDY) == RESET)
 800634e:	4b3d      	ldr	r3, [pc, #244]	@ (8006444 <HAL_RCC_ClockConfig+0x1c4>)
 8006350:	681b      	ldr	r3, [r3, #0]
 8006352:	f003 0302 	and.w	r3, r3, #2
 8006356:	2b00      	cmp	r3, #0
 8006358:	d101      	bne.n	800635e <HAL_RCC_ClockConfig+0xde>
      {
        return HAL_ERROR;
 800635a:	2301      	movs	r3, #1
 800635c:	e06b      	b.n	8006436 <HAL_RCC_ClockConfig+0x1b6>
      }
    }
    __HAL_RCC_SYSCLK_CONFIG(RCC_ClkInitStruct->SYSCLKSource);
 800635e:	4b39      	ldr	r3, [pc, #228]	@ (8006444 <HAL_RCC_ClockConfig+0x1c4>)
 8006360:	685b      	ldr	r3, [r3, #4]
 8006362:	f023 0203 	bic.w	r2, r3, #3
 8006366:	687b      	ldr	r3, [r7, #4]
 8006368:	685b      	ldr	r3, [r3, #4]
 800636a:	4936      	ldr	r1, [pc, #216]	@ (8006444 <HAL_RCC_ClockConfig+0x1c4>)
 800636c:	4313      	orrs	r3, r2
 800636e:	604b      	str	r3, [r1, #4]

    /* Get Start Tick */
    tickstart = HAL_GetTick();
 8006370:	f7fd fcbe 	bl	8003cf0 <HAL_GetTick>
 8006374:	60f8      	str	r0, [r7, #12]

    while (__HAL_RCC_GET_SYSCLK_SOURCE() != (RCC_ClkInitStruct->SYSCLKSource << RCC_CFGR_SWS_Pos))
 8006376:	e00a      	b.n	800638e <HAL_RCC_ClockConfig+0x10e>
    {
      if ((HAL_GetTick() - tickstart) > CLOCKSWITCH_TIMEOUT_VALUE)
 8006378:	f7fd fcba 	bl	8003cf0 <HAL_GetTick>
 800637c:	4602      	mov	r2, r0
 800637e:	68fb      	ldr	r3, [r7, #12]
 8006380:	1ad3      	subs	r3, r2, r3
 8006382:	f241 3288 	movw	r2, #5000	@ 0x1388
 8006386:	4293      	cmp	r3, r2
 8006388:	d901      	bls.n	800638e <HAL_RCC_ClockConfig+0x10e>
      {
        return HAL_TIMEOUT;
 800638a:	2303      	movs	r3, #3
 800638c:	e053      	b.n	8006436 <HAL_RCC_ClockConfig+0x1b6>
    while (__HAL_RCC_GET_SYSCLK_SOURCE() != (RCC_ClkInitStruct->SYSCLKSource << RCC_CFGR_SWS_Pos))
 800638e:	4b2d      	ldr	r3, [pc, #180]	@ (8006444 <HAL_RCC_ClockConfig+0x1c4>)
 8006390:	685b      	ldr	r3, [r3, #4]
 8006392:	f003 020c 	and.w	r2, r3, #12
 8006396:	687b      	ldr	r3, [r7, #4]
 8006398:	685b      	ldr	r3, [r3, #4]
 800639a:	009b      	lsls	r3, r3, #2
 800639c:	429a      	cmp	r2, r3
 800639e:	d1eb      	bne.n	8006378 <HAL_RCC_ClockConfig+0xf8>
    }
  }

#if defined(FLASH_ACR_LATENCY)
  /* Decreasing the number of wait states because of lower CPU frequency */
  if (FLatency < __HAL_FLASH_GET_LATENCY())
 80063a0:	4b27      	ldr	r3, [pc, #156]	@ (8006440 <HAL_RCC_ClockConfig+0x1c0>)
 80063a2:	681b      	ldr	r3, [r3, #0]
 80063a4:	f003 0307 	and.w	r3, r3, #7
 80063a8:	683a      	ldr	r2, [r7, #0]
 80063aa:	429a      	cmp	r2, r3
 80063ac:	d210      	bcs.n	80063d0 <HAL_RCC_ClockConfig+0x150>
  {
    /* Program the new number of wait states to the LATENCY bits in the FLASH_ACR register */
    __HAL_FLASH_SET_LATENCY(FLatency);
 80063ae:	4b24      	ldr	r3, [pc, #144]	@ (8006440 <HAL_RCC_ClockConfig+0x1c0>)
 80063b0:	681b      	ldr	r3, [r3, #0]
 80063b2:	f023 0207 	bic.w	r2, r3, #7
 80063b6:	4922      	ldr	r1, [pc, #136]	@ (8006440 <HAL_RCC_ClockConfig+0x1c0>)
 80063b8:	683b      	ldr	r3, [r7, #0]
 80063ba:	4313      	orrs	r3, r2
 80063bc:	600b      	str	r3, [r1, #0]

    /* Check that the new number of wait states is taken into account to access the Flash
    memory by reading the FLASH_ACR register */
    if (__HAL_FLASH_GET_LATENCY() != FLatency)
 80063be:	4b20      	ldr	r3, [pc, #128]	@ (8006440 <HAL_RCC_ClockConfig+0x1c0>)
 80063c0:	681b      	ldr	r3, [r3, #0]
 80063c2:	f003 0307 	and.w	r3, r3, #7
 80063c6:	683a      	ldr	r2, [r7, #0]
 80063c8:	429a      	cmp	r2, r3
 80063ca:	d001      	beq.n	80063d0 <HAL_RCC_ClockConfig+0x150>
  {
    return HAL_ERROR;
 80063cc:	2301      	movs	r3, #1
 80063ce:	e032      	b.n	8006436 <HAL_RCC_ClockConfig+0x1b6>
  }
}
#endif /* FLASH_ACR_LATENCY */

/*-------------------------- PCLK1 Configuration ---------------------------*/
if (((RCC_ClkInitStruct->ClockType) & RCC_CLOCKTYPE_PCLK1) == RCC_CLOCKTYPE_PCLK1)
 80063d0:	687b      	ldr	r3, [r7, #4]
 80063d2:	681b      	ldr	r3, [r3, #0]
 80063d4:	f003 0304 	and.w	r3, r3, #4
 80063d8:	2b00      	cmp	r3, #0
 80063da:	d008      	beq.n	80063ee <HAL_RCC_ClockConfig+0x16e>
  {
    assert_param(IS_RCC_PCLK(RCC_ClkInitStruct->APB1CLKDivider));
    MODIFY_REG(RCC->CFGR, RCC_CFGR_PPRE1, RCC_ClkInitStruct->APB1CLKDivider);
 80063dc:	4b19      	ldr	r3, [pc, #100]	@ (8006444 <HAL_RCC_ClockConfig+0x1c4>)
 80063de:	685b      	ldr	r3, [r3, #4]
 80063e0:	f423 62e0 	bic.w	r2, r3, #1792	@ 0x700
 80063e4:	687b      	ldr	r3, [r7, #4]
 80063e6:	68db      	ldr	r3, [r3, #12]
 80063e8:	4916      	ldr	r1, [pc, #88]	@ (8006444 <HAL_RCC_ClockConfig+0x1c4>)
 80063ea:	4313      	orrs	r3, r2
 80063ec:	604b      	str	r3, [r1, #4]
  }

  /*-------------------------- PCLK2 Configuration ---------------------------*/
  if (((RCC_ClkInitStruct->ClockType) & RCC_CLOCKTYPE_PCLK2) == RCC_CLOCKTYPE_PCLK2)
 80063ee:	687b      	ldr	r3, [r7, #4]
 80063f0:	681b      	ldr	r3, [r3, #0]
 80063f2:	f003 0308 	and.w	r3, r3, #8
 80063f6:	2b00      	cmp	r3, #0
 80063f8:	d009      	beq.n	800640e <HAL_RCC_ClockConfig+0x18e>
  {
    assert_param(IS_RCC_PCLK(RCC_ClkInitStruct->APB2CLKDivider));
    MODIFY_REG(RCC->CFGR, RCC_CFGR_PPRE2, ((RCC_ClkInitStruct->APB2CLKDivider) << 3));
 80063fa:	4b12      	ldr	r3, [pc, #72]	@ (8006444 <HAL_RCC_ClockConfig+0x1c4>)
 80063fc:	685b      	ldr	r3, [r3, #4]
 80063fe:	f423 5260 	bic.w	r2, r3, #14336	@ 0x3800
 8006402:	687b      	ldr	r3, [r7, #4]
 8006404:	691b      	ldr	r3, [r3, #16]
 8006406:	00db      	lsls	r3, r3, #3
 8006408:	490e      	ldr	r1, [pc, #56]	@ (8006444 <HAL_RCC_ClockConfig+0x1c4>)
 800640a:	4313      	orrs	r3, r2
 800640c:	604b      	str	r3, [r1, #4]
  }

  /* Update the SystemCoreClock global variable */
  SystemCoreClock = HAL_RCC_GetSysClockFreq() >> AHBPrescTable[(RCC->CFGR & RCC_CFGR_HPRE) >> RCC_CFGR_HPRE_Pos];
 800640e:	f000 f821 	bl	8006454 <HAL_RCC_GetSysClockFreq>
 8006412:	4602      	mov	r2, r0
 8006414:	4b0b      	ldr	r3, [pc, #44]	@ (8006444 <HAL_RCC_ClockConfig+0x1c4>)
 8006416:	685b      	ldr	r3, [r3, #4]
 8006418:	091b      	lsrs	r3, r3, #4
 800641a:	f003 030f 	and.w	r3, r3, #15
 800641e:	490a      	ldr	r1, [pc, #40]	@ (8006448 <HAL_RCC_ClockConfig+0x1c8>)
 8006420:	5ccb      	ldrb	r3, [r1, r3]
 8006422:	fa22 f303 	lsr.w	r3, r2, r3
 8006426:	4a09      	ldr	r2, [pc, #36]	@ (800644c <HAL_RCC_ClockConfig+0x1cc>)
 8006428:	6013      	str	r3, [r2, #0]

  /* Configure the source of time base considering new system clocks settings*/
  HAL_InitTick(uwTickPrio);
 800642a:	4b09      	ldr	r3, [pc, #36]	@ (8006450 <HAL_RCC_ClockConfig+0x1d0>)
 800642c:	681b      	ldr	r3, [r3, #0]
 800642e:	4618      	mov	r0, r3
 8006430:	f7fd fc1c 	bl	8003c6c <HAL_InitTick>

  return HAL_OK;
 8006434:	2300      	movs	r3, #0
}
 8006436:	4618      	mov	r0, r3
 8006438:	3710      	adds	r7, #16
 800643a:	46bd      	mov	sp, r7
 800643c:	bd80      	pop	{r7, pc}
 800643e:	bf00      	nop
 8006440:	40022000 	.word	0x40022000
 8006444:	40021000 	.word	0x40021000
 8006448:	08008810 	.word	0x08008810
 800644c:	20000068 	.word	0x20000068
 8006450:	2000006c 	.word	0x2000006c

08006454 <HAL_RCC_GetSysClockFreq>:
  *         right SYSCLK value. Otherwise, any configuration based on this function will be incorrect.
  *
  * @retval SYSCLK frequency
  */
uint32_t HAL_RCC_GetSysClockFreq(void)
{
 8006454:	b480      	push	{r7}
 8006456:	b087      	sub	sp, #28
 8006458:	af00      	add	r7, sp, #0
#else
  static const uint8_t aPredivFactorTable[2U] = {1, 2};
#endif /*RCC_CFGR2_PREDIV1*/

#endif
  uint32_t tmpreg = 0U, prediv = 0U, pllclk = 0U, pllmul = 0U;
 800645a:	2300      	movs	r3, #0
 800645c:	60fb      	str	r3, [r7, #12]
 800645e:	2300      	movs	r3, #0
 8006460:	60bb      	str	r3, [r7, #8]
 8006462:	2300      	movs	r3, #0
 8006464:	617b      	str	r3, [r7, #20]
 8006466:	2300      	movs	r3, #0
 8006468:	607b      	str	r3, [r7, #4]
  uint32_t sysclockfreq = 0U;
 800646a:	2300      	movs	r3, #0
 800646c:	613b      	str	r3, [r7, #16]
#if defined(RCC_CFGR2_PREDIV1SRC)
  uint32_t prediv2 = 0U, pll2mul = 0U;
#endif /*RCC_CFGR2_PREDIV1SRC*/

  tmpreg = RCC->CFGR;
 800646e:	4b1e      	ldr	r3, [pc, #120]	@ (80064e8 <HAL_RCC_GetSysClockFreq+0x94>)
 8006470:	685b      	ldr	r3, [r3, #4]
 8006472:	60fb      	str	r3, [r7, #12]

  /* Get SYSCLK source -------------------------------------------------------*/
  switch (tmpreg & RCC_CFGR_SWS)
 8006474:	68fb      	ldr	r3, [r7, #12]
 8006476:	f003 030c 	and.w	r3, r3, #12
 800647a:	2b04      	cmp	r3, #4
 800647c:	d002      	beq.n	8006484 <HAL_RCC_GetSysClockFreq+0x30>
 800647e:	2b08      	cmp	r3, #8
 8006480:	d003      	beq.n	800648a <HAL_RCC_GetSysClockFreq+0x36>
 8006482:	e027      	b.n	80064d4 <HAL_RCC_GetSysClockFreq+0x80>
  {
    case RCC_SYSCLKSOURCE_STATUS_HSE:  /* HSE used as system clock */
    {
      sysclockfreq = HSE_VALUE;
 8006484:	4b19      	ldr	r3, [pc, #100]	@ (80064ec <HAL_RCC_GetSysClockFreq+0x98>)
 8006486:	613b      	str	r3, [r7, #16]
      break;
 8006488:	e027      	b.n	80064da <HAL_RCC_GetSysClockFreq+0x86>
    }
    case RCC_SYSCLKSOURCE_STATUS_PLLCLK:  /* PLL used as system clock */
    {
      pllmul = aPLLMULFactorTable[(uint32_t)(tmpreg & RCC_CFGR_PLLMULL) >> RCC_CFGR_PLLMULL_Pos];
 800648a:	68fb      	ldr	r3, [r7, #12]
 800648c:	0c9b      	lsrs	r3, r3, #18
 800648e:	f003 030f 	and.w	r3, r3, #15
 8006492:	4a17      	ldr	r2, [pc, #92]	@ (80064f0 <HAL_RCC_GetSysClockFreq+0x9c>)
 8006494:	5cd3      	ldrb	r3, [r2, r3]
 8006496:	607b      	str	r3, [r7, #4]
      if ((tmpreg & RCC_CFGR_PLLSRC) != RCC_PLLSOURCE_HSI_DIV2)
 8006498:	68fb      	ldr	r3, [r7, #12]
 800649a:	f403 3380 	and.w	r3, r3, #65536	@ 0x10000
 800649e:	2b00      	cmp	r3, #0
 80064a0:	d010      	beq.n	80064c4 <HAL_RCC_GetSysClockFreq+0x70>
      {
#if defined(RCC_CFGR2_PREDIV1)
        prediv = aPredivFactorTable[(uint32_t)(RCC->CFGR2 & RCC_CFGR2_PREDIV1) >> RCC_CFGR2_PREDIV1_Pos];
#else
        prediv = aPredivFactorTable[(uint32_t)(RCC->CFGR & RCC_CFGR_PLLXTPRE) >> RCC_CFGR_PLLXTPRE_Pos];
 80064a2:	4b11      	ldr	r3, [pc, #68]	@ (80064e8 <HAL_RCC_GetSysClockFreq+0x94>)
 80064a4:	685b      	ldr	r3, [r3, #4]
 80064a6:	0c5b      	lsrs	r3, r3, #17
 80064a8:	f003 0301 	and.w	r3, r3, #1
 80064ac:	4a11      	ldr	r2, [pc, #68]	@ (80064f4 <HAL_RCC_GetSysClockFreq+0xa0>)
 80064ae:	5cd3      	ldrb	r3, [r2, r3]
 80064b0:	60bb      	str	r3, [r7, #8]
        {
          pllclk = pllclk / 2;
        }
#else
        /* HSE used as PLL clock source : PLLCLK = HSE/PREDIV1 * PLLMUL */
        pllclk = (uint32_t)((HSE_VALUE  * pllmul) / prediv);
 80064b2:	687b      	ldr	r3, [r7, #4]
 80064b4:	4a0d      	ldr	r2, [pc, #52]	@ (80064ec <HAL_RCC_GetSysClockFreq+0x98>)
 80064b6:	fb03 f202 	mul.w	r2, r3, r2
 80064ba:	68bb      	ldr	r3, [r7, #8]
 80064bc:	fbb2 f3f3 	udiv	r3, r2, r3
 80064c0:	617b      	str	r3, [r7, #20]
 80064c2:	e004      	b.n	80064ce <HAL_RCC_GetSysClockFreq+0x7a>
#endif /*RCC_CFGR2_PREDIV1SRC*/
      }
      else
      {
        /* HSI used as PLL clock source : PLLCLK = HSI/2 * PLLMUL */
        pllclk = (uint32_t)((HSI_VALUE >> 1) * pllmul);
 80064c4:	687b      	ldr	r3, [r7, #4]
 80064c6:	4a0c      	ldr	r2, [pc, #48]	@ (80064f8 <HAL_RCC_GetSysClockFreq+0xa4>)
 80064c8:	fb02 f303 	mul.w	r3, r2, r3
 80064cc:	617b      	str	r3, [r7, #20]
      }
      sysclockfreq = pllclk;
 80064ce:	697b      	ldr	r3, [r7, #20]
 80064d0:	613b      	str	r3, [r7, #16]
      break;
 80064d2:	e002      	b.n	80064da <HAL_RCC_GetSysClockFreq+0x86>
    }
    case RCC_SYSCLKSOURCE_STATUS_HSI:  /* HSI used as system clock source */
    default: /* HSI used as system clock */
    {
      sysclockfreq = HSI_VALUE;
 80064d4:	4b05      	ldr	r3, [pc, #20]	@ (80064ec <HAL_RCC_GetSysClockFreq+0x98>)
 80064d6:	613b      	str	r3, [r7, #16]
      break;
 80064d8:	bf00      	nop
    }
  }
  return sysclockfreq;
 80064da:	693b      	ldr	r3, [r7, #16]
}
 80064dc:	4618      	mov	r0, r3
 80064de:	371c      	adds	r7, #28
 80064e0:	46bd      	mov	sp, r7
 80064e2:	bc80      	pop	{r7}
 80064e4:	4770      	bx	lr
 80064e6:	bf00      	nop
 80064e8:	40021000 	.word	0x40021000
 80064ec:	007a1200 	.word	0x007a1200
 80064f0:	08008828 	.word	0x08008828
 80064f4:	08008838 	.word	0x08008838
 80064f8:	003d0900 	.word	0x003d0900

080064fc <HAL_RCC_GetHCLKFreq>:
  * @note   The SystemCoreClock CMSIS variable is used to store System Clock Frequency
  *         and updated within this function
  * @retval HCLK frequency
  */
uint32_t HAL_RCC_GetHCLKFreq(void)
{
 80064fc:	b480      	push	{r7}
 80064fe:	af00      	add	r7, sp, #0
  return SystemCoreClock;
 8006500:	4b02      	ldr	r3, [pc, #8]	@ (800650c <HAL_RCC_GetHCLKFreq+0x10>)
 8006502:	681b      	ldr	r3, [r3, #0]
}
 8006504:	4618      	mov	r0, r3
 8006506:	46bd      	mov	sp, r7
 8006508:	bc80      	pop	{r7}
 800650a:	4770      	bx	lr
 800650c:	20000068 	.word	0x20000068

08006510 <HAL_RCC_GetPCLK1Freq>:
  * @note   Each time PCLK1 changes, this function must be called to update the
  *         right PCLK1 value. Otherwise, any configuration based on this function will be incorrect.
  * @retval PCLK1 frequency
  */
uint32_t HAL_RCC_GetPCLK1Freq(void)
{
 8006510:	b580      	push	{r7, lr}
 8006512:	af00      	add	r7, sp, #0
  /* Get HCLK source and Compute PCLK1 frequency ---------------------------*/
  return (HAL_RCC_GetHCLKFreq() >> APBPrescTable[(RCC->CFGR & RCC_CFGR_PPRE1) >> RCC_CFGR_PPRE1_Pos]);
 8006514:	f7ff fff2 	bl	80064fc <HAL_RCC_GetHCLKFreq>
 8006518:	4602      	mov	r2, r0
 800651a:	4b05      	ldr	r3, [pc, #20]	@ (8006530 <HAL_RCC_GetPCLK1Freq+0x20>)
 800651c:	685b      	ldr	r3, [r3, #4]
 800651e:	0a1b      	lsrs	r3, r3, #8
 8006520:	f003 0307 	and.w	r3, r3, #7
 8006524:	4903      	ldr	r1, [pc, #12]	@ (8006534 <HAL_RCC_GetPCLK1Freq+0x24>)
 8006526:	5ccb      	ldrb	r3, [r1, r3]
 8006528:	fa22 f303 	lsr.w	r3, r2, r3
}
 800652c:	4618      	mov	r0, r3
 800652e:	bd80      	pop	{r7, pc}
 8006530:	40021000 	.word	0x40021000
 8006534:	08008820 	.word	0x08008820

08006538 <HAL_RCC_GetPCLK2Freq>:
  * @note   Each time PCLK2 changes, this function must be called to update the
  *         right PCLK2 value. Otherwise, any configuration based on this function will be incorrect.
  * @retval PCLK2 frequency
  */
uint32_t HAL_RCC_GetPCLK2Freq(void)
{
 8006538:	b580      	push	{r7, lr}
 800653a:	af00      	add	r7, sp, #0
  /* Get HCLK source and Compute PCLK2 frequency ---------------------------*/
  return (HAL_RCC_GetHCLKFreq() >> APBPrescTable[(RCC->CFGR & RCC_CFGR_PPRE2) >> RCC_CFGR_PPRE2_Pos]);
 800653c:	f7ff ffde 	bl	80064fc <HAL_RCC_GetHCLKFreq>
 8006540:	4602      	mov	r2, r0
 8006542:	4b05      	ldr	r3, [pc, #20]	@ (8006558 <HAL_RCC_GetPCLK2Freq+0x20>)
 8006544:	685b      	ldr	r3, [r3, #4]
 8006546:	0adb      	lsrs	r3, r3, #11
 8006548:	f003 0307 	and.w	r3, r3, #7
 800654c:	4903      	ldr	r1, [pc, #12]	@ (800655c <HAL_RCC_GetPCLK2Freq+0x24>)
 800654e:	5ccb      	ldrb	r3, [r1, r3]
 8006550:	fa22 f303 	lsr.w	r3, r2, r3
}
 8006554:	4618      	mov	r0, r3
 8006556:	bd80      	pop	{r7, pc}
 8006558:	40021000 	.word	0x40021000
 800655c:	08008820 	.word	0x08008820

08006560 <RCC_Delay>:
  * @brief  This function provides delay (in milliseconds) based on CPU cycles method.
  * @param  mdelay: specifies the delay time length, in milliseconds.
  * @retval None
  */
static void RCC_Delay(uint32_t mdelay)
{
 8006560:	b480      	push	{r7}
 8006562:	b085      	sub	sp, #20
 8006564:	af00      	add	r7, sp, #0
 8006566:	6078      	str	r0, [r7, #4]
  __IO uint32_t Delay = mdelay * (SystemCoreClock / 8U / 1000U);
 8006568:	4b0a      	ldr	r3, [pc, #40]	@ (8006594 <RCC_Delay+0x34>)
 800656a:	681b      	ldr	r3, [r3, #0]
 800656c:	4a0a      	ldr	r2, [pc, #40]	@ (8006598 <RCC_Delay+0x38>)
 800656e:	fba2 2303 	umull	r2, r3, r2, r3
 8006572:	0a5b      	lsrs	r3, r3, #9
 8006574:	687a      	ldr	r2, [r7, #4]
 8006576:	fb02 f303 	mul.w	r3, r2, r3
 800657a:	60fb      	str	r3, [r7, #12]
  do
  {
    __NOP();
 800657c:	bf00      	nop
  }
  while (Delay --);
 800657e:	68fb      	ldr	r3, [r7, #12]
 8006580:	1e5a      	subs	r2, r3, #1
 8006582:	60fa      	str	r2, [r7, #12]
 8006584:	2b00      	cmp	r3, #0
 8006586:	d1f9      	bne.n	800657c <RCC_Delay+0x1c>
}
 8006588:	bf00      	nop
 800658a:	bf00      	nop
 800658c:	3714      	adds	r7, #20
 800658e:	46bd      	mov	sp, r7
 8006590:	bc80      	pop	{r7}
 8006592:	4770      	bx	lr
 8006594:	20000068 	.word	0x20000068
 8006598:	10624dd3 	.word	0x10624dd3

0800659c <HAL_RCCEx_PeriphCLKConfig>:
  *         manually disable it.
  *
  * @retval HAL status
  */
HAL_StatusTypeDef HAL_RCCEx_PeriphCLKConfig(RCC_PeriphCLKInitTypeDef  *PeriphClkInit)
{
 800659c:	b580      	push	{r7, lr}
 800659e:	b086      	sub	sp, #24
 80065a0:	af00      	add	r7, sp, #0
 80065a2:	6078      	str	r0, [r7, #4]
  uint32_t tickstart = 0U, temp_reg = 0U;
 80065a4:	2300      	movs	r3, #0
 80065a6:	613b      	str	r3, [r7, #16]
 80065a8:	2300      	movs	r3, #0
 80065aa:	60fb      	str	r3, [r7, #12]

  /* Check the parameters */
  assert_param(IS_RCC_PERIPHCLOCK(PeriphClkInit->PeriphClockSelection));

  /*------------------------------- RTC/LCD Configuration ------------------------*/
  if ((((PeriphClkInit->PeriphClockSelection) & RCC_PERIPHCLK_RTC) == RCC_PERIPHCLK_RTC))
 80065ac:	687b      	ldr	r3, [r7, #4]
 80065ae:	681b      	ldr	r3, [r3, #0]
 80065b0:	f003 0301 	and.w	r3, r3, #1
 80065b4:	2b00      	cmp	r3, #0
 80065b6:	d07d      	beq.n	80066b4 <HAL_RCCEx_PeriphCLKConfig+0x118>
  {
    FlagStatus pwrclkchanged = RESET;
 80065b8:	2300      	movs	r3, #0
 80065ba:	75fb      	strb	r3, [r7, #23]
    assert_param(IS_RCC_RTCCLKSOURCE(PeriphClkInit->RTCClockSelection));

    /* As soon as function is called to change RTC clock source, activation of the
       power domain is done. */
    /* Requires to enable write access to Backup Domain of necessary */
    if (__HAL_RCC_PWR_IS_CLK_DISABLED())
 80065bc:	4b4f      	ldr	r3, [pc, #316]	@ (80066fc <HAL_RCCEx_PeriphCLKConfig+0x160>)
 80065be:	69db      	ldr	r3, [r3, #28]
 80065c0:	f003 5380 	and.w	r3, r3, #268435456	@ 0x10000000
 80065c4:	2b00      	cmp	r3, #0
 80065c6:	d10d      	bne.n	80065e4 <HAL_RCCEx_PeriphCLKConfig+0x48>
    {
      __HAL_RCC_PWR_CLK_ENABLE();
 80065c8:	4b4c      	ldr	r3, [pc, #304]	@ (80066fc <HAL_RCCEx_PeriphCLKConfig+0x160>)
 80065ca:	69db      	ldr	r3, [r3, #28]
 80065cc:	4a4b      	ldr	r2, [pc, #300]	@ (80066fc <HAL_RCCEx_PeriphCLKConfig+0x160>)
 80065ce:	f043 5380 	orr.w	r3, r3, #268435456	@ 0x10000000
 80065d2:	61d3      	str	r3, [r2, #28]
 80065d4:	4b49      	ldr	r3, [pc, #292]	@ (80066fc <HAL_RCCEx_PeriphCLKConfig+0x160>)
 80065d6:	69db      	ldr	r3, [r3, #28]
 80065d8:	f003 5380 	and.w	r3, r3, #268435456	@ 0x10000000
 80065dc:	60bb      	str	r3, [r7, #8]
 80065de:	68bb      	ldr	r3, [r7, #8]
      pwrclkchanged = SET;
 80065e0:	2301      	movs	r3, #1
 80065e2:	75fb      	strb	r3, [r7, #23]
    }

    if (HAL_IS_BIT_CLR(PWR->CR, PWR_CR_DBP))
 80065e4:	4b46      	ldr	r3, [pc, #280]	@ (8006700 <HAL_RCCEx_PeriphCLKConfig+0x164>)
 80065e6:	681b      	ldr	r3, [r3, #0]
 80065e8:	f403 7380 	and.w	r3, r3, #256	@ 0x100
 80065ec:	2b00      	cmp	r3, #0
 80065ee:	d118      	bne.n	8006622 <HAL_RCCEx_PeriphCLKConfig+0x86>
    {
      /* Enable write access to Backup domain */
      SET_BIT(PWR->CR, PWR_CR_DBP);
 80065f0:	4b43      	ldr	r3, [pc, #268]	@ (8006700 <HAL_RCCEx_PeriphCLKConfig+0x164>)
 80065f2:	681b      	ldr	r3, [r3, #0]
 80065f4:	4a42      	ldr	r2, [pc, #264]	@ (8006700 <HAL_RCCEx_PeriphCLKConfig+0x164>)
 80065f6:	f443 7380 	orr.w	r3, r3, #256	@ 0x100
 80065fa:	6013      	str	r3, [r2, #0]

      /* Wait for Backup domain Write protection disable */
      tickstart = HAL_GetTick();
 80065fc:	f7fd fb78 	bl	8003cf0 <HAL_GetTick>
 8006600:	6138      	str	r0, [r7, #16]

      while (HAL_IS_BIT_CLR(PWR->CR, PWR_CR_DBP))
 8006602:	e008      	b.n	8006616 <HAL_RCCEx_PeriphCLKConfig+0x7a>
      {
        if ((HAL_GetTick() - tickstart) > RCC_DBP_TIMEOUT_VALUE)
 8006604:	f7fd fb74 	bl	8003cf0 <HAL_GetTick>
 8006608:	4602      	mov	r2, r0
 800660a:	693b      	ldr	r3, [r7, #16]
 800660c:	1ad3      	subs	r3, r2, r3
 800660e:	2b64      	cmp	r3, #100	@ 0x64
 8006610:	d901      	bls.n	8006616 <HAL_RCCEx_PeriphCLKConfig+0x7a>
        {
          return HAL_TIMEOUT;
 8006612:	2303      	movs	r3, #3
 8006614:	e06d      	b.n	80066f2 <HAL_RCCEx_PeriphCLKConfig+0x156>
      while (HAL_IS_BIT_CLR(PWR->CR, PWR_CR_DBP))
 8006616:	4b3a      	ldr	r3, [pc, #232]	@ (8006700 <HAL_RCCEx_PeriphCLKConfig+0x164>)
 8006618:	681b      	ldr	r3, [r3, #0]
 800661a:	f403 7380 	and.w	r3, r3, #256	@ 0x100
 800661e:	2b00      	cmp	r3, #0
 8006620:	d0f0      	beq.n	8006604 <HAL_RCCEx_PeriphCLKConfig+0x68>
        }
      }
    }

    /* Reset the Backup domain only if the RTC Clock source selection is modified from reset value */
    temp_reg = (RCC->BDCR & RCC_BDCR_RTCSEL);
 8006622:	4b36      	ldr	r3, [pc, #216]	@ (80066fc <HAL_RCCEx_PeriphCLKConfig+0x160>)
 8006624:	6a1b      	ldr	r3, [r3, #32]
 8006626:	f403 7340 	and.w	r3, r3, #768	@ 0x300
 800662a:	60fb      	str	r3, [r7, #12]
    if ((temp_reg != 0x00000000U) && (temp_reg != (PeriphClkInit->RTCClockSelection & RCC_BDCR_RTCSEL)))
 800662c:	68fb      	ldr	r3, [r7, #12]
 800662e:	2b00      	cmp	r3, #0
 8006630:	d02e      	beq.n	8006690 <HAL_RCCEx_PeriphCLKConfig+0xf4>
 8006632:	687b      	ldr	r3, [r7, #4]
 8006634:	685b      	ldr	r3, [r3, #4]
 8006636:	f403 7340 	and.w	r3, r3, #768	@ 0x300
 800663a:	68fa      	ldr	r2, [r7, #12]
 800663c:	429a      	cmp	r2, r3
 800663e:	d027      	beq.n	8006690 <HAL_RCCEx_PeriphCLKConfig+0xf4>
    {
      /* Store the content of BDCR register before the reset of Backup Domain */
      temp_reg = (RCC->BDCR & ~(RCC_BDCR_RTCSEL));
 8006640:	4b2e      	ldr	r3, [pc, #184]	@ (80066fc <HAL_RCCEx_PeriphCLKConfig+0x160>)
 8006642:	6a1b      	ldr	r3, [r3, #32]
 8006644:	f423 7340 	bic.w	r3, r3, #768	@ 0x300
 8006648:	60fb      	str	r3, [r7, #12]
      /* RTC Clock selection can be changed only if the Backup Domain is reset */
      __HAL_RCC_BACKUPRESET_FORCE();
 800664a:	4b2e      	ldr	r3, [pc, #184]	@ (8006704 <HAL_RCCEx_PeriphCLKConfig+0x168>)
 800664c:	2201      	movs	r2, #1
 800664e:	601a      	str	r2, [r3, #0]
      __HAL_RCC_BACKUPRESET_RELEASE();
 8006650:	4b2c      	ldr	r3, [pc, #176]	@ (8006704 <HAL_RCCEx_PeriphCLKConfig+0x168>)
 8006652:	2200      	movs	r2, #0
 8006654:	601a      	str	r2, [r3, #0]
      /* Restore the Content of BDCR register */
      RCC->BDCR = temp_reg;
 8006656:	4a29      	ldr	r2, [pc, #164]	@ (80066fc <HAL_RCCEx_PeriphCLKConfig+0x160>)
 8006658:	68fb      	ldr	r3, [r7, #12]
 800665a:	6213      	str	r3, [r2, #32]

      /* Wait for LSERDY if LSE was enabled */
      if (HAL_IS_BIT_SET(temp_reg, RCC_BDCR_LSEON))
 800665c:	68fb      	ldr	r3, [r7, #12]
 800665e:	f003 0301 	and.w	r3, r3, #1
 8006662:	2b00      	cmp	r3, #0
 8006664:	d014      	beq.n	8006690 <HAL_RCCEx_PeriphCLKConfig+0xf4>
      {
        /* Get Start Tick */
        tickstart = HAL_GetTick();
 8006666:	f7fd fb43 	bl	8003cf0 <HAL_GetTick>
 800666a:	6138      	str	r0, [r7, #16]

        /* Wait till LSE is ready */
        while (__HAL_RCC_GET_FLAG(RCC_FLAG_LSERDY) == RESET)
 800666c:	e00a      	b.n	8006684 <HAL_RCCEx_PeriphCLKConfig+0xe8>
        {
          if ((HAL_GetTick() - tickstart) > RCC_LSE_TIMEOUT_VALUE)
 800666e:	f7fd fb3f 	bl	8003cf0 <HAL_GetTick>
 8006672:	4602      	mov	r2, r0
 8006674:	693b      	ldr	r3, [r7, #16]
 8006676:	1ad3      	subs	r3, r2, r3
 8006678:	f241 3288 	movw	r2, #5000	@ 0x1388
 800667c:	4293      	cmp	r3, r2
 800667e:	d901      	bls.n	8006684 <HAL_RCCEx_PeriphCLKConfig+0xe8>
          {
            return HAL_TIMEOUT;
 8006680:	2303      	movs	r3, #3
 8006682:	e036      	b.n	80066f2 <HAL_RCCEx_PeriphCLKConfig+0x156>
        while (__HAL_RCC_GET_FLAG(RCC_FLAG_LSERDY) == RESET)
 8006684:	4b1d      	ldr	r3, [pc, #116]	@ (80066fc <HAL_RCCEx_PeriphCLKConfig+0x160>)
 8006686:	6a1b      	ldr	r3, [r3, #32]
 8006688:	f003 0302 	and.w	r3, r3, #2
 800668c:	2b00      	cmp	r3, #0
 800668e:	d0ee      	beq.n	800666e <HAL_RCCEx_PeriphCLKConfig+0xd2>
          }
        }
      }
    }
    __HAL_RCC_RTC_CONFIG(PeriphClkInit->RTCClockSelection);
 8006690:	4b1a      	ldr	r3, [pc, #104]	@ (80066fc <HAL_RCCEx_PeriphCLKConfig+0x160>)
 8006692:	6a1b      	ldr	r3, [r3, #32]
 8006694:	f423 7240 	bic.w	r2, r3, #768	@ 0x300
 8006698:	687b      	ldr	r3, [r7, #4]
 800669a:	685b      	ldr	r3, [r3, #4]
 800669c:	4917      	ldr	r1, [pc, #92]	@ (80066fc <HAL_RCCEx_PeriphCLKConfig+0x160>)
 800669e:	4313      	orrs	r3, r2
 80066a0:	620b      	str	r3, [r1, #32]

    /* Require to disable power clock if necessary */
    if (pwrclkchanged == SET)
 80066a2:	7dfb      	ldrb	r3, [r7, #23]
 80066a4:	2b01      	cmp	r3, #1
 80066a6:	d105      	bne.n	80066b4 <HAL_RCCEx_PeriphCLKConfig+0x118>
    {
      __HAL_RCC_PWR_CLK_DISABLE();
 80066a8:	4b14      	ldr	r3, [pc, #80]	@ (80066fc <HAL_RCCEx_PeriphCLKConfig+0x160>)
 80066aa:	69db      	ldr	r3, [r3, #28]
 80066ac:	4a13      	ldr	r2, [pc, #76]	@ (80066fc <HAL_RCCEx_PeriphCLKConfig+0x160>)
 80066ae:	f023 5380 	bic.w	r3, r3, #268435456	@ 0x10000000
 80066b2:	61d3      	str	r3, [r2, #28]
    }
  }

  /*------------------------------ ADC clock Configuration ------------------*/
  if (((PeriphClkInit->PeriphClockSelection) & RCC_PERIPHCLK_ADC) == RCC_PERIPHCLK_ADC)
 80066b4:	687b      	ldr	r3, [r7, #4]
 80066b6:	681b      	ldr	r3, [r3, #0]
 80066b8:	f003 0302 	and.w	r3, r3, #2
 80066bc:	2b00      	cmp	r3, #0
 80066be:	d008      	beq.n	80066d2 <HAL_RCCEx_PeriphCLKConfig+0x136>
  {
    /* Check the parameters */
    assert_param(IS_RCC_ADCPLLCLK_DIV(PeriphClkInit->AdcClockSelection));

    /* Configure the ADC clock source */
    __HAL_RCC_ADC_CONFIG(PeriphClkInit->AdcClockSelection);
 80066c0:	4b0e      	ldr	r3, [pc, #56]	@ (80066fc <HAL_RCCEx_PeriphCLKConfig+0x160>)
 80066c2:	685b      	ldr	r3, [r3, #4]
 80066c4:	f423 4240 	bic.w	r2, r3, #49152	@ 0xc000
 80066c8:	687b      	ldr	r3, [r7, #4]
 80066ca:	689b      	ldr	r3, [r3, #8]
 80066cc:	490b      	ldr	r1, [pc, #44]	@ (80066fc <HAL_RCCEx_PeriphCLKConfig+0x160>)
 80066ce:	4313      	orrs	r3, r2
 80066d0:	604b      	str	r3, [r1, #4]

#if defined(STM32F102x6) || defined(STM32F102xB) || defined(STM32F103x6)\
 || defined(STM32F103xB) || defined(STM32F103xE) || defined(STM32F103xG)\
 || defined(STM32F105xC) || defined(STM32F107xC)
  /*------------------------------ USB clock Configuration ------------------*/
  if (((PeriphClkInit->PeriphClockSelection) & RCC_PERIPHCLK_USB) == RCC_PERIPHCLK_USB)
 80066d2:	687b      	ldr	r3, [r7, #4]
 80066d4:	681b      	ldr	r3, [r3, #0]
 80066d6:	f003 0310 	and.w	r3, r3, #16
 80066da:	2b00      	cmp	r3, #0
 80066dc:	d008      	beq.n	80066f0 <HAL_RCCEx_PeriphCLKConfig+0x154>
  {
    /* Check the parameters */
    assert_param(IS_RCC_USBPLLCLK_DIV(PeriphClkInit->UsbClockSelection));

    /* Configure the USB clock source */
    __HAL_RCC_USB_CONFIG(PeriphClkInit->UsbClockSelection);
 80066de:	4b07      	ldr	r3, [pc, #28]	@ (80066fc <HAL_RCCEx_PeriphCLKConfig+0x160>)
 80066e0:	685b      	ldr	r3, [r3, #4]
 80066e2:	f423 0280 	bic.w	r2, r3, #4194304	@ 0x400000
 80066e6:	687b      	ldr	r3, [r7, #4]
 80066e8:	68db      	ldr	r3, [r3, #12]
 80066ea:	4904      	ldr	r1, [pc, #16]	@ (80066fc <HAL_RCCEx_PeriphCLKConfig+0x160>)
 80066ec:	4313      	orrs	r3, r2
 80066ee:	604b      	str	r3, [r1, #4]
  }
#endif /* STM32F102x6 || STM32F102xB || STM32F103x6 || STM32F103xB || STM32F103xE || STM32F103xG || STM32F105xC || STM32F107xC */

  return HAL_OK;
 80066f0:	2300      	movs	r3, #0
}
 80066f2:	4618      	mov	r0, r3
 80066f4:	3718      	adds	r7, #24
 80066f6:	46bd      	mov	sp, r7
 80066f8:	bd80      	pop	{r7, pc}
 80066fa:	bf00      	nop
 80066fc:	40021000 	.word	0x40021000
 8006700:	40007000 	.word	0x40007000
 8006704:	42420440 	.word	0x42420440

08006708 <HAL_RCCEx_GetPeriphCLKFreq>:
  *            @arg @ref RCC_PERIPHCLK_USB  USB peripheral clock
  @endif
  * @retval Frequency in Hz (0: means that no available frequency for the peripheral)
  */
uint32_t HAL_RCCEx_GetPeriphCLKFreq(uint32_t PeriphClk)
{
 8006708:	b580      	push	{r7, lr}
 800670a:	b088      	sub	sp, #32
 800670c:	af00      	add	r7, sp, #0
 800670e:	6078      	str	r0, [r7, #4]
#if defined(STM32F102x6) || defined(STM32F102xB) || defined(STM32F103x6) || \
    defined(STM32F103xB) || defined(STM32F103xE) || defined(STM32F103xG)
  static const uint8_t aPLLMULFactorTable[16U] = {2, 3, 4, 5, 6, 7, 8, 9, 10, 11, 12, 13, 14, 15, 16, 16};
  static const uint8_t aPredivFactorTable[2U] = {1, 2};

  uint32_t prediv1 = 0U, pllclk = 0U, pllmul = 0U;
 8006710:	2300      	movs	r3, #0
 8006712:	617b      	str	r3, [r7, #20]
 8006714:	2300      	movs	r3, #0
 8006716:	61fb      	str	r3, [r7, #28]
 8006718:	2300      	movs	r3, #0
 800671a:	613b      	str	r3, [r7, #16]
#endif /* STM32F102x6 || STM32F102xB || STM32F103x6 || STM32F103xB || STM32F103xE || STM32F103xG */
  uint32_t temp_reg = 0U, frequency = 0U;
 800671c:	2300      	movs	r3, #0
 800671e:	60fb      	str	r3, [r7, #12]
 8006720:	2300      	movs	r3, #0
 8006722:	61bb      	str	r3, [r7, #24]

  /* Check the parameters */
  assert_param(IS_RCC_PERIPHCLOCK(PeriphClk));

  switch (PeriphClk)
 8006724:	687b      	ldr	r3, [r7, #4]
 8006726:	2b10      	cmp	r3, #16
 8006728:	d00a      	beq.n	8006740 <HAL_RCCEx_GetPeriphCLKFreq+0x38>
 800672a:	687b      	ldr	r3, [r7, #4]
 800672c:	2b10      	cmp	r3, #16
 800672e:	f200 808a 	bhi.w	8006846 <HAL_RCCEx_GetPeriphCLKFreq+0x13e>
 8006732:	687b      	ldr	r3, [r7, #4]
 8006734:	2b01      	cmp	r3, #1
 8006736:	d045      	beq.n	80067c4 <HAL_RCCEx_GetPeriphCLKFreq+0xbc>
 8006738:	687b      	ldr	r3, [r7, #4]
 800673a:	2b02      	cmp	r3, #2
 800673c:	d075      	beq.n	800682a <HAL_RCCEx_GetPeriphCLKFreq+0x122>
      frequency = HAL_RCC_GetPCLK2Freq() / (((__HAL_RCC_GET_ADC_SOURCE() >> RCC_CFGR_ADCPRE_Pos) + 1) * 2);
      break;
    }
    default:
    {
      break;
 800673e:	e082      	b.n	8006846 <HAL_RCCEx_GetPeriphCLKFreq+0x13e>
      temp_reg = RCC->CFGR;
 8006740:	4b46      	ldr	r3, [pc, #280]	@ (800685c <HAL_RCCEx_GetPeriphCLKFreq+0x154>)
 8006742:	685b      	ldr	r3, [r3, #4]
 8006744:	60fb      	str	r3, [r7, #12]
      if (HAL_IS_BIT_SET(RCC->CR, RCC_CR_PLLON))
 8006746:	4b45      	ldr	r3, [pc, #276]	@ (800685c <HAL_RCCEx_GetPeriphCLKFreq+0x154>)
 8006748:	681b      	ldr	r3, [r3, #0]
 800674a:	f003 7380 	and.w	r3, r3, #16777216	@ 0x1000000
 800674e:	2b00      	cmp	r3, #0
 8006750:	d07b      	beq.n	800684a <HAL_RCCEx_GetPeriphCLKFreq+0x142>
        pllmul = aPLLMULFactorTable[(uint32_t)(temp_reg & RCC_CFGR_PLLMULL) >> RCC_CFGR_PLLMULL_Pos];
 8006752:	68fb      	ldr	r3, [r7, #12]
 8006754:	0c9b      	lsrs	r3, r3, #18
 8006756:	f003 030f 	and.w	r3, r3, #15
 800675a:	4a41      	ldr	r2, [pc, #260]	@ (8006860 <HAL_RCCEx_GetPeriphCLKFreq+0x158>)
 800675c:	5cd3      	ldrb	r3, [r2, r3]
 800675e:	613b      	str	r3, [r7, #16]
        if ((temp_reg & RCC_CFGR_PLLSRC) != RCC_PLLSOURCE_HSI_DIV2)
 8006760:	68fb      	ldr	r3, [r7, #12]
 8006762:	f403 3380 	and.w	r3, r3, #65536	@ 0x10000
 8006766:	2b00      	cmp	r3, #0
 8006768:	d015      	beq.n	8006796 <HAL_RCCEx_GetPeriphCLKFreq+0x8e>
          prediv1 = aPredivFactorTable[(uint32_t)(RCC->CFGR & RCC_CFGR_PLLXTPRE) >> RCC_CFGR_PLLXTPRE_Pos];
 800676a:	4b3c      	ldr	r3, [pc, #240]	@ (800685c <HAL_RCCEx_GetPeriphCLKFreq+0x154>)
 800676c:	685b      	ldr	r3, [r3, #4]
 800676e:	0c5b      	lsrs	r3, r3, #17
 8006770:	f003 0301 	and.w	r3, r3, #1
 8006774:	4a3b      	ldr	r2, [pc, #236]	@ (8006864 <HAL_RCCEx_GetPeriphCLKFreq+0x15c>)
 8006776:	5cd3      	ldrb	r3, [r2, r3]
 8006778:	617b      	str	r3, [r7, #20]
          if ((temp_reg & RCC_CFGR_PLLSRC) != RCC_PLLSOURCE_HSI_DIV2)
 800677a:	68fb      	ldr	r3, [r7, #12]
 800677c:	f403 3380 	and.w	r3, r3, #65536	@ 0x10000
 8006780:	2b00      	cmp	r3, #0
 8006782:	d00d      	beq.n	80067a0 <HAL_RCCEx_GetPeriphCLKFreq+0x98>
            pllclk = (uint32_t)((HSE_VALUE / prediv1) * pllmul);
 8006784:	4a38      	ldr	r2, [pc, #224]	@ (8006868 <HAL_RCCEx_GetPeriphCLKFreq+0x160>)
 8006786:	697b      	ldr	r3, [r7, #20]
 8006788:	fbb2 f2f3 	udiv	r2, r2, r3
 800678c:	693b      	ldr	r3, [r7, #16]
 800678e:	fb02 f303 	mul.w	r3, r2, r3
 8006792:	61fb      	str	r3, [r7, #28]
 8006794:	e004      	b.n	80067a0 <HAL_RCCEx_GetPeriphCLKFreq+0x98>
          pllclk = (uint32_t)((HSI_VALUE >> 1) * pllmul);
 8006796:	693b      	ldr	r3, [r7, #16]
 8006798:	4a34      	ldr	r2, [pc, #208]	@ (800686c <HAL_RCCEx_GetPeriphCLKFreq+0x164>)
 800679a:	fb02 f303 	mul.w	r3, r2, r3
 800679e:	61fb      	str	r3, [r7, #28]
        if (__HAL_RCC_GET_USB_SOURCE() == RCC_USBCLKSOURCE_PLL)
 80067a0:	4b2e      	ldr	r3, [pc, #184]	@ (800685c <HAL_RCCEx_GetPeriphCLKFreq+0x154>)
 80067a2:	685b      	ldr	r3, [r3, #4]
 80067a4:	f403 0380 	and.w	r3, r3, #4194304	@ 0x400000
 80067a8:	f5b3 0f80 	cmp.w	r3, #4194304	@ 0x400000
 80067ac:	d102      	bne.n	80067b4 <HAL_RCCEx_GetPeriphCLKFreq+0xac>
          frequency = pllclk;
 80067ae:	69fb      	ldr	r3, [r7, #28]
 80067b0:	61bb      	str	r3, [r7, #24]
      break;
 80067b2:	e04a      	b.n	800684a <HAL_RCCEx_GetPeriphCLKFreq+0x142>
          frequency = (pllclk * 2) / 3;
 80067b4:	69fb      	ldr	r3, [r7, #28]
 80067b6:	005b      	lsls	r3, r3, #1
 80067b8:	4a2d      	ldr	r2, [pc, #180]	@ (8006870 <HAL_RCCEx_GetPeriphCLKFreq+0x168>)
 80067ba:	fba2 2303 	umull	r2, r3, r2, r3
 80067be:	085b      	lsrs	r3, r3, #1
 80067c0:	61bb      	str	r3, [r7, #24]
      break;
 80067c2:	e042      	b.n	800684a <HAL_RCCEx_GetPeriphCLKFreq+0x142>
      temp_reg = RCC->BDCR;
 80067c4:	4b25      	ldr	r3, [pc, #148]	@ (800685c <HAL_RCCEx_GetPeriphCLKFreq+0x154>)
 80067c6:	6a1b      	ldr	r3, [r3, #32]
 80067c8:	60fb      	str	r3, [r7, #12]
      if (((temp_reg & RCC_BDCR_RTCSEL) == RCC_RTCCLKSOURCE_LSE) && (HAL_IS_BIT_SET(temp_reg, RCC_BDCR_LSERDY)))
 80067ca:	68fb      	ldr	r3, [r7, #12]
 80067cc:	f403 7340 	and.w	r3, r3, #768	@ 0x300
 80067d0:	f5b3 7f80 	cmp.w	r3, #256	@ 0x100
 80067d4:	d108      	bne.n	80067e8 <HAL_RCCEx_GetPeriphCLKFreq+0xe0>
 80067d6:	68fb      	ldr	r3, [r7, #12]
 80067d8:	f003 0302 	and.w	r3, r3, #2
 80067dc:	2b00      	cmp	r3, #0
 80067de:	d003      	beq.n	80067e8 <HAL_RCCEx_GetPeriphCLKFreq+0xe0>
        frequency = LSE_VALUE;
 80067e0:	f44f 4300 	mov.w	r3, #32768	@ 0x8000
 80067e4:	61bb      	str	r3, [r7, #24]
 80067e6:	e01f      	b.n	8006828 <HAL_RCCEx_GetPeriphCLKFreq+0x120>
      else if (((temp_reg & RCC_BDCR_RTCSEL) == RCC_RTCCLKSOURCE_LSI) && (HAL_IS_BIT_SET(RCC->CSR, RCC_CSR_LSIRDY)))
 80067e8:	68fb      	ldr	r3, [r7, #12]
 80067ea:	f403 7340 	and.w	r3, r3, #768	@ 0x300
 80067ee:	f5b3 7f00 	cmp.w	r3, #512	@ 0x200
 80067f2:	d109      	bne.n	8006808 <HAL_RCCEx_GetPeriphCLKFreq+0x100>
 80067f4:	4b19      	ldr	r3, [pc, #100]	@ (800685c <HAL_RCCEx_GetPeriphCLKFreq+0x154>)
 80067f6:	6a5b      	ldr	r3, [r3, #36]	@ 0x24
 80067f8:	f003 0302 	and.w	r3, r3, #2
 80067fc:	2b00      	cmp	r3, #0
 80067fe:	d003      	beq.n	8006808 <HAL_RCCEx_GetPeriphCLKFreq+0x100>
        frequency = LSI_VALUE;
 8006800:	f649 4340 	movw	r3, #40000	@ 0x9c40
 8006804:	61bb      	str	r3, [r7, #24]
 8006806:	e00f      	b.n	8006828 <HAL_RCCEx_GetPeriphCLKFreq+0x120>
      else if (((temp_reg & RCC_BDCR_RTCSEL) == RCC_RTCCLKSOURCE_HSE_DIV128) && (HAL_IS_BIT_SET(RCC->CR, RCC_CR_HSERDY)))
 8006808:	68fb      	ldr	r3, [r7, #12]
 800680a:	f403 7340 	and.w	r3, r3, #768	@ 0x300
 800680e:	f5b3 7f40 	cmp.w	r3, #768	@ 0x300
 8006812:	d11c      	bne.n	800684e <HAL_RCCEx_GetPeriphCLKFreq+0x146>
 8006814:	4b11      	ldr	r3, [pc, #68]	@ (800685c <HAL_RCCEx_GetPeriphCLKFreq+0x154>)
 8006816:	681b      	ldr	r3, [r3, #0]
 8006818:	f403 3300 	and.w	r3, r3, #131072	@ 0x20000
 800681c:	2b00      	cmp	r3, #0
 800681e:	d016      	beq.n	800684e <HAL_RCCEx_GetPeriphCLKFreq+0x146>
        frequency = HSE_VALUE / 128U;
 8006820:	f24f 4324 	movw	r3, #62500	@ 0xf424
 8006824:	61bb      	str	r3, [r7, #24]
      break;
 8006826:	e012      	b.n	800684e <HAL_RCCEx_GetPeriphCLKFreq+0x146>
 8006828:	e011      	b.n	800684e <HAL_RCCEx_GetPeriphCLKFreq+0x146>
      frequency = HAL_RCC_GetPCLK2Freq() / (((__HAL_RCC_GET_ADC_SOURCE() >> RCC_CFGR_ADCPRE_Pos) + 1) * 2);
 800682a:	f7ff fe85 	bl	8006538 <HAL_RCC_GetPCLK2Freq>
 800682e:	4602      	mov	r2, r0
 8006830:	4b0a      	ldr	r3, [pc, #40]	@ (800685c <HAL_RCCEx_GetPeriphCLKFreq+0x154>)
 8006832:	685b      	ldr	r3, [r3, #4]
 8006834:	0b9b      	lsrs	r3, r3, #14
 8006836:	f003 0303 	and.w	r3, r3, #3
 800683a:	3301      	adds	r3, #1
 800683c:	005b      	lsls	r3, r3, #1
 800683e:	fbb2 f3f3 	udiv	r3, r2, r3
 8006842:	61bb      	str	r3, [r7, #24]
      break;
 8006844:	e004      	b.n	8006850 <HAL_RCCEx_GetPeriphCLKFreq+0x148>
      break;
 8006846:	bf00      	nop
 8006848:	e002      	b.n	8006850 <HAL_RCCEx_GetPeriphCLKFreq+0x148>
      break;
 800684a:	bf00      	nop
 800684c:	e000      	b.n	8006850 <HAL_RCCEx_GetPeriphCLKFreq+0x148>
      break;
 800684e:	bf00      	nop
    }
  }
  return (frequency);
 8006850:	69bb      	ldr	r3, [r7, #24]
}
 8006852:	4618      	mov	r0, r3
 8006854:	3720      	adds	r7, #32
 8006856:	46bd      	mov	sp, r7
 8006858:	bd80      	pop	{r7, pc}
 800685a:	bf00      	nop
 800685c:	40021000 	.word	0x40021000
 8006860:	0800883c 	.word	0x0800883c
 8006864:	0800884c 	.word	0x0800884c
 8006868:	007a1200 	.word	0x007a1200
 800686c:	003d0900 	.word	0x003d0900
 8006870:	aaaaaaab 	.word	0xaaaaaaab

08006874 <HAL_RTC_AlarmIRQHandler>:
  * @param  hrtc   pointer to a RTC_HandleTypeDef structure that contains
  *                the configuration information for RTC.
  * @retval None
  */
void HAL_RTC_AlarmIRQHandler(RTC_HandleTypeDef *hrtc)
{
 8006874:	b580      	push	{r7, lr}
 8006876:	b082      	sub	sp, #8
 8006878:	af00      	add	r7, sp, #0
 800687a:	6078      	str	r0, [r7, #4]
  if (__HAL_RTC_ALARM_GET_IT_SOURCE(hrtc, RTC_IT_ALRA))
 800687c:	687b      	ldr	r3, [r7, #4]
 800687e:	681b      	ldr	r3, [r3, #0]
 8006880:	681b      	ldr	r3, [r3, #0]
 8006882:	f003 0302 	and.w	r3, r3, #2
 8006886:	2b00      	cmp	r3, #0
 8006888:	d011      	beq.n	80068ae <HAL_RTC_AlarmIRQHandler+0x3a>
  {
    /* Get the status of the Interrupt */
    if (__HAL_RTC_ALARM_GET_FLAG(hrtc, RTC_FLAG_ALRAF) != (uint32_t)RESET)
 800688a:	687b      	ldr	r3, [r7, #4]
 800688c:	681b      	ldr	r3, [r3, #0]
 800688e:	685b      	ldr	r3, [r3, #4]
 8006890:	f003 0302 	and.w	r3, r3, #2
 8006894:	2b00      	cmp	r3, #0
 8006896:	d00a      	beq.n	80068ae <HAL_RTC_AlarmIRQHandler+0x3a>
    {
      /* AlarmA callback */
#if (USE_HAL_RTC_REGISTER_CALLBACKS == 1)
      hrtc->AlarmAEventCallback(hrtc);
#else
      HAL_RTC_AlarmAEventCallback(hrtc);
 8006898:	6878      	ldr	r0, [r7, #4]
 800689a:	f000 f815 	bl	80068c8 <HAL_RTC_AlarmAEventCallback>
#endif /* USE_HAL_RTC_REGISTER_CALLBACKS */

      /* Clear the Alarm interrupt pending bit */
      __HAL_RTC_ALARM_CLEAR_FLAG(hrtc, RTC_FLAG_ALRAF);
 800689e:	687b      	ldr	r3, [r7, #4]
 80068a0:	681b      	ldr	r3, [r3, #0]
 80068a2:	685a      	ldr	r2, [r3, #4]
 80068a4:	687b      	ldr	r3, [r7, #4]
 80068a6:	681b      	ldr	r3, [r3, #0]
 80068a8:	f022 0202 	bic.w	r2, r2, #2
 80068ac:	605a      	str	r2, [r3, #4]
    }
  }

  /* Clear the EXTI's line Flag for RTC Alarm */
  __HAL_RTC_ALARM_EXTI_CLEAR_FLAG();
 80068ae:	4b05      	ldr	r3, [pc, #20]	@ (80068c4 <HAL_RTC_AlarmIRQHandler+0x50>)
 80068b0:	f44f 3200 	mov.w	r2, #131072	@ 0x20000
 80068b4:	615a      	str	r2, [r3, #20]

  /* Change RTC state */
  hrtc->State = HAL_RTC_STATE_READY;
 80068b6:	687b      	ldr	r3, [r7, #4]
 80068b8:	2201      	movs	r2, #1
 80068ba:	745a      	strb	r2, [r3, #17]
}
 80068bc:	bf00      	nop
 80068be:	3708      	adds	r7, #8
 80068c0:	46bd      	mov	sp, r7
 80068c2:	bd80      	pop	{r7, pc}
 80068c4:	40010400 	.word	0x40010400

080068c8 <HAL_RTC_AlarmAEventCallback>:
  * @param  hrtc   pointer to a RTC_HandleTypeDef structure that contains
  *                the configuration information for RTC.
  * @retval None
  */
__weak void HAL_RTC_AlarmAEventCallback(RTC_HandleTypeDef *hrtc)
{
 80068c8:	b480      	push	{r7}
 80068ca:	b083      	sub	sp, #12
 80068cc:	af00      	add	r7, sp, #0
 80068ce:	6078      	str	r0, [r7, #4]
  /* Prevent unused argument(s) compilation warning */
  UNUSED(hrtc);
  /* NOTE : This function Should not be modified, when the callback is needed,
            the HAL_RTC_AlarmAEventCallback could be implemented in the user file
   */
}
 80068d0:	bf00      	nop
 80068d2:	370c      	adds	r7, #12
 80068d4:	46bd      	mov	sp, r7
 80068d6:	bc80      	pop	{r7}
 80068d8:	4770      	bx	lr

080068da <HAL_SPI_Init>:
  * @param  hspi pointer to a SPI_HandleTypeDef structure that contains
  *               the configuration information for SPI module.
  * @retval HAL status
  */
HAL_StatusTypeDef HAL_SPI_Init(SPI_HandleTypeDef *hspi)
{
 80068da:	b580      	push	{r7, lr}
 80068dc:	b082      	sub	sp, #8
 80068de:	af00      	add	r7, sp, #0
 80068e0:	6078      	str	r0, [r7, #4]
  /* Check the SPI handle allocation */
  if (hspi == NULL)
 80068e2:	687b      	ldr	r3, [r7, #4]
 80068e4:	2b00      	cmp	r3, #0
 80068e6:	d101      	bne.n	80068ec <HAL_SPI_Init+0x12>
  {
    return HAL_ERROR;
 80068e8:	2301      	movs	r3, #1
 80068ea:	e076      	b.n	80069da <HAL_SPI_Init+0x100>
  assert_param(IS_SPI_BAUDRATE_PRESCALER(hspi->Init.BaudRatePrescaler));
  assert_param(IS_SPI_FIRST_BIT(hspi->Init.FirstBit));
  /* TI mode is not supported on this device.
     TIMode parameter is mandatory equal to SPI_TIMODE_DISABLE */
  assert_param(IS_SPI_TIMODE(hspi->Init.TIMode));
  if (hspi->Init.TIMode == SPI_TIMODE_DISABLE)
 80068ec:	687b      	ldr	r3, [r7, #4]
 80068ee:	6a5b      	ldr	r3, [r3, #36]	@ 0x24
 80068f0:	2b00      	cmp	r3, #0
 80068f2:	d108      	bne.n	8006906 <HAL_SPI_Init+0x2c>
  {
    assert_param(IS_SPI_CPOL(hspi->Init.CLKPolarity));
    assert_param(IS_SPI_CPHA(hspi->Init.CLKPhase));

    if (hspi->Init.Mode == SPI_MODE_MASTER)
 80068f4:	687b      	ldr	r3, [r7, #4]
 80068f6:	685b      	ldr	r3, [r3, #4]
 80068f8:	f5b3 7f82 	cmp.w	r3, #260	@ 0x104
 80068fc:	d009      	beq.n	8006912 <HAL_SPI_Init+0x38>
      assert_param(IS_SPI_BAUDRATE_PRESCALER(hspi->Init.BaudRatePrescaler));
    }
    else
    {
      /* Baudrate prescaler not use in Motoraola Slave mode. force to default value */
      hspi->Init.BaudRatePrescaler = SPI_BAUDRATEPRESCALER_2;
 80068fe:	687b      	ldr	r3, [r7, #4]
 8006900:	2200      	movs	r2, #0
 8006902:	61da      	str	r2, [r3, #28]
 8006904:	e005      	b.n	8006912 <HAL_SPI_Init+0x38>
  else
  {
    assert_param(IS_SPI_BAUDRATE_PRESCALER(hspi->Init.BaudRatePrescaler));

    /* Force polarity and phase to TI protocaol requirements */
    hspi->Init.CLKPolarity = SPI_POLARITY_LOW;
 8006906:	687b      	ldr	r3, [r7, #4]
 8006908:	2200      	movs	r2, #0
 800690a:	611a      	str	r2, [r3, #16]
    hspi->Init.CLKPhase    = SPI_PHASE_1EDGE;
 800690c:	687b      	ldr	r3, [r7, #4]
 800690e:	2200      	movs	r2, #0
 8006910:	615a      	str	r2, [r3, #20]
  if (hspi->Init.CRCCalculation == SPI_CRCCALCULATION_ENABLE)
  {
    assert_param(IS_SPI_CRC_POLYNOMIAL(hspi->Init.CRCPolynomial));
  }
#else
  hspi->Init.CRCCalculation = SPI_CRCCALCULATION_DISABLE;
 8006912:	687b      	ldr	r3, [r7, #4]
 8006914:	2200      	movs	r2, #0
 8006916:	629a      	str	r2, [r3, #40]	@ 0x28
#endif /* USE_SPI_CRC */

  if (hspi->State == HAL_SPI_STATE_RESET)
 8006918:	687b      	ldr	r3, [r7, #4]
 800691a:	f893 3051 	ldrb.w	r3, [r3, #81]	@ 0x51
 800691e:	b2db      	uxtb	r3, r3
 8006920:	2b00      	cmp	r3, #0
 8006922:	d106      	bne.n	8006932 <HAL_SPI_Init+0x58>
  {
    /* Allocate lock resource and initialize it */
    hspi->Lock = HAL_UNLOCKED;
 8006924:	687b      	ldr	r3, [r7, #4]
 8006926:	2200      	movs	r2, #0
 8006928:	f883 2050 	strb.w	r2, [r3, #80]	@ 0x50

    /* Init the low level hardware : GPIO, CLOCK, NVIC... */
    hspi->MspInitCallback(hspi);
#else
    /* Init the low level hardware : GPIO, CLOCK, NVIC... */
    HAL_SPI_MspInit(hspi);
 800692c:	6878      	ldr	r0, [r7, #4]
 800692e:	f7fc ff75 	bl	800381c <HAL_SPI_MspInit>
#endif /* USE_HAL_SPI_REGISTER_CALLBACKS */
  }

  hspi->State = HAL_SPI_STATE_BUSY;
 8006932:	687b      	ldr	r3, [r7, #4]
 8006934:	2202      	movs	r2, #2
 8006936:	f883 2051 	strb.w	r2, [r3, #81]	@ 0x51

  /* Disable the selected SPI peripheral */
  __HAL_SPI_DISABLE(hspi);
 800693a:	687b      	ldr	r3, [r7, #4]
 800693c:	681b      	ldr	r3, [r3, #0]
 800693e:	681a      	ldr	r2, [r3, #0]
 8006940:	687b      	ldr	r3, [r7, #4]
 8006942:	681b      	ldr	r3, [r3, #0]
 8006944:	f022 0240 	bic.w	r2, r2, #64	@ 0x40
 8006948:	601a      	str	r2, [r3, #0]

  /*----------------------- SPIx CR1 & CR2 Configuration ---------------------*/
  /* Configure : SPI Mode, Communication Mode, Data size, Clock polarity and phase, NSS management,
  Communication speed, First bit and CRC calculation state */
  WRITE_REG(hspi->Instance->CR1, ((hspi->Init.Mode & (SPI_CR1_MSTR | SPI_CR1_SSI)) |
 800694a:	687b      	ldr	r3, [r7, #4]
 800694c:	685b      	ldr	r3, [r3, #4]
 800694e:	f403 7282 	and.w	r2, r3, #260	@ 0x104
 8006952:	687b      	ldr	r3, [r7, #4]
 8006954:	689b      	ldr	r3, [r3, #8]
 8006956:	f403 4304 	and.w	r3, r3, #33792	@ 0x8400
 800695a:	431a      	orrs	r2, r3
 800695c:	687b      	ldr	r3, [r7, #4]
 800695e:	68db      	ldr	r3, [r3, #12]
 8006960:	f403 6300 	and.w	r3, r3, #2048	@ 0x800
 8006964:	431a      	orrs	r2, r3
 8006966:	687b      	ldr	r3, [r7, #4]
 8006968:	691b      	ldr	r3, [r3, #16]
 800696a:	f003 0302 	and.w	r3, r3, #2
 800696e:	431a      	orrs	r2, r3
 8006970:	687b      	ldr	r3, [r7, #4]
 8006972:	695b      	ldr	r3, [r3, #20]
 8006974:	f003 0301 	and.w	r3, r3, #1
 8006978:	431a      	orrs	r2, r3
 800697a:	687b      	ldr	r3, [r7, #4]
 800697c:	699b      	ldr	r3, [r3, #24]
 800697e:	f403 7300 	and.w	r3, r3, #512	@ 0x200
 8006982:	431a      	orrs	r2, r3
 8006984:	687b      	ldr	r3, [r7, #4]
 8006986:	69db      	ldr	r3, [r3, #28]
 8006988:	f003 0338 	and.w	r3, r3, #56	@ 0x38
 800698c:	431a      	orrs	r2, r3
 800698e:	687b      	ldr	r3, [r7, #4]
 8006990:	6a1b      	ldr	r3, [r3, #32]
 8006992:	f003 0380 	and.w	r3, r3, #128	@ 0x80
 8006996:	ea42 0103 	orr.w	r1, r2, r3
 800699a:	687b      	ldr	r3, [r7, #4]
 800699c:	6a9b      	ldr	r3, [r3, #40]	@ 0x28
 800699e:	f403 5200 	and.w	r2, r3, #8192	@ 0x2000
 80069a2:	687b      	ldr	r3, [r7, #4]
 80069a4:	681b      	ldr	r3, [r3, #0]
 80069a6:	430a      	orrs	r2, r1
 80069a8:	601a      	str	r2, [r3, #0]
                                  (hspi->Init.BaudRatePrescaler & SPI_CR1_BR_Msk) |
                                  (hspi->Init.FirstBit  & SPI_CR1_LSBFIRST) |
                                  (hspi->Init.CRCCalculation & SPI_CR1_CRCEN)));

  /* Configure : NSS management */
  WRITE_REG(hspi->Instance->CR2, ((hspi->Init.NSS >> 16U) & SPI_CR2_SSOE));
 80069aa:	687b      	ldr	r3, [r7, #4]
 80069ac:	699b      	ldr	r3, [r3, #24]
 80069ae:	0c1a      	lsrs	r2, r3, #16
 80069b0:	687b      	ldr	r3, [r7, #4]
 80069b2:	681b      	ldr	r3, [r3, #0]
 80069b4:	f002 0204 	and.w	r2, r2, #4
 80069b8:	605a      	str	r2, [r3, #4]
  }
#endif /* USE_SPI_CRC */

#if defined(SPI_I2SCFGR_I2SMOD)
  /* Activate the SPI mode (Make sure that I2SMOD bit in I2SCFGR register is reset) */
  CLEAR_BIT(hspi->Instance->I2SCFGR, SPI_I2SCFGR_I2SMOD);
 80069ba:	687b      	ldr	r3, [r7, #4]
 80069bc:	681b      	ldr	r3, [r3, #0]
 80069be:	69da      	ldr	r2, [r3, #28]
 80069c0:	687b      	ldr	r3, [r7, #4]
 80069c2:	681b      	ldr	r3, [r3, #0]
 80069c4:	f422 6200 	bic.w	r2, r2, #2048	@ 0x800
 80069c8:	61da      	str	r2, [r3, #28]
#endif /* SPI_I2SCFGR_I2SMOD */

  hspi->ErrorCode = HAL_SPI_ERROR_NONE;
 80069ca:	687b      	ldr	r3, [r7, #4]
 80069cc:	2200      	movs	r2, #0
 80069ce:	655a      	str	r2, [r3, #84]	@ 0x54
  hspi->State     = HAL_SPI_STATE_READY;
 80069d0:	687b      	ldr	r3, [r7, #4]
 80069d2:	2201      	movs	r2, #1
 80069d4:	f883 2051 	strb.w	r2, [r3, #81]	@ 0x51

  return HAL_OK;
 80069d8:	2300      	movs	r3, #0
}
 80069da:	4618      	mov	r0, r3
 80069dc:	3708      	adds	r7, #8
 80069de:	46bd      	mov	sp, r7
 80069e0:	bd80      	pop	{r7, pc}

080069e2 <HAL_SPI_Transmit>:
  * @param  Size amount of data to be sent
  * @param  Timeout Timeout duration
  * @retval HAL status
  */
HAL_StatusTypeDef HAL_SPI_Transmit(SPI_HandleTypeDef *hspi, const uint8_t *pData, uint16_t Size, uint32_t Timeout)
{
 80069e2:	b580      	push	{r7, lr}
 80069e4:	b088      	sub	sp, #32
 80069e6:	af00      	add	r7, sp, #0
 80069e8:	60f8      	str	r0, [r7, #12]
 80069ea:	60b9      	str	r1, [r7, #8]
 80069ec:	603b      	str	r3, [r7, #0]
 80069ee:	4613      	mov	r3, r2
 80069f0:	80fb      	strh	r3, [r7, #6]

  /* Check Direction parameter */
  assert_param(IS_SPI_DIRECTION_2LINES_OR_1LINE(hspi->Init.Direction));

  /* Init tickstart for timeout management*/
  tickstart = HAL_GetTick();
 80069f2:	f7fd f97d 	bl	8003cf0 <HAL_GetTick>
 80069f6:	61f8      	str	r0, [r7, #28]
  initial_TxXferCount = Size;
 80069f8:	88fb      	ldrh	r3, [r7, #6]
 80069fa:	837b      	strh	r3, [r7, #26]

  if (hspi->State != HAL_SPI_STATE_READY)
 80069fc:	68fb      	ldr	r3, [r7, #12]
 80069fe:	f893 3051 	ldrb.w	r3, [r3, #81]	@ 0x51
 8006a02:	b2db      	uxtb	r3, r3
 8006a04:	2b01      	cmp	r3, #1
 8006a06:	d001      	beq.n	8006a0c <HAL_SPI_Transmit+0x2a>
  {
    return HAL_BUSY;
 8006a08:	2302      	movs	r3, #2
 8006a0a:	e12a      	b.n	8006c62 <HAL_SPI_Transmit+0x280>
  }

  if ((pData == NULL) || (Size == 0U))
 8006a0c:	68bb      	ldr	r3, [r7, #8]
 8006a0e:	2b00      	cmp	r3, #0
 8006a10:	d002      	beq.n	8006a18 <HAL_SPI_Transmit+0x36>
 8006a12:	88fb      	ldrh	r3, [r7, #6]
 8006a14:	2b00      	cmp	r3, #0
 8006a16:	d101      	bne.n	8006a1c <HAL_SPI_Transmit+0x3a>
  {
    return HAL_ERROR;
 8006a18:	2301      	movs	r3, #1
 8006a1a:	e122      	b.n	8006c62 <HAL_SPI_Transmit+0x280>
  }

  /* Process Locked */
  __HAL_LOCK(hspi);
 8006a1c:	68fb      	ldr	r3, [r7, #12]
 8006a1e:	f893 3050 	ldrb.w	r3, [r3, #80]	@ 0x50
 8006a22:	2b01      	cmp	r3, #1
 8006a24:	d101      	bne.n	8006a2a <HAL_SPI_Transmit+0x48>
 8006a26:	2302      	movs	r3, #2
 8006a28:	e11b      	b.n	8006c62 <HAL_SPI_Transmit+0x280>
 8006a2a:	68fb      	ldr	r3, [r7, #12]
 8006a2c:	2201      	movs	r2, #1
 8006a2e:	f883 2050 	strb.w	r2, [r3, #80]	@ 0x50

  /* Set the transaction information */
  hspi->State       = HAL_SPI_STATE_BUSY_TX;
 8006a32:	68fb      	ldr	r3, [r7, #12]
 8006a34:	2203      	movs	r2, #3
 8006a36:	f883 2051 	strb.w	r2, [r3, #81]	@ 0x51
  hspi->ErrorCode   = HAL_SPI_ERROR_NONE;
 8006a3a:	68fb      	ldr	r3, [r7, #12]
 8006a3c:	2200      	movs	r2, #0
 8006a3e:	655a      	str	r2, [r3, #84]	@ 0x54
  hspi->pTxBuffPtr  = (const uint8_t *)pData;
 8006a40:	68fb      	ldr	r3, [r7, #12]
 8006a42:	68ba      	ldr	r2, [r7, #8]
 8006a44:	631a      	str	r2, [r3, #48]	@ 0x30
  hspi->TxXferSize  = Size;
 8006a46:	68fb      	ldr	r3, [r7, #12]
 8006a48:	88fa      	ldrh	r2, [r7, #6]
 8006a4a:	869a      	strh	r2, [r3, #52]	@ 0x34
  hspi->TxXferCount = Size;
 8006a4c:	68fb      	ldr	r3, [r7, #12]
 8006a4e:	88fa      	ldrh	r2, [r7, #6]
 8006a50:	86da      	strh	r2, [r3, #54]	@ 0x36

  /*Init field not used in handle to zero */
  hspi->pRxBuffPtr  = (uint8_t *)NULL;
 8006a52:	68fb      	ldr	r3, [r7, #12]
 8006a54:	2200      	movs	r2, #0
 8006a56:	639a      	str	r2, [r3, #56]	@ 0x38
  hspi->RxXferSize  = 0U;
 8006a58:	68fb      	ldr	r3, [r7, #12]
 8006a5a:	2200      	movs	r2, #0
 8006a5c:	879a      	strh	r2, [r3, #60]	@ 0x3c
  hspi->RxXferCount = 0U;
 8006a5e:	68fb      	ldr	r3, [r7, #12]
 8006a60:	2200      	movs	r2, #0
 8006a62:	87da      	strh	r2, [r3, #62]	@ 0x3e
  hspi->TxISR       = NULL;
 8006a64:	68fb      	ldr	r3, [r7, #12]
 8006a66:	2200      	movs	r2, #0
 8006a68:	645a      	str	r2, [r3, #68]	@ 0x44
  hspi->RxISR       = NULL;
 8006a6a:	68fb      	ldr	r3, [r7, #12]
 8006a6c:	2200      	movs	r2, #0
 8006a6e:	641a      	str	r2, [r3, #64]	@ 0x40

  /* Configure communication direction : 1Line */
  if (hspi->Init.Direction == SPI_DIRECTION_1LINE)
 8006a70:	68fb      	ldr	r3, [r7, #12]
 8006a72:	689b      	ldr	r3, [r3, #8]
 8006a74:	f5b3 4f00 	cmp.w	r3, #32768	@ 0x8000
 8006a78:	d10f      	bne.n	8006a9a <HAL_SPI_Transmit+0xb8>
  {
    /* Disable SPI Peripheral before set 1Line direction (BIDIOE bit) */
    __HAL_SPI_DISABLE(hspi);
 8006a7a:	68fb      	ldr	r3, [r7, #12]
 8006a7c:	681b      	ldr	r3, [r3, #0]
 8006a7e:	681a      	ldr	r2, [r3, #0]
 8006a80:	68fb      	ldr	r3, [r7, #12]
 8006a82:	681b      	ldr	r3, [r3, #0]
 8006a84:	f022 0240 	bic.w	r2, r2, #64	@ 0x40
 8006a88:	601a      	str	r2, [r3, #0]
    SPI_1LINE_TX(hspi);
 8006a8a:	68fb      	ldr	r3, [r7, #12]
 8006a8c:	681b      	ldr	r3, [r3, #0]
 8006a8e:	681a      	ldr	r2, [r3, #0]
 8006a90:	68fb      	ldr	r3, [r7, #12]
 8006a92:	681b      	ldr	r3, [r3, #0]
 8006a94:	f442 4280 	orr.w	r2, r2, #16384	@ 0x4000
 8006a98:	601a      	str	r2, [r3, #0]
    SPI_RESET_CRC(hspi);
  }
#endif /* USE_SPI_CRC */

  /* Check if the SPI is already enabled */
  if ((hspi->Instance->CR1 & SPI_CR1_SPE) != SPI_CR1_SPE)
 8006a9a:	68fb      	ldr	r3, [r7, #12]
 8006a9c:	681b      	ldr	r3, [r3, #0]
 8006a9e:	681b      	ldr	r3, [r3, #0]
 8006aa0:	f003 0340 	and.w	r3, r3, #64	@ 0x40
 8006aa4:	2b40      	cmp	r3, #64	@ 0x40
 8006aa6:	d007      	beq.n	8006ab8 <HAL_SPI_Transmit+0xd6>
  {
    /* Enable SPI peripheral */
    __HAL_SPI_ENABLE(hspi);
 8006aa8:	68fb      	ldr	r3, [r7, #12]
 8006aaa:	681b      	ldr	r3, [r3, #0]
 8006aac:	681a      	ldr	r2, [r3, #0]
 8006aae:	68fb      	ldr	r3, [r7, #12]
 8006ab0:	681b      	ldr	r3, [r3, #0]
 8006ab2:	f042 0240 	orr.w	r2, r2, #64	@ 0x40
 8006ab6:	601a      	str	r2, [r3, #0]
  }

  /* Transmit data in 16 Bit mode */
  if (hspi->Init.DataSize == SPI_DATASIZE_16BIT)
 8006ab8:	68fb      	ldr	r3, [r7, #12]
 8006aba:	68db      	ldr	r3, [r3, #12]
 8006abc:	f5b3 6f00 	cmp.w	r3, #2048	@ 0x800
 8006ac0:	d152      	bne.n	8006b68 <HAL_SPI_Transmit+0x186>
  {
    if ((hspi->Init.Mode == SPI_MODE_SLAVE) || (initial_TxXferCount == 0x01U))
 8006ac2:	68fb      	ldr	r3, [r7, #12]
 8006ac4:	685b      	ldr	r3, [r3, #4]
 8006ac6:	2b00      	cmp	r3, #0
 8006ac8:	d002      	beq.n	8006ad0 <HAL_SPI_Transmit+0xee>
 8006aca:	8b7b      	ldrh	r3, [r7, #26]
 8006acc:	2b01      	cmp	r3, #1
 8006ace:	d145      	bne.n	8006b5c <HAL_SPI_Transmit+0x17a>
    {
      hspi->Instance->DR = *((const uint16_t *)hspi->pTxBuffPtr);
 8006ad0:	68fb      	ldr	r3, [r7, #12]
 8006ad2:	6b1b      	ldr	r3, [r3, #48]	@ 0x30
 8006ad4:	881a      	ldrh	r2, [r3, #0]
 8006ad6:	68fb      	ldr	r3, [r7, #12]
 8006ad8:	681b      	ldr	r3, [r3, #0]
 8006ada:	60da      	str	r2, [r3, #12]
      hspi->pTxBuffPtr += sizeof(uint16_t);
 8006adc:	68fb      	ldr	r3, [r7, #12]
 8006ade:	6b1b      	ldr	r3, [r3, #48]	@ 0x30
 8006ae0:	1c9a      	adds	r2, r3, #2
 8006ae2:	68fb      	ldr	r3, [r7, #12]
 8006ae4:	631a      	str	r2, [r3, #48]	@ 0x30
      hspi->TxXferCount--;
 8006ae6:	68fb      	ldr	r3, [r7, #12]
 8006ae8:	8edb      	ldrh	r3, [r3, #54]	@ 0x36
 8006aea:	b29b      	uxth	r3, r3
 8006aec:	3b01      	subs	r3, #1
 8006aee:	b29a      	uxth	r2, r3
 8006af0:	68fb      	ldr	r3, [r7, #12]
 8006af2:	86da      	strh	r2, [r3, #54]	@ 0x36
    }
    /* Transmit data in 16 Bit mode */
    while (hspi->TxXferCount > 0U)
 8006af4:	e032      	b.n	8006b5c <HAL_SPI_Transmit+0x17a>
    {
      /* Wait until TXE flag is set to send data */
      if (__HAL_SPI_GET_FLAG(hspi, SPI_FLAG_TXE))
 8006af6:	68fb      	ldr	r3, [r7, #12]
 8006af8:	681b      	ldr	r3, [r3, #0]
 8006afa:	689b      	ldr	r3, [r3, #8]
 8006afc:	f003 0302 	and.w	r3, r3, #2
 8006b00:	2b02      	cmp	r3, #2
 8006b02:	d112      	bne.n	8006b2a <HAL_SPI_Transmit+0x148>
      {
        hspi->Instance->DR = *((const uint16_t *)hspi->pTxBuffPtr);
 8006b04:	68fb      	ldr	r3, [r7, #12]
 8006b06:	6b1b      	ldr	r3, [r3, #48]	@ 0x30
 8006b08:	881a      	ldrh	r2, [r3, #0]
 8006b0a:	68fb      	ldr	r3, [r7, #12]
 8006b0c:	681b      	ldr	r3, [r3, #0]
 8006b0e:	60da      	str	r2, [r3, #12]
        hspi->pTxBuffPtr += sizeof(uint16_t);
 8006b10:	68fb      	ldr	r3, [r7, #12]
 8006b12:	6b1b      	ldr	r3, [r3, #48]	@ 0x30
 8006b14:	1c9a      	adds	r2, r3, #2
 8006b16:	68fb      	ldr	r3, [r7, #12]
 8006b18:	631a      	str	r2, [r3, #48]	@ 0x30
        hspi->TxXferCount--;
 8006b1a:	68fb      	ldr	r3, [r7, #12]
 8006b1c:	8edb      	ldrh	r3, [r3, #54]	@ 0x36
 8006b1e:	b29b      	uxth	r3, r3
 8006b20:	3b01      	subs	r3, #1
 8006b22:	b29a      	uxth	r2, r3
 8006b24:	68fb      	ldr	r3, [r7, #12]
 8006b26:	86da      	strh	r2, [r3, #54]	@ 0x36
 8006b28:	e018      	b.n	8006b5c <HAL_SPI_Transmit+0x17a>
      }
      else
      {
        /* Timeout management */
        if ((((HAL_GetTick() - tickstart) >=  Timeout) && (Timeout != HAL_MAX_DELAY)) || (Timeout == 0U))
 8006b2a:	f7fd f8e1 	bl	8003cf0 <HAL_GetTick>
 8006b2e:	4602      	mov	r2, r0
 8006b30:	69fb      	ldr	r3, [r7, #28]
 8006b32:	1ad3      	subs	r3, r2, r3
 8006b34:	683a      	ldr	r2, [r7, #0]
 8006b36:	429a      	cmp	r2, r3
 8006b38:	d803      	bhi.n	8006b42 <HAL_SPI_Transmit+0x160>
 8006b3a:	683b      	ldr	r3, [r7, #0]
 8006b3c:	f1b3 3fff 	cmp.w	r3, #4294967295
 8006b40:	d102      	bne.n	8006b48 <HAL_SPI_Transmit+0x166>
 8006b42:	683b      	ldr	r3, [r7, #0]
 8006b44:	2b00      	cmp	r3, #0
 8006b46:	d109      	bne.n	8006b5c <HAL_SPI_Transmit+0x17a>
        {
          hspi->State = HAL_SPI_STATE_READY;
 8006b48:	68fb      	ldr	r3, [r7, #12]
 8006b4a:	2201      	movs	r2, #1
 8006b4c:	f883 2051 	strb.w	r2, [r3, #81]	@ 0x51
          __HAL_UNLOCK(hspi);
 8006b50:	68fb      	ldr	r3, [r7, #12]
 8006b52:	2200      	movs	r2, #0
 8006b54:	f883 2050 	strb.w	r2, [r3, #80]	@ 0x50
          return HAL_TIMEOUT;
 8006b58:	2303      	movs	r3, #3
 8006b5a:	e082      	b.n	8006c62 <HAL_SPI_Transmit+0x280>
    while (hspi->TxXferCount > 0U)
 8006b5c:	68fb      	ldr	r3, [r7, #12]
 8006b5e:	8edb      	ldrh	r3, [r3, #54]	@ 0x36
 8006b60:	b29b      	uxth	r3, r3
 8006b62:	2b00      	cmp	r3, #0
 8006b64:	d1c7      	bne.n	8006af6 <HAL_SPI_Transmit+0x114>
 8006b66:	e053      	b.n	8006c10 <HAL_SPI_Transmit+0x22e>
    }
  }
  /* Transmit data in 8 Bit mode */
  else
  {
    if ((hspi->Init.Mode == SPI_MODE_SLAVE) || (initial_TxXferCount == 0x01U))
 8006b68:	68fb      	ldr	r3, [r7, #12]
 8006b6a:	685b      	ldr	r3, [r3, #4]
 8006b6c:	2b00      	cmp	r3, #0
 8006b6e:	d002      	beq.n	8006b76 <HAL_SPI_Transmit+0x194>
 8006b70:	8b7b      	ldrh	r3, [r7, #26]
 8006b72:	2b01      	cmp	r3, #1
 8006b74:	d147      	bne.n	8006c06 <HAL_SPI_Transmit+0x224>
    {
      *((__IO uint8_t *)&hspi->Instance->DR) = *((const uint8_t *)hspi->pTxBuffPtr);
 8006b76:	68fb      	ldr	r3, [r7, #12]
 8006b78:	6b1a      	ldr	r2, [r3, #48]	@ 0x30
 8006b7a:	68fb      	ldr	r3, [r7, #12]
 8006b7c:	681b      	ldr	r3, [r3, #0]
 8006b7e:	330c      	adds	r3, #12
 8006b80:	7812      	ldrb	r2, [r2, #0]
 8006b82:	701a      	strb	r2, [r3, #0]
      hspi->pTxBuffPtr += sizeof(uint8_t);
 8006b84:	68fb      	ldr	r3, [r7, #12]
 8006b86:	6b1b      	ldr	r3, [r3, #48]	@ 0x30
 8006b88:	1c5a      	adds	r2, r3, #1
 8006b8a:	68fb      	ldr	r3, [r7, #12]
 8006b8c:	631a      	str	r2, [r3, #48]	@ 0x30
      hspi->TxXferCount--;
 8006b8e:	68fb      	ldr	r3, [r7, #12]
 8006b90:	8edb      	ldrh	r3, [r3, #54]	@ 0x36
 8006b92:	b29b      	uxth	r3, r3
 8006b94:	3b01      	subs	r3, #1
 8006b96:	b29a      	uxth	r2, r3
 8006b98:	68fb      	ldr	r3, [r7, #12]
 8006b9a:	86da      	strh	r2, [r3, #54]	@ 0x36
    }
    while (hspi->TxXferCount > 0U)
 8006b9c:	e033      	b.n	8006c06 <HAL_SPI_Transmit+0x224>
    {
      /* Wait until TXE flag is set to send data */
      if (__HAL_SPI_GET_FLAG(hspi, SPI_FLAG_TXE))
 8006b9e:	68fb      	ldr	r3, [r7, #12]
 8006ba0:	681b      	ldr	r3, [r3, #0]
 8006ba2:	689b      	ldr	r3, [r3, #8]
 8006ba4:	f003 0302 	and.w	r3, r3, #2
 8006ba8:	2b02      	cmp	r3, #2
 8006baa:	d113      	bne.n	8006bd4 <HAL_SPI_Transmit+0x1f2>
      {
        *((__IO uint8_t *)&hspi->Instance->DR) = *((const uint8_t *)hspi->pTxBuffPtr);
 8006bac:	68fb      	ldr	r3, [r7, #12]
 8006bae:	6b1a      	ldr	r2, [r3, #48]	@ 0x30
 8006bb0:	68fb      	ldr	r3, [r7, #12]
 8006bb2:	681b      	ldr	r3, [r3, #0]
 8006bb4:	330c      	adds	r3, #12
 8006bb6:	7812      	ldrb	r2, [r2, #0]
 8006bb8:	701a      	strb	r2, [r3, #0]
        hspi->pTxBuffPtr += sizeof(uint8_t);
 8006bba:	68fb      	ldr	r3, [r7, #12]
 8006bbc:	6b1b      	ldr	r3, [r3, #48]	@ 0x30
 8006bbe:	1c5a      	adds	r2, r3, #1
 8006bc0:	68fb      	ldr	r3, [r7, #12]
 8006bc2:	631a      	str	r2, [r3, #48]	@ 0x30
        hspi->TxXferCount--;
 8006bc4:	68fb      	ldr	r3, [r7, #12]
 8006bc6:	8edb      	ldrh	r3, [r3, #54]	@ 0x36
 8006bc8:	b29b      	uxth	r3, r3
 8006bca:	3b01      	subs	r3, #1
 8006bcc:	b29a      	uxth	r2, r3
 8006bce:	68fb      	ldr	r3, [r7, #12]
 8006bd0:	86da      	strh	r2, [r3, #54]	@ 0x36
 8006bd2:	e018      	b.n	8006c06 <HAL_SPI_Transmit+0x224>
      }
      else
      {
        /* Timeout management */
        if ((((HAL_GetTick() - tickstart) >=  Timeout) && (Timeout != HAL_MAX_DELAY)) || (Timeout == 0U))
 8006bd4:	f7fd f88c 	bl	8003cf0 <HAL_GetTick>
 8006bd8:	4602      	mov	r2, r0
 8006bda:	69fb      	ldr	r3, [r7, #28]
 8006bdc:	1ad3      	subs	r3, r2, r3
 8006bde:	683a      	ldr	r2, [r7, #0]
 8006be0:	429a      	cmp	r2, r3
 8006be2:	d803      	bhi.n	8006bec <HAL_SPI_Transmit+0x20a>
 8006be4:	683b      	ldr	r3, [r7, #0]
 8006be6:	f1b3 3fff 	cmp.w	r3, #4294967295
 8006bea:	d102      	bne.n	8006bf2 <HAL_SPI_Transmit+0x210>
 8006bec:	683b      	ldr	r3, [r7, #0]
 8006bee:	2b00      	cmp	r3, #0
 8006bf0:	d109      	bne.n	8006c06 <HAL_SPI_Transmit+0x224>
        {
          hspi->State = HAL_SPI_STATE_READY;
 8006bf2:	68fb      	ldr	r3, [r7, #12]
 8006bf4:	2201      	movs	r2, #1
 8006bf6:	f883 2051 	strb.w	r2, [r3, #81]	@ 0x51
          __HAL_UNLOCK(hspi);
 8006bfa:	68fb      	ldr	r3, [r7, #12]
 8006bfc:	2200      	movs	r2, #0
 8006bfe:	f883 2050 	strb.w	r2, [r3, #80]	@ 0x50
          return HAL_TIMEOUT;
 8006c02:	2303      	movs	r3, #3
 8006c04:	e02d      	b.n	8006c62 <HAL_SPI_Transmit+0x280>
    while (hspi->TxXferCount > 0U)
 8006c06:	68fb      	ldr	r3, [r7, #12]
 8006c08:	8edb      	ldrh	r3, [r3, #54]	@ 0x36
 8006c0a:	b29b      	uxth	r3, r3
 8006c0c:	2b00      	cmp	r3, #0
 8006c0e:	d1c6      	bne.n	8006b9e <HAL_SPI_Transmit+0x1bc>
    SET_BIT(hspi->Instance->CR1, SPI_CR1_CRCNEXT);
  }
#endif /* USE_SPI_CRC */

  /* Check the end of the transaction */
  if (SPI_EndRxTxTransaction(hspi, Timeout, tickstart) != HAL_OK)
 8006c10:	69fa      	ldr	r2, [r7, #28]
 8006c12:	6839      	ldr	r1, [r7, #0]
 8006c14:	68f8      	ldr	r0, [r7, #12]
 8006c16:	f000 fbc5 	bl	80073a4 <SPI_EndRxTxTransaction>
 8006c1a:	4603      	mov	r3, r0
 8006c1c:	2b00      	cmp	r3, #0
 8006c1e:	d002      	beq.n	8006c26 <HAL_SPI_Transmit+0x244>
  {
    hspi->ErrorCode = HAL_SPI_ERROR_FLAG;
 8006c20:	68fb      	ldr	r3, [r7, #12]
 8006c22:	2220      	movs	r2, #32
 8006c24:	655a      	str	r2, [r3, #84]	@ 0x54
  }

  /* Clear overrun flag in 2 Lines communication mode because received is not read */
  if (hspi->Init.Direction == SPI_DIRECTION_2LINES)
 8006c26:	68fb      	ldr	r3, [r7, #12]
 8006c28:	689b      	ldr	r3, [r3, #8]
 8006c2a:	2b00      	cmp	r3, #0
 8006c2c:	d10a      	bne.n	8006c44 <HAL_SPI_Transmit+0x262>
  {
    __HAL_SPI_CLEAR_OVRFLAG(hspi);
 8006c2e:	2300      	movs	r3, #0
 8006c30:	617b      	str	r3, [r7, #20]
 8006c32:	68fb      	ldr	r3, [r7, #12]
 8006c34:	681b      	ldr	r3, [r3, #0]
 8006c36:	68db      	ldr	r3, [r3, #12]
 8006c38:	617b      	str	r3, [r7, #20]
 8006c3a:	68fb      	ldr	r3, [r7, #12]
 8006c3c:	681b      	ldr	r3, [r3, #0]
 8006c3e:	689b      	ldr	r3, [r3, #8]
 8006c40:	617b      	str	r3, [r7, #20]
 8006c42:	697b      	ldr	r3, [r7, #20]
  }

  hspi->State = HAL_SPI_STATE_READY;
 8006c44:	68fb      	ldr	r3, [r7, #12]
 8006c46:	2201      	movs	r2, #1
 8006c48:	f883 2051 	strb.w	r2, [r3, #81]	@ 0x51
  /* Process Unlocked */
  __HAL_UNLOCK(hspi);
 8006c4c:	68fb      	ldr	r3, [r7, #12]
 8006c4e:	2200      	movs	r2, #0
 8006c50:	f883 2050 	strb.w	r2, [r3, #80]	@ 0x50

  if (hspi->ErrorCode != HAL_SPI_ERROR_NONE)
 8006c54:	68fb      	ldr	r3, [r7, #12]
 8006c56:	6d5b      	ldr	r3, [r3, #84]	@ 0x54
 8006c58:	2b00      	cmp	r3, #0
 8006c5a:	d001      	beq.n	8006c60 <HAL_SPI_Transmit+0x27e>
  {
    return HAL_ERROR;
 8006c5c:	2301      	movs	r3, #1
 8006c5e:	e000      	b.n	8006c62 <HAL_SPI_Transmit+0x280>
  }
  else
  {
    return HAL_OK;
 8006c60:	2300      	movs	r3, #0
  }
}
 8006c62:	4618      	mov	r0, r3
 8006c64:	3720      	adds	r7, #32
 8006c66:	46bd      	mov	sp, r7
 8006c68:	bd80      	pop	{r7, pc}

08006c6a <HAL_SPI_Receive>:
  * @param  Size amount of data to be received
  * @param  Timeout Timeout duration
  * @retval HAL status
  */
HAL_StatusTypeDef HAL_SPI_Receive(SPI_HandleTypeDef *hspi, uint8_t *pData, uint16_t Size, uint32_t Timeout)
{
 8006c6a:	b580      	push	{r7, lr}
 8006c6c:	b088      	sub	sp, #32
 8006c6e:	af02      	add	r7, sp, #8
 8006c70:	60f8      	str	r0, [r7, #12]
 8006c72:	60b9      	str	r1, [r7, #8]
 8006c74:	603b      	str	r3, [r7, #0]
 8006c76:	4613      	mov	r3, r2
 8006c78:	80fb      	strh	r3, [r7, #6]
#if (USE_SPI_CRC != 0U)
  __IO uint32_t tmpreg = 0U;
#endif /* USE_SPI_CRC */
  uint32_t tickstart;

  if (hspi->State != HAL_SPI_STATE_READY)
 8006c7a:	68fb      	ldr	r3, [r7, #12]
 8006c7c:	f893 3051 	ldrb.w	r3, [r3, #81]	@ 0x51
 8006c80:	b2db      	uxtb	r3, r3
 8006c82:	2b01      	cmp	r3, #1
 8006c84:	d001      	beq.n	8006c8a <HAL_SPI_Receive+0x20>
  {
    return HAL_BUSY;
 8006c86:	2302      	movs	r3, #2
 8006c88:	e104      	b.n	8006e94 <HAL_SPI_Receive+0x22a>
  }

  if ((hspi->Init.Mode == SPI_MODE_MASTER) && (hspi->Init.Direction == SPI_DIRECTION_2LINES))
 8006c8a:	68fb      	ldr	r3, [r7, #12]
 8006c8c:	685b      	ldr	r3, [r3, #4]
 8006c8e:	f5b3 7f82 	cmp.w	r3, #260	@ 0x104
 8006c92:	d112      	bne.n	8006cba <HAL_SPI_Receive+0x50>
 8006c94:	68fb      	ldr	r3, [r7, #12]
 8006c96:	689b      	ldr	r3, [r3, #8]
 8006c98:	2b00      	cmp	r3, #0
 8006c9a:	d10e      	bne.n	8006cba <HAL_SPI_Receive+0x50>
  {
    hspi->State = HAL_SPI_STATE_BUSY_RX;
 8006c9c:	68fb      	ldr	r3, [r7, #12]
 8006c9e:	2204      	movs	r2, #4
 8006ca0:	f883 2051 	strb.w	r2, [r3, #81]	@ 0x51
    /* Call transmit-receive function to send Dummy data on Tx line and generate clock on CLK line */
    return HAL_SPI_TransmitReceive(hspi, pData, pData, Size, Timeout);
 8006ca4:	88fa      	ldrh	r2, [r7, #6]
 8006ca6:	683b      	ldr	r3, [r7, #0]
 8006ca8:	9300      	str	r3, [sp, #0]
 8006caa:	4613      	mov	r3, r2
 8006cac:	68ba      	ldr	r2, [r7, #8]
 8006cae:	68b9      	ldr	r1, [r7, #8]
 8006cb0:	68f8      	ldr	r0, [r7, #12]
 8006cb2:	f000 f8f3 	bl	8006e9c <HAL_SPI_TransmitReceive>
 8006cb6:	4603      	mov	r3, r0
 8006cb8:	e0ec      	b.n	8006e94 <HAL_SPI_Receive+0x22a>
  }

  /* Init tickstart for timeout management*/
  tickstart = HAL_GetTick();
 8006cba:	f7fd f819 	bl	8003cf0 <HAL_GetTick>
 8006cbe:	6178      	str	r0, [r7, #20]

  if ((pData == NULL) || (Size == 0U))
 8006cc0:	68bb      	ldr	r3, [r7, #8]
 8006cc2:	2b00      	cmp	r3, #0
 8006cc4:	d002      	beq.n	8006ccc <HAL_SPI_Receive+0x62>
 8006cc6:	88fb      	ldrh	r3, [r7, #6]
 8006cc8:	2b00      	cmp	r3, #0
 8006cca:	d101      	bne.n	8006cd0 <HAL_SPI_Receive+0x66>
  {
    return HAL_ERROR;
 8006ccc:	2301      	movs	r3, #1
 8006cce:	e0e1      	b.n	8006e94 <HAL_SPI_Receive+0x22a>
  }

  /* Process Locked */
  __HAL_LOCK(hspi);
 8006cd0:	68fb      	ldr	r3, [r7, #12]
 8006cd2:	f893 3050 	ldrb.w	r3, [r3, #80]	@ 0x50
 8006cd6:	2b01      	cmp	r3, #1
 8006cd8:	d101      	bne.n	8006cde <HAL_SPI_Receive+0x74>
 8006cda:	2302      	movs	r3, #2
 8006cdc:	e0da      	b.n	8006e94 <HAL_SPI_Receive+0x22a>
 8006cde:	68fb      	ldr	r3, [r7, #12]
 8006ce0:	2201      	movs	r2, #1
 8006ce2:	f883 2050 	strb.w	r2, [r3, #80]	@ 0x50

  /* Set the transaction information */
  hspi->State       = HAL_SPI_STATE_BUSY_RX;
 8006ce6:	68fb      	ldr	r3, [r7, #12]
 8006ce8:	2204      	movs	r2, #4
 8006cea:	f883 2051 	strb.w	r2, [r3, #81]	@ 0x51
  hspi->ErrorCode   = HAL_SPI_ERROR_NONE;
 8006cee:	68fb      	ldr	r3, [r7, #12]
 8006cf0:	2200      	movs	r2, #0
 8006cf2:	655a      	str	r2, [r3, #84]	@ 0x54
  hspi->pRxBuffPtr  = (uint8_t *)pData;
 8006cf4:	68fb      	ldr	r3, [r7, #12]
 8006cf6:	68ba      	ldr	r2, [r7, #8]
 8006cf8:	639a      	str	r2, [r3, #56]	@ 0x38
  hspi->RxXferSize  = Size;
 8006cfa:	68fb      	ldr	r3, [r7, #12]
 8006cfc:	88fa      	ldrh	r2, [r7, #6]
 8006cfe:	879a      	strh	r2, [r3, #60]	@ 0x3c
  hspi->RxXferCount = Size;
 8006d00:	68fb      	ldr	r3, [r7, #12]
 8006d02:	88fa      	ldrh	r2, [r7, #6]
 8006d04:	87da      	strh	r2, [r3, #62]	@ 0x3e

  /*Init field not used in handle to zero */
  hspi->pTxBuffPtr  = (uint8_t *)NULL;
 8006d06:	68fb      	ldr	r3, [r7, #12]
 8006d08:	2200      	movs	r2, #0
 8006d0a:	631a      	str	r2, [r3, #48]	@ 0x30
  hspi->TxXferSize  = 0U;
 8006d0c:	68fb      	ldr	r3, [r7, #12]
 8006d0e:	2200      	movs	r2, #0
 8006d10:	869a      	strh	r2, [r3, #52]	@ 0x34
  hspi->TxXferCount = 0U;
 8006d12:	68fb      	ldr	r3, [r7, #12]
 8006d14:	2200      	movs	r2, #0
 8006d16:	86da      	strh	r2, [r3, #54]	@ 0x36
  hspi->RxISR       = NULL;
 8006d18:	68fb      	ldr	r3, [r7, #12]
 8006d1a:	2200      	movs	r2, #0
 8006d1c:	641a      	str	r2, [r3, #64]	@ 0x40
  hspi->TxISR       = NULL;
 8006d1e:	68fb      	ldr	r3, [r7, #12]
 8006d20:	2200      	movs	r2, #0
 8006d22:	645a      	str	r2, [r3, #68]	@ 0x44
    hspi->RxXferCount--;
  }
#endif /* USE_SPI_CRC */

  /* Configure communication direction: 1Line */
  if (hspi->Init.Direction == SPI_DIRECTION_1LINE)
 8006d24:	68fb      	ldr	r3, [r7, #12]
 8006d26:	689b      	ldr	r3, [r3, #8]
 8006d28:	f5b3 4f00 	cmp.w	r3, #32768	@ 0x8000
 8006d2c:	d10f      	bne.n	8006d4e <HAL_SPI_Receive+0xe4>
  {
    /* Disable SPI Peripheral before set 1Line direction (BIDIOE bit) */
    __HAL_SPI_DISABLE(hspi);
 8006d2e:	68fb      	ldr	r3, [r7, #12]
 8006d30:	681b      	ldr	r3, [r3, #0]
 8006d32:	681a      	ldr	r2, [r3, #0]
 8006d34:	68fb      	ldr	r3, [r7, #12]
 8006d36:	681b      	ldr	r3, [r3, #0]
 8006d38:	f022 0240 	bic.w	r2, r2, #64	@ 0x40
 8006d3c:	601a      	str	r2, [r3, #0]
    SPI_1LINE_RX(hspi);
 8006d3e:	68fb      	ldr	r3, [r7, #12]
 8006d40:	681b      	ldr	r3, [r3, #0]
 8006d42:	681a      	ldr	r2, [r3, #0]
 8006d44:	68fb      	ldr	r3, [r7, #12]
 8006d46:	681b      	ldr	r3, [r3, #0]
 8006d48:	f422 4280 	bic.w	r2, r2, #16384	@ 0x4000
 8006d4c:	601a      	str	r2, [r3, #0]
  }

  /* Check if the SPI is already enabled */
  if ((hspi->Instance->CR1 & SPI_CR1_SPE) != SPI_CR1_SPE)
 8006d4e:	68fb      	ldr	r3, [r7, #12]
 8006d50:	681b      	ldr	r3, [r3, #0]
 8006d52:	681b      	ldr	r3, [r3, #0]
 8006d54:	f003 0340 	and.w	r3, r3, #64	@ 0x40
 8006d58:	2b40      	cmp	r3, #64	@ 0x40
 8006d5a:	d007      	beq.n	8006d6c <HAL_SPI_Receive+0x102>
  {
    /* Enable SPI peripheral */
    __HAL_SPI_ENABLE(hspi);
 8006d5c:	68fb      	ldr	r3, [r7, #12]
 8006d5e:	681b      	ldr	r3, [r3, #0]
 8006d60:	681a      	ldr	r2, [r3, #0]
 8006d62:	68fb      	ldr	r3, [r7, #12]
 8006d64:	681b      	ldr	r3, [r3, #0]
 8006d66:	f042 0240 	orr.w	r2, r2, #64	@ 0x40
 8006d6a:	601a      	str	r2, [r3, #0]
  }

  /* Receive data in 8 Bit mode */
  if (hspi->Init.DataSize == SPI_DATASIZE_8BIT)
 8006d6c:	68fb      	ldr	r3, [r7, #12]
 8006d6e:	68db      	ldr	r3, [r3, #12]
 8006d70:	2b00      	cmp	r3, #0
 8006d72:	d170      	bne.n	8006e56 <HAL_SPI_Receive+0x1ec>
  {
    /* Transfer loop */
    while (hspi->RxXferCount > 0U)
 8006d74:	e035      	b.n	8006de2 <HAL_SPI_Receive+0x178>
    {
      /* Check the RXNE flag */
      if (__HAL_SPI_GET_FLAG(hspi, SPI_FLAG_RXNE))
 8006d76:	68fb      	ldr	r3, [r7, #12]
 8006d78:	681b      	ldr	r3, [r3, #0]
 8006d7a:	689b      	ldr	r3, [r3, #8]
 8006d7c:	f003 0301 	and.w	r3, r3, #1
 8006d80:	2b01      	cmp	r3, #1
 8006d82:	d115      	bne.n	8006db0 <HAL_SPI_Receive+0x146>
      {
        /* read the received data */
        (* (uint8_t *)hspi->pRxBuffPtr) = *(__IO uint8_t *)&hspi->Instance->DR;
 8006d84:	68fb      	ldr	r3, [r7, #12]
 8006d86:	681b      	ldr	r3, [r3, #0]
 8006d88:	f103 020c 	add.w	r2, r3, #12
 8006d8c:	68fb      	ldr	r3, [r7, #12]
 8006d8e:	6b9b      	ldr	r3, [r3, #56]	@ 0x38
 8006d90:	7812      	ldrb	r2, [r2, #0]
 8006d92:	b2d2      	uxtb	r2, r2
 8006d94:	701a      	strb	r2, [r3, #0]
        hspi->pRxBuffPtr += sizeof(uint8_t);
 8006d96:	68fb      	ldr	r3, [r7, #12]
 8006d98:	6b9b      	ldr	r3, [r3, #56]	@ 0x38
 8006d9a:	1c5a      	adds	r2, r3, #1
 8006d9c:	68fb      	ldr	r3, [r7, #12]
 8006d9e:	639a      	str	r2, [r3, #56]	@ 0x38
        hspi->RxXferCount--;
 8006da0:	68fb      	ldr	r3, [r7, #12]
 8006da2:	8fdb      	ldrh	r3, [r3, #62]	@ 0x3e
 8006da4:	b29b      	uxth	r3, r3
 8006da6:	3b01      	subs	r3, #1
 8006da8:	b29a      	uxth	r2, r3
 8006daa:	68fb      	ldr	r3, [r7, #12]
 8006dac:	87da      	strh	r2, [r3, #62]	@ 0x3e
 8006dae:	e018      	b.n	8006de2 <HAL_SPI_Receive+0x178>
      }
      else
      {
        /* Timeout management */
        if ((((HAL_GetTick() - tickstart) >=  Timeout) && (Timeout != HAL_MAX_DELAY)) || (Timeout == 0U))
 8006db0:	f7fc ff9e 	bl	8003cf0 <HAL_GetTick>
 8006db4:	4602      	mov	r2, r0
 8006db6:	697b      	ldr	r3, [r7, #20]
 8006db8:	1ad3      	subs	r3, r2, r3
 8006dba:	683a      	ldr	r2, [r7, #0]
 8006dbc:	429a      	cmp	r2, r3
 8006dbe:	d803      	bhi.n	8006dc8 <HAL_SPI_Receive+0x15e>
 8006dc0:	683b      	ldr	r3, [r7, #0]
 8006dc2:	f1b3 3fff 	cmp.w	r3, #4294967295
 8006dc6:	d102      	bne.n	8006dce <HAL_SPI_Receive+0x164>
 8006dc8:	683b      	ldr	r3, [r7, #0]
 8006dca:	2b00      	cmp	r3, #0
 8006dcc:	d109      	bne.n	8006de2 <HAL_SPI_Receive+0x178>
        {
          hspi->State = HAL_SPI_STATE_READY;
 8006dce:	68fb      	ldr	r3, [r7, #12]
 8006dd0:	2201      	movs	r2, #1
 8006dd2:	f883 2051 	strb.w	r2, [r3, #81]	@ 0x51
          __HAL_UNLOCK(hspi);
 8006dd6:	68fb      	ldr	r3, [r7, #12]
 8006dd8:	2200      	movs	r2, #0
 8006dda:	f883 2050 	strb.w	r2, [r3, #80]	@ 0x50
          return HAL_TIMEOUT;
 8006dde:	2303      	movs	r3, #3
 8006de0:	e058      	b.n	8006e94 <HAL_SPI_Receive+0x22a>
    while (hspi->RxXferCount > 0U)
 8006de2:	68fb      	ldr	r3, [r7, #12]
 8006de4:	8fdb      	ldrh	r3, [r3, #62]	@ 0x3e
 8006de6:	b29b      	uxth	r3, r3
 8006de8:	2b00      	cmp	r3, #0
 8006dea:	d1c4      	bne.n	8006d76 <HAL_SPI_Receive+0x10c>
 8006dec:	e038      	b.n	8006e60 <HAL_SPI_Receive+0x1f6>
  {
    /* Transfer loop */
    while (hspi->RxXferCount > 0U)
    {
      /* Check the RXNE flag */
      if (__HAL_SPI_GET_FLAG(hspi, SPI_FLAG_RXNE))
 8006dee:	68fb      	ldr	r3, [r7, #12]
 8006df0:	681b      	ldr	r3, [r3, #0]
 8006df2:	689b      	ldr	r3, [r3, #8]
 8006df4:	f003 0301 	and.w	r3, r3, #1
 8006df8:	2b01      	cmp	r3, #1
 8006dfa:	d113      	bne.n	8006e24 <HAL_SPI_Receive+0x1ba>
      {
        *((uint16_t *)hspi->pRxBuffPtr) = (uint16_t)hspi->Instance->DR;
 8006dfc:	68fb      	ldr	r3, [r7, #12]
 8006dfe:	681b      	ldr	r3, [r3, #0]
 8006e00:	68da      	ldr	r2, [r3, #12]
 8006e02:	68fb      	ldr	r3, [r7, #12]
 8006e04:	6b9b      	ldr	r3, [r3, #56]	@ 0x38
 8006e06:	b292      	uxth	r2, r2
 8006e08:	801a      	strh	r2, [r3, #0]
        hspi->pRxBuffPtr += sizeof(uint16_t);
 8006e0a:	68fb      	ldr	r3, [r7, #12]
 8006e0c:	6b9b      	ldr	r3, [r3, #56]	@ 0x38
 8006e0e:	1c9a      	adds	r2, r3, #2
 8006e10:	68fb      	ldr	r3, [r7, #12]
 8006e12:	639a      	str	r2, [r3, #56]	@ 0x38
        hspi->RxXferCount--;
 8006e14:	68fb      	ldr	r3, [r7, #12]
 8006e16:	8fdb      	ldrh	r3, [r3, #62]	@ 0x3e
 8006e18:	b29b      	uxth	r3, r3
 8006e1a:	3b01      	subs	r3, #1
 8006e1c:	b29a      	uxth	r2, r3
 8006e1e:	68fb      	ldr	r3, [r7, #12]
 8006e20:	87da      	strh	r2, [r3, #62]	@ 0x3e
 8006e22:	e018      	b.n	8006e56 <HAL_SPI_Receive+0x1ec>
      }
      else
      {
        /* Timeout management */
        if ((((HAL_GetTick() - tickstart) >=  Timeout) && (Timeout != HAL_MAX_DELAY)) || (Timeout == 0U))
 8006e24:	f7fc ff64 	bl	8003cf0 <HAL_GetTick>
 8006e28:	4602      	mov	r2, r0
 8006e2a:	697b      	ldr	r3, [r7, #20]
 8006e2c:	1ad3      	subs	r3, r2, r3
 8006e2e:	683a      	ldr	r2, [r7, #0]
 8006e30:	429a      	cmp	r2, r3
 8006e32:	d803      	bhi.n	8006e3c <HAL_SPI_Receive+0x1d2>
 8006e34:	683b      	ldr	r3, [r7, #0]
 8006e36:	f1b3 3fff 	cmp.w	r3, #4294967295
 8006e3a:	d102      	bne.n	8006e42 <HAL_SPI_Receive+0x1d8>
 8006e3c:	683b      	ldr	r3, [r7, #0]
 8006e3e:	2b00      	cmp	r3, #0
 8006e40:	d109      	bne.n	8006e56 <HAL_SPI_Receive+0x1ec>
        {
          hspi->State = HAL_SPI_STATE_READY;
 8006e42:	68fb      	ldr	r3, [r7, #12]
 8006e44:	2201      	movs	r2, #1
 8006e46:	f883 2051 	strb.w	r2, [r3, #81]	@ 0x51
          __HAL_UNLOCK(hspi);
 8006e4a:	68fb      	ldr	r3, [r7, #12]
 8006e4c:	2200      	movs	r2, #0
 8006e4e:	f883 2050 	strb.w	r2, [r3, #80]	@ 0x50
          return HAL_TIMEOUT;
 8006e52:	2303      	movs	r3, #3
 8006e54:	e01e      	b.n	8006e94 <HAL_SPI_Receive+0x22a>
    while (hspi->RxXferCount > 0U)
 8006e56:	68fb      	ldr	r3, [r7, #12]
 8006e58:	8fdb      	ldrh	r3, [r3, #62]	@ 0x3e
 8006e5a:	b29b      	uxth	r3, r3
 8006e5c:	2b00      	cmp	r3, #0
 8006e5e:	d1c6      	bne.n	8006dee <HAL_SPI_Receive+0x184>
    UNUSED(tmpreg);
  }
#endif /* USE_SPI_CRC */

  /* Check the end of the transaction */
  if (SPI_EndRxTransaction(hspi, Timeout, tickstart) != HAL_OK)
 8006e60:	697a      	ldr	r2, [r7, #20]
 8006e62:	6839      	ldr	r1, [r7, #0]
 8006e64:	68f8      	ldr	r0, [r7, #12]
 8006e66:	f000 fa4b 	bl	8007300 <SPI_EndRxTransaction>
 8006e6a:	4603      	mov	r3, r0
 8006e6c:	2b00      	cmp	r3, #0
 8006e6e:	d002      	beq.n	8006e76 <HAL_SPI_Receive+0x20c>
  {
    hspi->ErrorCode = HAL_SPI_ERROR_FLAG;
 8006e70:	68fb      	ldr	r3, [r7, #12]
 8006e72:	2220      	movs	r2, #32
 8006e74:	655a      	str	r2, [r3, #84]	@ 0x54
      __HAL_SPI_CLEAR_CRCERRFLAG(hspi);
    }
  }
#endif /* USE_SPI_CRC */

  hspi->State = HAL_SPI_STATE_READY;
 8006e76:	68fb      	ldr	r3, [r7, #12]
 8006e78:	2201      	movs	r2, #1
 8006e7a:	f883 2051 	strb.w	r2, [r3, #81]	@ 0x51
  /* Unlock the process */
  __HAL_UNLOCK(hspi);
 8006e7e:	68fb      	ldr	r3, [r7, #12]
 8006e80:	2200      	movs	r2, #0
 8006e82:	f883 2050 	strb.w	r2, [r3, #80]	@ 0x50
  if (hspi->ErrorCode != HAL_SPI_ERROR_NONE)
 8006e86:	68fb      	ldr	r3, [r7, #12]
 8006e88:	6d5b      	ldr	r3, [r3, #84]	@ 0x54
 8006e8a:	2b00      	cmp	r3, #0
 8006e8c:	d001      	beq.n	8006e92 <HAL_SPI_Receive+0x228>
  {
    return HAL_ERROR;
 8006e8e:	2301      	movs	r3, #1
 8006e90:	e000      	b.n	8006e94 <HAL_SPI_Receive+0x22a>
  }
  else
  {
    return HAL_OK;
 8006e92:	2300      	movs	r3, #0
  }
}
 8006e94:	4618      	mov	r0, r3
 8006e96:	3718      	adds	r7, #24
 8006e98:	46bd      	mov	sp, r7
 8006e9a:	bd80      	pop	{r7, pc}

08006e9c <HAL_SPI_TransmitReceive>:
  * @param  Timeout Timeout duration
  * @retval HAL status
  */
HAL_StatusTypeDef HAL_SPI_TransmitReceive(SPI_HandleTypeDef *hspi, const uint8_t *pTxData, uint8_t *pRxData,
                                          uint16_t Size, uint32_t Timeout)
{
 8006e9c:	b580      	push	{r7, lr}
 8006e9e:	b08a      	sub	sp, #40	@ 0x28
 8006ea0:	af00      	add	r7, sp, #0
 8006ea2:	60f8      	str	r0, [r7, #12]
 8006ea4:	60b9      	str	r1, [r7, #8]
 8006ea6:	607a      	str	r2, [r7, #4]
 8006ea8:	807b      	strh	r3, [r7, #2]
#if (USE_SPI_CRC != 0U)
  __IO uint32_t tmpreg = 0U;
#endif /* USE_SPI_CRC */

  /* Variable used to alternate Rx and Tx during transfer */
  uint32_t             txallowed = 1U;
 8006eaa:	2301      	movs	r3, #1
 8006eac:	627b      	str	r3, [r7, #36]	@ 0x24

  /* Check Direction parameter */
  assert_param(IS_SPI_DIRECTION_2LINES(hspi->Init.Direction));

  /* Init tickstart for timeout management*/
  tickstart = HAL_GetTick();
 8006eae:	f7fc ff1f 	bl	8003cf0 <HAL_GetTick>
 8006eb2:	6238      	str	r0, [r7, #32]

  /* Init temporary variables */
  tmp_state           = hspi->State;
 8006eb4:	68fb      	ldr	r3, [r7, #12]
 8006eb6:	f893 3051 	ldrb.w	r3, [r3, #81]	@ 0x51
 8006eba:	77fb      	strb	r3, [r7, #31]
  tmp_mode            = hspi->Init.Mode;
 8006ebc:	68fb      	ldr	r3, [r7, #12]
 8006ebe:	685b      	ldr	r3, [r3, #4]
 8006ec0:	61bb      	str	r3, [r7, #24]
  initial_TxXferCount = Size;
 8006ec2:	887b      	ldrh	r3, [r7, #2]
 8006ec4:	82fb      	strh	r3, [r7, #22]

  if (!((tmp_state == HAL_SPI_STATE_READY) || \
 8006ec6:	7ffb      	ldrb	r3, [r7, #31]
 8006ec8:	2b01      	cmp	r3, #1
 8006eca:	d00c      	beq.n	8006ee6 <HAL_SPI_TransmitReceive+0x4a>
 8006ecc:	69bb      	ldr	r3, [r7, #24]
 8006ece:	f5b3 7f82 	cmp.w	r3, #260	@ 0x104
 8006ed2:	d106      	bne.n	8006ee2 <HAL_SPI_TransmitReceive+0x46>
        ((tmp_mode == SPI_MODE_MASTER) && (hspi->Init.Direction == SPI_DIRECTION_2LINES) &&
 8006ed4:	68fb      	ldr	r3, [r7, #12]
 8006ed6:	689b      	ldr	r3, [r3, #8]
 8006ed8:	2b00      	cmp	r3, #0
 8006eda:	d102      	bne.n	8006ee2 <HAL_SPI_TransmitReceive+0x46>
 8006edc:	7ffb      	ldrb	r3, [r7, #31]
 8006ede:	2b04      	cmp	r3, #4
 8006ee0:	d001      	beq.n	8006ee6 <HAL_SPI_TransmitReceive+0x4a>
         (tmp_state == HAL_SPI_STATE_BUSY_RX))))
  {
    return HAL_BUSY;
 8006ee2:	2302      	movs	r3, #2
 8006ee4:	e17f      	b.n	80071e6 <HAL_SPI_TransmitReceive+0x34a>
  }

  if ((pTxData == NULL) || (pRxData == NULL) || (Size == 0U))
 8006ee6:	68bb      	ldr	r3, [r7, #8]
 8006ee8:	2b00      	cmp	r3, #0
 8006eea:	d005      	beq.n	8006ef8 <HAL_SPI_TransmitReceive+0x5c>
 8006eec:	687b      	ldr	r3, [r7, #4]
 8006eee:	2b00      	cmp	r3, #0
 8006ef0:	d002      	beq.n	8006ef8 <HAL_SPI_TransmitReceive+0x5c>
 8006ef2:	887b      	ldrh	r3, [r7, #2]
 8006ef4:	2b00      	cmp	r3, #0
 8006ef6:	d101      	bne.n	8006efc <HAL_SPI_TransmitReceive+0x60>
  {
    return HAL_ERROR;
 8006ef8:	2301      	movs	r3, #1
 8006efa:	e174      	b.n	80071e6 <HAL_SPI_TransmitReceive+0x34a>
  }

  /* Process Locked */
  __HAL_LOCK(hspi);
 8006efc:	68fb      	ldr	r3, [r7, #12]
 8006efe:	f893 3050 	ldrb.w	r3, [r3, #80]	@ 0x50
 8006f02:	2b01      	cmp	r3, #1
 8006f04:	d101      	bne.n	8006f0a <HAL_SPI_TransmitReceive+0x6e>
 8006f06:	2302      	movs	r3, #2
 8006f08:	e16d      	b.n	80071e6 <HAL_SPI_TransmitReceive+0x34a>
 8006f0a:	68fb      	ldr	r3, [r7, #12]
 8006f0c:	2201      	movs	r2, #1
 8006f0e:	f883 2050 	strb.w	r2, [r3, #80]	@ 0x50

  /* Don't overwrite in case of HAL_SPI_STATE_BUSY_RX */
  if (hspi->State != HAL_SPI_STATE_BUSY_RX)
 8006f12:	68fb      	ldr	r3, [r7, #12]
 8006f14:	f893 3051 	ldrb.w	r3, [r3, #81]	@ 0x51
 8006f18:	b2db      	uxtb	r3, r3
 8006f1a:	2b04      	cmp	r3, #4
 8006f1c:	d003      	beq.n	8006f26 <HAL_SPI_TransmitReceive+0x8a>
  {
    hspi->State = HAL_SPI_STATE_BUSY_TX_RX;
 8006f1e:	68fb      	ldr	r3, [r7, #12]
 8006f20:	2205      	movs	r2, #5
 8006f22:	f883 2051 	strb.w	r2, [r3, #81]	@ 0x51
  }

  /* Set the transaction information */
  hspi->ErrorCode   = HAL_SPI_ERROR_NONE;
 8006f26:	68fb      	ldr	r3, [r7, #12]
 8006f28:	2200      	movs	r2, #0
 8006f2a:	655a      	str	r2, [r3, #84]	@ 0x54
  hspi->pRxBuffPtr  = (uint8_t *)pRxData;
 8006f2c:	68fb      	ldr	r3, [r7, #12]
 8006f2e:	687a      	ldr	r2, [r7, #4]
 8006f30:	639a      	str	r2, [r3, #56]	@ 0x38
  hspi->RxXferCount = Size;
 8006f32:	68fb      	ldr	r3, [r7, #12]
 8006f34:	887a      	ldrh	r2, [r7, #2]
 8006f36:	87da      	strh	r2, [r3, #62]	@ 0x3e
  hspi->RxXferSize  = Size;
 8006f38:	68fb      	ldr	r3, [r7, #12]
 8006f3a:	887a      	ldrh	r2, [r7, #2]
 8006f3c:	879a      	strh	r2, [r3, #60]	@ 0x3c
  hspi->pTxBuffPtr  = (const uint8_t *)pTxData;
 8006f3e:	68fb      	ldr	r3, [r7, #12]
 8006f40:	68ba      	ldr	r2, [r7, #8]
 8006f42:	631a      	str	r2, [r3, #48]	@ 0x30
  hspi->TxXferCount = Size;
 8006f44:	68fb      	ldr	r3, [r7, #12]
 8006f46:	887a      	ldrh	r2, [r7, #2]
 8006f48:	86da      	strh	r2, [r3, #54]	@ 0x36
  hspi->TxXferSize  = Size;
 8006f4a:	68fb      	ldr	r3, [r7, #12]
 8006f4c:	887a      	ldrh	r2, [r7, #2]
 8006f4e:	869a      	strh	r2, [r3, #52]	@ 0x34

  /*Init field not used in handle to zero */
  hspi->RxISR       = NULL;
 8006f50:	68fb      	ldr	r3, [r7, #12]
 8006f52:	2200      	movs	r2, #0
 8006f54:	641a      	str	r2, [r3, #64]	@ 0x40
  hspi->TxISR       = NULL;
 8006f56:	68fb      	ldr	r3, [r7, #12]
 8006f58:	2200      	movs	r2, #0
 8006f5a:	645a      	str	r2, [r3, #68]	@ 0x44
    SPI_RESET_CRC(hspi);
  }
#endif /* USE_SPI_CRC */

  /* Check if the SPI is already enabled */
  if ((hspi->Instance->CR1 & SPI_CR1_SPE) != SPI_CR1_SPE)
 8006f5c:	68fb      	ldr	r3, [r7, #12]
 8006f5e:	681b      	ldr	r3, [r3, #0]
 8006f60:	681b      	ldr	r3, [r3, #0]
 8006f62:	f003 0340 	and.w	r3, r3, #64	@ 0x40
 8006f66:	2b40      	cmp	r3, #64	@ 0x40
 8006f68:	d007      	beq.n	8006f7a <HAL_SPI_TransmitReceive+0xde>
  {
    /* Enable SPI peripheral */
    __HAL_SPI_ENABLE(hspi);
 8006f6a:	68fb      	ldr	r3, [r7, #12]
 8006f6c:	681b      	ldr	r3, [r3, #0]
 8006f6e:	681a      	ldr	r2, [r3, #0]
 8006f70:	68fb      	ldr	r3, [r7, #12]
 8006f72:	681b      	ldr	r3, [r3, #0]
 8006f74:	f042 0240 	orr.w	r2, r2, #64	@ 0x40
 8006f78:	601a      	str	r2, [r3, #0]
  }

  /* Transmit and Receive data in 16 Bit mode */
  if (hspi->Init.DataSize == SPI_DATASIZE_16BIT)
 8006f7a:	68fb      	ldr	r3, [r7, #12]
 8006f7c:	68db      	ldr	r3, [r3, #12]
 8006f7e:	f5b3 6f00 	cmp.w	r3, #2048	@ 0x800
 8006f82:	d17e      	bne.n	8007082 <HAL_SPI_TransmitReceive+0x1e6>
  {
    if ((hspi->Init.Mode == SPI_MODE_SLAVE) || (initial_TxXferCount == 0x01U))
 8006f84:	68fb      	ldr	r3, [r7, #12]
 8006f86:	685b      	ldr	r3, [r3, #4]
 8006f88:	2b00      	cmp	r3, #0
 8006f8a:	d002      	beq.n	8006f92 <HAL_SPI_TransmitReceive+0xf6>
 8006f8c:	8afb      	ldrh	r3, [r7, #22]
 8006f8e:	2b01      	cmp	r3, #1
 8006f90:	d16c      	bne.n	800706c <HAL_SPI_TransmitReceive+0x1d0>
    {
      hspi->Instance->DR = *((const uint16_t *)hspi->pTxBuffPtr);
 8006f92:	68fb      	ldr	r3, [r7, #12]
 8006f94:	6b1b      	ldr	r3, [r3, #48]	@ 0x30
 8006f96:	881a      	ldrh	r2, [r3, #0]
 8006f98:	68fb      	ldr	r3, [r7, #12]
 8006f9a:	681b      	ldr	r3, [r3, #0]
 8006f9c:	60da      	str	r2, [r3, #12]
      hspi->pTxBuffPtr += sizeof(uint16_t);
 8006f9e:	68fb      	ldr	r3, [r7, #12]
 8006fa0:	6b1b      	ldr	r3, [r3, #48]	@ 0x30
 8006fa2:	1c9a      	adds	r2, r3, #2
 8006fa4:	68fb      	ldr	r3, [r7, #12]
 8006fa6:	631a      	str	r2, [r3, #48]	@ 0x30
      hspi->TxXferCount--;
 8006fa8:	68fb      	ldr	r3, [r7, #12]
 8006faa:	8edb      	ldrh	r3, [r3, #54]	@ 0x36
 8006fac:	b29b      	uxth	r3, r3
 8006fae:	3b01      	subs	r3, #1
 8006fb0:	b29a      	uxth	r2, r3
 8006fb2:	68fb      	ldr	r3, [r7, #12]
 8006fb4:	86da      	strh	r2, [r3, #54]	@ 0x36
        SET_BIT(hspi->Instance->CR1, SPI_CR1_CRCNEXT);
      }
#endif /* USE_SPI_CRC */

    }
    while ((hspi->TxXferCount > 0U) || (hspi->RxXferCount > 0U))
 8006fb6:	e059      	b.n	800706c <HAL_SPI_TransmitReceive+0x1d0>
    {
      /* Check TXE flag */
      if ((__HAL_SPI_GET_FLAG(hspi, SPI_FLAG_TXE)) && (hspi->TxXferCount > 0U) && (txallowed == 1U))
 8006fb8:	68fb      	ldr	r3, [r7, #12]
 8006fba:	681b      	ldr	r3, [r3, #0]
 8006fbc:	689b      	ldr	r3, [r3, #8]
 8006fbe:	f003 0302 	and.w	r3, r3, #2
 8006fc2:	2b02      	cmp	r3, #2
 8006fc4:	d11b      	bne.n	8006ffe <HAL_SPI_TransmitReceive+0x162>
 8006fc6:	68fb      	ldr	r3, [r7, #12]
 8006fc8:	8edb      	ldrh	r3, [r3, #54]	@ 0x36
 8006fca:	b29b      	uxth	r3, r3
 8006fcc:	2b00      	cmp	r3, #0
 8006fce:	d016      	beq.n	8006ffe <HAL_SPI_TransmitReceive+0x162>
 8006fd0:	6a7b      	ldr	r3, [r7, #36]	@ 0x24
 8006fd2:	2b01      	cmp	r3, #1
 8006fd4:	d113      	bne.n	8006ffe <HAL_SPI_TransmitReceive+0x162>
      {
        hspi->Instance->DR = *((const uint16_t *)hspi->pTxBuffPtr);
 8006fd6:	68fb      	ldr	r3, [r7, #12]
 8006fd8:	6b1b      	ldr	r3, [r3, #48]	@ 0x30
 8006fda:	881a      	ldrh	r2, [r3, #0]
 8006fdc:	68fb      	ldr	r3, [r7, #12]
 8006fde:	681b      	ldr	r3, [r3, #0]
 8006fe0:	60da      	str	r2, [r3, #12]
        hspi->pTxBuffPtr += sizeof(uint16_t);
 8006fe2:	68fb      	ldr	r3, [r7, #12]
 8006fe4:	6b1b      	ldr	r3, [r3, #48]	@ 0x30
 8006fe6:	1c9a      	adds	r2, r3, #2
 8006fe8:	68fb      	ldr	r3, [r7, #12]
 8006fea:	631a      	str	r2, [r3, #48]	@ 0x30
        hspi->TxXferCount--;
 8006fec:	68fb      	ldr	r3, [r7, #12]
 8006fee:	8edb      	ldrh	r3, [r3, #54]	@ 0x36
 8006ff0:	b29b      	uxth	r3, r3
 8006ff2:	3b01      	subs	r3, #1
 8006ff4:	b29a      	uxth	r2, r3
 8006ff6:	68fb      	ldr	r3, [r7, #12]
 8006ff8:	86da      	strh	r2, [r3, #54]	@ 0x36
        /* Next Data is a reception (Rx). Tx not allowed */
        txallowed = 0U;
 8006ffa:	2300      	movs	r3, #0
 8006ffc:	627b      	str	r3, [r7, #36]	@ 0x24
        }
#endif /* USE_SPI_CRC */
      }

      /* Check RXNE flag */
      if ((__HAL_SPI_GET_FLAG(hspi, SPI_FLAG_RXNE)) && (hspi->RxXferCount > 0U))
 8006ffe:	68fb      	ldr	r3, [r7, #12]
 8007000:	681b      	ldr	r3, [r3, #0]
 8007002:	689b      	ldr	r3, [r3, #8]
 8007004:	f003 0301 	and.w	r3, r3, #1
 8007008:	2b01      	cmp	r3, #1
 800700a:	d119      	bne.n	8007040 <HAL_SPI_TransmitReceive+0x1a4>
 800700c:	68fb      	ldr	r3, [r7, #12]
 800700e:	8fdb      	ldrh	r3, [r3, #62]	@ 0x3e
 8007010:	b29b      	uxth	r3, r3
 8007012:	2b00      	cmp	r3, #0
 8007014:	d014      	beq.n	8007040 <HAL_SPI_TransmitReceive+0x1a4>
      {
        *((uint16_t *)hspi->pRxBuffPtr) = (uint16_t)hspi->Instance->DR;
 8007016:	68fb      	ldr	r3, [r7, #12]
 8007018:	681b      	ldr	r3, [r3, #0]
 800701a:	68da      	ldr	r2, [r3, #12]
 800701c:	68fb      	ldr	r3, [r7, #12]
 800701e:	6b9b      	ldr	r3, [r3, #56]	@ 0x38
 8007020:	b292      	uxth	r2, r2
 8007022:	801a      	strh	r2, [r3, #0]
        hspi->pRxBuffPtr += sizeof(uint16_t);
 8007024:	68fb      	ldr	r3, [r7, #12]
 8007026:	6b9b      	ldr	r3, [r3, #56]	@ 0x38
 8007028:	1c9a      	adds	r2, r3, #2
 800702a:	68fb      	ldr	r3, [r7, #12]
 800702c:	639a      	str	r2, [r3, #56]	@ 0x38
        hspi->RxXferCount--;
 800702e:	68fb      	ldr	r3, [r7, #12]
 8007030:	8fdb      	ldrh	r3, [r3, #62]	@ 0x3e
 8007032:	b29b      	uxth	r3, r3
 8007034:	3b01      	subs	r3, #1
 8007036:	b29a      	uxth	r2, r3
 8007038:	68fb      	ldr	r3, [r7, #12]
 800703a:	87da      	strh	r2, [r3, #62]	@ 0x3e
        /* Next Data is a Transmission (Tx). Tx is allowed */
        txallowed = 1U;
 800703c:	2301      	movs	r3, #1
 800703e:	627b      	str	r3, [r7, #36]	@ 0x24
      }
      if (((HAL_GetTick() - tickstart) >=  Timeout) && (Timeout != HAL_MAX_DELAY))
 8007040:	f7fc fe56 	bl	8003cf0 <HAL_GetTick>
 8007044:	4602      	mov	r2, r0
 8007046:	6a3b      	ldr	r3, [r7, #32]
 8007048:	1ad3      	subs	r3, r2, r3
 800704a:	6b3a      	ldr	r2, [r7, #48]	@ 0x30
 800704c:	429a      	cmp	r2, r3
 800704e:	d80d      	bhi.n	800706c <HAL_SPI_TransmitReceive+0x1d0>
 8007050:	6b3b      	ldr	r3, [r7, #48]	@ 0x30
 8007052:	f1b3 3fff 	cmp.w	r3, #4294967295
 8007056:	d009      	beq.n	800706c <HAL_SPI_TransmitReceive+0x1d0>
      {
        hspi->State = HAL_SPI_STATE_READY;
 8007058:	68fb      	ldr	r3, [r7, #12]
 800705a:	2201      	movs	r2, #1
 800705c:	f883 2051 	strb.w	r2, [r3, #81]	@ 0x51
        __HAL_UNLOCK(hspi);
 8007060:	68fb      	ldr	r3, [r7, #12]
 8007062:	2200      	movs	r2, #0
 8007064:	f883 2050 	strb.w	r2, [r3, #80]	@ 0x50
        return HAL_TIMEOUT;
 8007068:	2303      	movs	r3, #3
 800706a:	e0bc      	b.n	80071e6 <HAL_SPI_TransmitReceive+0x34a>
    while ((hspi->TxXferCount > 0U) || (hspi->RxXferCount > 0U))
 800706c:	68fb      	ldr	r3, [r7, #12]
 800706e:	8edb      	ldrh	r3, [r3, #54]	@ 0x36
 8007070:	b29b      	uxth	r3, r3
 8007072:	2b00      	cmp	r3, #0
 8007074:	d1a0      	bne.n	8006fb8 <HAL_SPI_TransmitReceive+0x11c>
 8007076:	68fb      	ldr	r3, [r7, #12]
 8007078:	8fdb      	ldrh	r3, [r3, #62]	@ 0x3e
 800707a:	b29b      	uxth	r3, r3
 800707c:	2b00      	cmp	r3, #0
 800707e:	d19b      	bne.n	8006fb8 <HAL_SPI_TransmitReceive+0x11c>
 8007080:	e082      	b.n	8007188 <HAL_SPI_TransmitReceive+0x2ec>
    }
  }
  /* Transmit and Receive data in 8 Bit mode */
  else
  {
    if ((hspi->Init.Mode == SPI_MODE_SLAVE) || (initial_TxXferCount == 0x01U))
 8007082:	68fb      	ldr	r3, [r7, #12]
 8007084:	685b      	ldr	r3, [r3, #4]
 8007086:	2b00      	cmp	r3, #0
 8007088:	d002      	beq.n	8007090 <HAL_SPI_TransmitReceive+0x1f4>
 800708a:	8afb      	ldrh	r3, [r7, #22]
 800708c:	2b01      	cmp	r3, #1
 800708e:	d171      	bne.n	8007174 <HAL_SPI_TransmitReceive+0x2d8>
    {
      *((__IO uint8_t *)&hspi->Instance->DR) = *((const uint8_t *)hspi->pTxBuffPtr);
 8007090:	68fb      	ldr	r3, [r7, #12]
 8007092:	6b1a      	ldr	r2, [r3, #48]	@ 0x30
 8007094:	68fb      	ldr	r3, [r7, #12]
 8007096:	681b      	ldr	r3, [r3, #0]
 8007098:	330c      	adds	r3, #12
 800709a:	7812      	ldrb	r2, [r2, #0]
 800709c:	701a      	strb	r2, [r3, #0]
      hspi->pTxBuffPtr += sizeof(uint8_t);
 800709e:	68fb      	ldr	r3, [r7, #12]
 80070a0:	6b1b      	ldr	r3, [r3, #48]	@ 0x30
 80070a2:	1c5a      	adds	r2, r3, #1
 80070a4:	68fb      	ldr	r3, [r7, #12]
 80070a6:	631a      	str	r2, [r3, #48]	@ 0x30
      hspi->TxXferCount--;
 80070a8:	68fb      	ldr	r3, [r7, #12]
 80070aa:	8edb      	ldrh	r3, [r3, #54]	@ 0x36
 80070ac:	b29b      	uxth	r3, r3
 80070ae:	3b01      	subs	r3, #1
 80070b0:	b29a      	uxth	r2, r3
 80070b2:	68fb      	ldr	r3, [r7, #12]
 80070b4:	86da      	strh	r2, [r3, #54]	@ 0x36
      {
        SET_BIT(hspi->Instance->CR1, SPI_CR1_CRCNEXT);
      }
#endif /* USE_SPI_CRC */
    }
    while ((hspi->TxXferCount > 0U) || (hspi->RxXferCount > 0U))
 80070b6:	e05d      	b.n	8007174 <HAL_SPI_TransmitReceive+0x2d8>
    {
      /* Check TXE flag */
      if ((__HAL_SPI_GET_FLAG(hspi, SPI_FLAG_TXE)) && (hspi->TxXferCount > 0U) && (txallowed == 1U))
 80070b8:	68fb      	ldr	r3, [r7, #12]
 80070ba:	681b      	ldr	r3, [r3, #0]
 80070bc:	689b      	ldr	r3, [r3, #8]
 80070be:	f003 0302 	and.w	r3, r3, #2
 80070c2:	2b02      	cmp	r3, #2
 80070c4:	d11c      	bne.n	8007100 <HAL_SPI_TransmitReceive+0x264>
 80070c6:	68fb      	ldr	r3, [r7, #12]
 80070c8:	8edb      	ldrh	r3, [r3, #54]	@ 0x36
 80070ca:	b29b      	uxth	r3, r3
 80070cc:	2b00      	cmp	r3, #0
 80070ce:	d017      	beq.n	8007100 <HAL_SPI_TransmitReceive+0x264>
 80070d0:	6a7b      	ldr	r3, [r7, #36]	@ 0x24
 80070d2:	2b01      	cmp	r3, #1
 80070d4:	d114      	bne.n	8007100 <HAL_SPI_TransmitReceive+0x264>
      {
        *(__IO uint8_t *)&hspi->Instance->DR = *((const uint8_t *)hspi->pTxBuffPtr);
 80070d6:	68fb      	ldr	r3, [r7, #12]
 80070d8:	6b1a      	ldr	r2, [r3, #48]	@ 0x30
 80070da:	68fb      	ldr	r3, [r7, #12]
 80070dc:	681b      	ldr	r3, [r3, #0]
 80070de:	330c      	adds	r3, #12
 80070e0:	7812      	ldrb	r2, [r2, #0]
 80070e2:	701a      	strb	r2, [r3, #0]
        hspi->pTxBuffPtr++;
 80070e4:	68fb      	ldr	r3, [r7, #12]
 80070e6:	6b1b      	ldr	r3, [r3, #48]	@ 0x30
 80070e8:	1c5a      	adds	r2, r3, #1
 80070ea:	68fb      	ldr	r3, [r7, #12]
 80070ec:	631a      	str	r2, [r3, #48]	@ 0x30
        hspi->TxXferCount--;
 80070ee:	68fb      	ldr	r3, [r7, #12]
 80070f0:	8edb      	ldrh	r3, [r3, #54]	@ 0x36
 80070f2:	b29b      	uxth	r3, r3
 80070f4:	3b01      	subs	r3, #1
 80070f6:	b29a      	uxth	r2, r3
 80070f8:	68fb      	ldr	r3, [r7, #12]
 80070fa:	86da      	strh	r2, [r3, #54]	@ 0x36
        /* Next Data is a reception (Rx). Tx not allowed */
        txallowed = 0U;
 80070fc:	2300      	movs	r3, #0
 80070fe:	627b      	str	r3, [r7, #36]	@ 0x24
        }
#endif /* USE_SPI_CRC */
      }

      /* Wait until RXNE flag is reset */
      if ((__HAL_SPI_GET_FLAG(hspi, SPI_FLAG_RXNE)) && (hspi->RxXferCount > 0U))
 8007100:	68fb      	ldr	r3, [r7, #12]
 8007102:	681b      	ldr	r3, [r3, #0]
 8007104:	689b      	ldr	r3, [r3, #8]
 8007106:	f003 0301 	and.w	r3, r3, #1
 800710a:	2b01      	cmp	r3, #1
 800710c:	d119      	bne.n	8007142 <HAL_SPI_TransmitReceive+0x2a6>
 800710e:	68fb      	ldr	r3, [r7, #12]
 8007110:	8fdb      	ldrh	r3, [r3, #62]	@ 0x3e
 8007112:	b29b      	uxth	r3, r3
 8007114:	2b00      	cmp	r3, #0
 8007116:	d014      	beq.n	8007142 <HAL_SPI_TransmitReceive+0x2a6>
      {
        (*(uint8_t *)hspi->pRxBuffPtr) = hspi->Instance->DR;
 8007118:	68fb      	ldr	r3, [r7, #12]
 800711a:	681b      	ldr	r3, [r3, #0]
 800711c:	68da      	ldr	r2, [r3, #12]
 800711e:	68fb      	ldr	r3, [r7, #12]
 8007120:	6b9b      	ldr	r3, [r3, #56]	@ 0x38
 8007122:	b2d2      	uxtb	r2, r2
 8007124:	701a      	strb	r2, [r3, #0]
        hspi->pRxBuffPtr++;
 8007126:	68fb      	ldr	r3, [r7, #12]
 8007128:	6b9b      	ldr	r3, [r3, #56]	@ 0x38
 800712a:	1c5a      	adds	r2, r3, #1
 800712c:	68fb      	ldr	r3, [r7, #12]
 800712e:	639a      	str	r2, [r3, #56]	@ 0x38
        hspi->RxXferCount--;
 8007130:	68fb      	ldr	r3, [r7, #12]
 8007132:	8fdb      	ldrh	r3, [r3, #62]	@ 0x3e
 8007134:	b29b      	uxth	r3, r3
 8007136:	3b01      	subs	r3, #1
 8007138:	b29a      	uxth	r2, r3
 800713a:	68fb      	ldr	r3, [r7, #12]
 800713c:	87da      	strh	r2, [r3, #62]	@ 0x3e
        /* Next Data is a Transmission (Tx). Tx is allowed */
        txallowed = 1U;
 800713e:	2301      	movs	r3, #1
 8007140:	627b      	str	r3, [r7, #36]	@ 0x24
      }
      if ((((HAL_GetTick() - tickstart) >=  Timeout) && ((Timeout != HAL_MAX_DELAY))) || (Timeout == 0U))
 8007142:	f7fc fdd5 	bl	8003cf0 <HAL_GetTick>
 8007146:	4602      	mov	r2, r0
 8007148:	6a3b      	ldr	r3, [r7, #32]
 800714a:	1ad3      	subs	r3, r2, r3
 800714c:	6b3a      	ldr	r2, [r7, #48]	@ 0x30
 800714e:	429a      	cmp	r2, r3
 8007150:	d803      	bhi.n	800715a <HAL_SPI_TransmitReceive+0x2be>
 8007152:	6b3b      	ldr	r3, [r7, #48]	@ 0x30
 8007154:	f1b3 3fff 	cmp.w	r3, #4294967295
 8007158:	d102      	bne.n	8007160 <HAL_SPI_TransmitReceive+0x2c4>
 800715a:	6b3b      	ldr	r3, [r7, #48]	@ 0x30
 800715c:	2b00      	cmp	r3, #0
 800715e:	d109      	bne.n	8007174 <HAL_SPI_TransmitReceive+0x2d8>
      {
        hspi->State = HAL_SPI_STATE_READY;
 8007160:	68fb      	ldr	r3, [r7, #12]
 8007162:	2201      	movs	r2, #1
 8007164:	f883 2051 	strb.w	r2, [r3, #81]	@ 0x51
        __HAL_UNLOCK(hspi);
 8007168:	68fb      	ldr	r3, [r7, #12]
 800716a:	2200      	movs	r2, #0
 800716c:	f883 2050 	strb.w	r2, [r3, #80]	@ 0x50
        return HAL_TIMEOUT;
 8007170:	2303      	movs	r3, #3
 8007172:	e038      	b.n	80071e6 <HAL_SPI_TransmitReceive+0x34a>
    while ((hspi->TxXferCount > 0U) || (hspi->RxXferCount > 0U))
 8007174:	68fb      	ldr	r3, [r7, #12]
 8007176:	8edb      	ldrh	r3, [r3, #54]	@ 0x36
 8007178:	b29b      	uxth	r3, r3
 800717a:	2b00      	cmp	r3, #0
 800717c:	d19c      	bne.n	80070b8 <HAL_SPI_TransmitReceive+0x21c>
 800717e:	68fb      	ldr	r3, [r7, #12]
 8007180:	8fdb      	ldrh	r3, [r3, #62]	@ 0x3e
 8007182:	b29b      	uxth	r3, r3
 8007184:	2b00      	cmp	r3, #0
 8007186:	d197      	bne.n	80070b8 <HAL_SPI_TransmitReceive+0x21c>
    }
  }
#endif /* USE_SPI_CRC */

  /* Check the end of the transaction */
  if (SPI_EndRxTxTransaction(hspi, Timeout, tickstart) != HAL_OK)
 8007188:	6a3a      	ldr	r2, [r7, #32]
 800718a:	6b39      	ldr	r1, [r7, #48]	@ 0x30
 800718c:	68f8      	ldr	r0, [r7, #12]
 800718e:	f000 f909 	bl	80073a4 <SPI_EndRxTxTransaction>
 8007192:	4603      	mov	r3, r0
 8007194:	2b00      	cmp	r3, #0
 8007196:	d008      	beq.n	80071aa <HAL_SPI_TransmitReceive+0x30e>
  {
    hspi->ErrorCode = HAL_SPI_ERROR_FLAG;
 8007198:	68fb      	ldr	r3, [r7, #12]
 800719a:	2220      	movs	r2, #32
 800719c:	655a      	str	r2, [r3, #84]	@ 0x54
    __HAL_UNLOCK(hspi);
 800719e:	68fb      	ldr	r3, [r7, #12]
 80071a0:	2200      	movs	r2, #0
 80071a2:	f883 2050 	strb.w	r2, [r3, #80]	@ 0x50
    return HAL_ERROR;
 80071a6:	2301      	movs	r3, #1
 80071a8:	e01d      	b.n	80071e6 <HAL_SPI_TransmitReceive+0x34a>
  }

  /* Clear overrun flag in 2 Lines communication mode because received is not read */
  if (hspi->Init.Direction == SPI_DIRECTION_2LINES)
 80071aa:	68fb      	ldr	r3, [r7, #12]
 80071ac:	689b      	ldr	r3, [r3, #8]
 80071ae:	2b00      	cmp	r3, #0
 80071b0:	d10a      	bne.n	80071c8 <HAL_SPI_TransmitReceive+0x32c>
  {
    __HAL_SPI_CLEAR_OVRFLAG(hspi);
 80071b2:	2300      	movs	r3, #0
 80071b4:	613b      	str	r3, [r7, #16]
 80071b6:	68fb      	ldr	r3, [r7, #12]
 80071b8:	681b      	ldr	r3, [r3, #0]
 80071ba:	68db      	ldr	r3, [r3, #12]
 80071bc:	613b      	str	r3, [r7, #16]
 80071be:	68fb      	ldr	r3, [r7, #12]
 80071c0:	681b      	ldr	r3, [r3, #0]
 80071c2:	689b      	ldr	r3, [r3, #8]
 80071c4:	613b      	str	r3, [r7, #16]
 80071c6:	693b      	ldr	r3, [r7, #16]
  }


  hspi->State = HAL_SPI_STATE_READY;
 80071c8:	68fb      	ldr	r3, [r7, #12]
 80071ca:	2201      	movs	r2, #1
 80071cc:	f883 2051 	strb.w	r2, [r3, #81]	@ 0x51
  /* Unlock the process */
  __HAL_UNLOCK(hspi);
 80071d0:	68fb      	ldr	r3, [r7, #12]
 80071d2:	2200      	movs	r2, #0
 80071d4:	f883 2050 	strb.w	r2, [r3, #80]	@ 0x50

  if (hspi->ErrorCode != HAL_SPI_ERROR_NONE)
 80071d8:	68fb      	ldr	r3, [r7, #12]
 80071da:	6d5b      	ldr	r3, [r3, #84]	@ 0x54
 80071dc:	2b00      	cmp	r3, #0
 80071de:	d001      	beq.n	80071e4 <HAL_SPI_TransmitReceive+0x348>
  {
    return HAL_ERROR;
 80071e0:	2301      	movs	r3, #1
 80071e2:	e000      	b.n	80071e6 <HAL_SPI_TransmitReceive+0x34a>
  }
  else
  {
    return HAL_OK;
 80071e4:	2300      	movs	r3, #0
  }
}
 80071e6:	4618      	mov	r0, r3
 80071e8:	3728      	adds	r7, #40	@ 0x28
 80071ea:	46bd      	mov	sp, r7
 80071ec:	bd80      	pop	{r7, pc}
	...

080071f0 <SPI_WaitFlagStateUntilTimeout>:
  * @param  Tickstart tick start value
  * @retval HAL status
  */
static HAL_StatusTypeDef SPI_WaitFlagStateUntilTimeout(SPI_HandleTypeDef *hspi, uint32_t Flag, FlagStatus State,
                                                       uint32_t Timeout, uint32_t Tickstart)
{
 80071f0:	b580      	push	{r7, lr}
 80071f2:	b088      	sub	sp, #32
 80071f4:	af00      	add	r7, sp, #0
 80071f6:	60f8      	str	r0, [r7, #12]
 80071f8:	60b9      	str	r1, [r7, #8]
 80071fa:	603b      	str	r3, [r7, #0]
 80071fc:	4613      	mov	r3, r2
 80071fe:	71fb      	strb	r3, [r7, #7]
  __IO uint32_t count;
  uint32_t tmp_timeout;
  uint32_t tmp_tickstart;

  /* Adjust Timeout value  in case of end of transfer */
  tmp_timeout   = Timeout - (HAL_GetTick() - Tickstart);
 8007200:	f7fc fd76 	bl	8003cf0 <HAL_GetTick>
 8007204:	4602      	mov	r2, r0
 8007206:	6abb      	ldr	r3, [r7, #40]	@ 0x28
 8007208:	1a9b      	subs	r3, r3, r2
 800720a:	683a      	ldr	r2, [r7, #0]
 800720c:	4413      	add	r3, r2
 800720e:	61fb      	str	r3, [r7, #28]
  tmp_tickstart = HAL_GetTick();
 8007210:	f7fc fd6e 	bl	8003cf0 <HAL_GetTick>
 8007214:	61b8      	str	r0, [r7, #24]

  /* Calculate Timeout based on a software loop to avoid blocking issue if Systick is disabled */
  count = tmp_timeout * ((SystemCoreClock * 32U) >> 20U);
 8007216:	4b39      	ldr	r3, [pc, #228]	@ (80072fc <SPI_WaitFlagStateUntilTimeout+0x10c>)
 8007218:	681b      	ldr	r3, [r3, #0]
 800721a:	015b      	lsls	r3, r3, #5
 800721c:	0d1b      	lsrs	r3, r3, #20
 800721e:	69fa      	ldr	r2, [r7, #28]
 8007220:	fb02 f303 	mul.w	r3, r2, r3
 8007224:	617b      	str	r3, [r7, #20]

  while ((__HAL_SPI_GET_FLAG(hspi, Flag) ? SET : RESET) != State)
 8007226:	e054      	b.n	80072d2 <SPI_WaitFlagStateUntilTimeout+0xe2>
  {
    if (Timeout != HAL_MAX_DELAY)
 8007228:	683b      	ldr	r3, [r7, #0]
 800722a:	f1b3 3fff 	cmp.w	r3, #4294967295
 800722e:	d050      	beq.n	80072d2 <SPI_WaitFlagStateUntilTimeout+0xe2>
    {
      if (((HAL_GetTick() - tmp_tickstart) >= tmp_timeout) || (tmp_timeout == 0U))
 8007230:	f7fc fd5e 	bl	8003cf0 <HAL_GetTick>
 8007234:	4602      	mov	r2, r0
 8007236:	69bb      	ldr	r3, [r7, #24]
 8007238:	1ad3      	subs	r3, r2, r3
 800723a:	69fa      	ldr	r2, [r7, #28]
 800723c:	429a      	cmp	r2, r3
 800723e:	d902      	bls.n	8007246 <SPI_WaitFlagStateUntilTimeout+0x56>
 8007240:	69fb      	ldr	r3, [r7, #28]
 8007242:	2b00      	cmp	r3, #0
 8007244:	d13d      	bne.n	80072c2 <SPI_WaitFlagStateUntilTimeout+0xd2>
        /* Disable the SPI and reset the CRC: the CRC value should be cleared
           on both master and slave sides in order to resynchronize the master
           and slave for their respective CRC calculation */

        /* Disable TXE, RXNE and ERR interrupts for the interrupt process */
        __HAL_SPI_DISABLE_IT(hspi, (SPI_IT_TXE | SPI_IT_RXNE | SPI_IT_ERR));
 8007246:	68fb      	ldr	r3, [r7, #12]
 8007248:	681b      	ldr	r3, [r3, #0]
 800724a:	685a      	ldr	r2, [r3, #4]
 800724c:	68fb      	ldr	r3, [r7, #12]
 800724e:	681b      	ldr	r3, [r3, #0]
 8007250:	f022 02e0 	bic.w	r2, r2, #224	@ 0xe0
 8007254:	605a      	str	r2, [r3, #4]

        if ((hspi->Init.Mode == SPI_MODE_MASTER) && ((hspi->Init.Direction == SPI_DIRECTION_1LINE)
 8007256:	68fb      	ldr	r3, [r7, #12]
 8007258:	685b      	ldr	r3, [r3, #4]
 800725a:	f5b3 7f82 	cmp.w	r3, #260	@ 0x104
 800725e:	d111      	bne.n	8007284 <SPI_WaitFlagStateUntilTimeout+0x94>
 8007260:	68fb      	ldr	r3, [r7, #12]
 8007262:	689b      	ldr	r3, [r3, #8]
 8007264:	f5b3 4f00 	cmp.w	r3, #32768	@ 0x8000
 8007268:	d004      	beq.n	8007274 <SPI_WaitFlagStateUntilTimeout+0x84>
                                                     || (hspi->Init.Direction == SPI_DIRECTION_2LINES_RXONLY)))
 800726a:	68fb      	ldr	r3, [r7, #12]
 800726c:	689b      	ldr	r3, [r3, #8]
 800726e:	f5b3 6f80 	cmp.w	r3, #1024	@ 0x400
 8007272:	d107      	bne.n	8007284 <SPI_WaitFlagStateUntilTimeout+0x94>
        {
          /* Disable SPI peripheral */
          __HAL_SPI_DISABLE(hspi);
 8007274:	68fb      	ldr	r3, [r7, #12]
 8007276:	681b      	ldr	r3, [r3, #0]
 8007278:	681a      	ldr	r2, [r3, #0]
 800727a:	68fb      	ldr	r3, [r7, #12]
 800727c:	681b      	ldr	r3, [r3, #0]
 800727e:	f022 0240 	bic.w	r2, r2, #64	@ 0x40
 8007282:	601a      	str	r2, [r3, #0]
        }

        /* Reset CRC Calculation */
        if (hspi->Init.CRCCalculation == SPI_CRCCALCULATION_ENABLE)
 8007284:	68fb      	ldr	r3, [r7, #12]
 8007286:	6a9b      	ldr	r3, [r3, #40]	@ 0x28
 8007288:	f5b3 5f00 	cmp.w	r3, #8192	@ 0x2000
 800728c:	d10f      	bne.n	80072ae <SPI_WaitFlagStateUntilTimeout+0xbe>
        {
          SPI_RESET_CRC(hspi);
 800728e:	68fb      	ldr	r3, [r7, #12]
 8007290:	681b      	ldr	r3, [r3, #0]
 8007292:	681a      	ldr	r2, [r3, #0]
 8007294:	68fb      	ldr	r3, [r7, #12]
 8007296:	681b      	ldr	r3, [r3, #0]
 8007298:	f422 5200 	bic.w	r2, r2, #8192	@ 0x2000
 800729c:	601a      	str	r2, [r3, #0]
 800729e:	68fb      	ldr	r3, [r7, #12]
 80072a0:	681b      	ldr	r3, [r3, #0]
 80072a2:	681a      	ldr	r2, [r3, #0]
 80072a4:	68fb      	ldr	r3, [r7, #12]
 80072a6:	681b      	ldr	r3, [r3, #0]
 80072a8:	f442 5200 	orr.w	r2, r2, #8192	@ 0x2000
 80072ac:	601a      	str	r2, [r3, #0]
        }

        hspi->State = HAL_SPI_STATE_READY;
 80072ae:	68fb      	ldr	r3, [r7, #12]
 80072b0:	2201      	movs	r2, #1
 80072b2:	f883 2051 	strb.w	r2, [r3, #81]	@ 0x51

        /* Process Unlocked */
        __HAL_UNLOCK(hspi);
 80072b6:	68fb      	ldr	r3, [r7, #12]
 80072b8:	2200      	movs	r2, #0
 80072ba:	f883 2050 	strb.w	r2, [r3, #80]	@ 0x50

        return HAL_TIMEOUT;
 80072be:	2303      	movs	r3, #3
 80072c0:	e017      	b.n	80072f2 <SPI_WaitFlagStateUntilTimeout+0x102>
      }
      /* If Systick is disabled or not incremented, deactivate timeout to go in disable loop procedure */
      if (count == 0U)
 80072c2:	697b      	ldr	r3, [r7, #20]
 80072c4:	2b00      	cmp	r3, #0
 80072c6:	d101      	bne.n	80072cc <SPI_WaitFlagStateUntilTimeout+0xdc>
      {
        tmp_timeout = 0U;
 80072c8:	2300      	movs	r3, #0
 80072ca:	61fb      	str	r3, [r7, #28]
      }
      count--;
 80072cc:	697b      	ldr	r3, [r7, #20]
 80072ce:	3b01      	subs	r3, #1
 80072d0:	617b      	str	r3, [r7, #20]
  while ((__HAL_SPI_GET_FLAG(hspi, Flag) ? SET : RESET) != State)
 80072d2:	68fb      	ldr	r3, [r7, #12]
 80072d4:	681b      	ldr	r3, [r3, #0]
 80072d6:	689a      	ldr	r2, [r3, #8]
 80072d8:	68bb      	ldr	r3, [r7, #8]
 80072da:	4013      	ands	r3, r2
 80072dc:	68ba      	ldr	r2, [r7, #8]
 80072de:	429a      	cmp	r2, r3
 80072e0:	bf0c      	ite	eq
 80072e2:	2301      	moveq	r3, #1
 80072e4:	2300      	movne	r3, #0
 80072e6:	b2db      	uxtb	r3, r3
 80072e8:	461a      	mov	r2, r3
 80072ea:	79fb      	ldrb	r3, [r7, #7]
 80072ec:	429a      	cmp	r2, r3
 80072ee:	d19b      	bne.n	8007228 <SPI_WaitFlagStateUntilTimeout+0x38>
    }
  }

  return HAL_OK;
 80072f0:	2300      	movs	r3, #0
}
 80072f2:	4618      	mov	r0, r3
 80072f4:	3720      	adds	r7, #32
 80072f6:	46bd      	mov	sp, r7
 80072f8:	bd80      	pop	{r7, pc}
 80072fa:	bf00      	nop
 80072fc:	20000068 	.word	0x20000068

08007300 <SPI_EndRxTransaction>:
  * @param  Timeout Timeout duration
  * @param  Tickstart tick start value
  * @retval HAL status
  */
static HAL_StatusTypeDef SPI_EndRxTransaction(SPI_HandleTypeDef *hspi,  uint32_t Timeout, uint32_t Tickstart)
{
 8007300:	b580      	push	{r7, lr}
 8007302:	b086      	sub	sp, #24
 8007304:	af02      	add	r7, sp, #8
 8007306:	60f8      	str	r0, [r7, #12]
 8007308:	60b9      	str	r1, [r7, #8]
 800730a:	607a      	str	r2, [r7, #4]
  if ((hspi->Init.Mode == SPI_MODE_MASTER) && ((hspi->Init.Direction == SPI_DIRECTION_1LINE)
 800730c:	68fb      	ldr	r3, [r7, #12]
 800730e:	685b      	ldr	r3, [r3, #4]
 8007310:	f5b3 7f82 	cmp.w	r3, #260	@ 0x104
 8007314:	d111      	bne.n	800733a <SPI_EndRxTransaction+0x3a>
 8007316:	68fb      	ldr	r3, [r7, #12]
 8007318:	689b      	ldr	r3, [r3, #8]
 800731a:	f5b3 4f00 	cmp.w	r3, #32768	@ 0x8000
 800731e:	d004      	beq.n	800732a <SPI_EndRxTransaction+0x2a>
                                               || (hspi->Init.Direction == SPI_DIRECTION_2LINES_RXONLY)))
 8007320:	68fb      	ldr	r3, [r7, #12]
 8007322:	689b      	ldr	r3, [r3, #8]
 8007324:	f5b3 6f80 	cmp.w	r3, #1024	@ 0x400
 8007328:	d107      	bne.n	800733a <SPI_EndRxTransaction+0x3a>
  {
    /* Disable SPI peripheral */
    __HAL_SPI_DISABLE(hspi);
 800732a:	68fb      	ldr	r3, [r7, #12]
 800732c:	681b      	ldr	r3, [r3, #0]
 800732e:	681a      	ldr	r2, [r3, #0]
 8007330:	68fb      	ldr	r3, [r7, #12]
 8007332:	681b      	ldr	r3, [r3, #0]
 8007334:	f022 0240 	bic.w	r2, r2, #64	@ 0x40
 8007338:	601a      	str	r2, [r3, #0]
  }

  if ((hspi->Init.Mode == SPI_MODE_MASTER) && (hspi->Init.Direction == SPI_DIRECTION_2LINES_RXONLY))
 800733a:	68fb      	ldr	r3, [r7, #12]
 800733c:	685b      	ldr	r3, [r3, #4]
 800733e:	f5b3 7f82 	cmp.w	r3, #260	@ 0x104
 8007342:	d117      	bne.n	8007374 <SPI_EndRxTransaction+0x74>
 8007344:	68fb      	ldr	r3, [r7, #12]
 8007346:	689b      	ldr	r3, [r3, #8]
 8007348:	f5b3 6f80 	cmp.w	r3, #1024	@ 0x400
 800734c:	d112      	bne.n	8007374 <SPI_EndRxTransaction+0x74>
  {
    /* Wait the RXNE reset */
    if (SPI_WaitFlagStateUntilTimeout(hspi, SPI_FLAG_RXNE, RESET, Timeout, Tickstart) != HAL_OK)
 800734e:	687b      	ldr	r3, [r7, #4]
 8007350:	9300      	str	r3, [sp, #0]
 8007352:	68bb      	ldr	r3, [r7, #8]
 8007354:	2200      	movs	r2, #0
 8007356:	2101      	movs	r1, #1
 8007358:	68f8      	ldr	r0, [r7, #12]
 800735a:	f7ff ff49 	bl	80071f0 <SPI_WaitFlagStateUntilTimeout>
 800735e:	4603      	mov	r3, r0
 8007360:	2b00      	cmp	r3, #0
 8007362:	d01a      	beq.n	800739a <SPI_EndRxTransaction+0x9a>
    {
      SET_BIT(hspi->ErrorCode, HAL_SPI_ERROR_FLAG);
 8007364:	68fb      	ldr	r3, [r7, #12]
 8007366:	6d5b      	ldr	r3, [r3, #84]	@ 0x54
 8007368:	f043 0220 	orr.w	r2, r3, #32
 800736c:	68fb      	ldr	r3, [r7, #12]
 800736e:	655a      	str	r2, [r3, #84]	@ 0x54
      return HAL_TIMEOUT;
 8007370:	2303      	movs	r3, #3
 8007372:	e013      	b.n	800739c <SPI_EndRxTransaction+0x9c>
    }
  }
  else
  {
    /* Control the BSY flag */
    if (SPI_WaitFlagStateUntilTimeout(hspi, SPI_FLAG_BSY, RESET, Timeout, Tickstart) != HAL_OK)
 8007374:	687b      	ldr	r3, [r7, #4]
 8007376:	9300      	str	r3, [sp, #0]
 8007378:	68bb      	ldr	r3, [r7, #8]
 800737a:	2200      	movs	r2, #0
 800737c:	2180      	movs	r1, #128	@ 0x80
 800737e:	68f8      	ldr	r0, [r7, #12]
 8007380:	f7ff ff36 	bl	80071f0 <SPI_WaitFlagStateUntilTimeout>
 8007384:	4603      	mov	r3, r0
 8007386:	2b00      	cmp	r3, #0
 8007388:	d007      	beq.n	800739a <SPI_EndRxTransaction+0x9a>
    {
      SET_BIT(hspi->ErrorCode, HAL_SPI_ERROR_FLAG);
 800738a:	68fb      	ldr	r3, [r7, #12]
 800738c:	6d5b      	ldr	r3, [r3, #84]	@ 0x54
 800738e:	f043 0220 	orr.w	r2, r3, #32
 8007392:	68fb      	ldr	r3, [r7, #12]
 8007394:	655a      	str	r2, [r3, #84]	@ 0x54
      return HAL_TIMEOUT;
 8007396:	2303      	movs	r3, #3
 8007398:	e000      	b.n	800739c <SPI_EndRxTransaction+0x9c>
    }
  }
  return HAL_OK;
 800739a:	2300      	movs	r3, #0
}
 800739c:	4618      	mov	r0, r3
 800739e:	3710      	adds	r7, #16
 80073a0:	46bd      	mov	sp, r7
 80073a2:	bd80      	pop	{r7, pc}

080073a4 <SPI_EndRxTxTransaction>:
  * @param  Timeout Timeout duration
  * @param  Tickstart tick start value
  * @retval HAL status
  */
static HAL_StatusTypeDef SPI_EndRxTxTransaction(SPI_HandleTypeDef *hspi, uint32_t Timeout, uint32_t Tickstart)
{
 80073a4:	b580      	push	{r7, lr}
 80073a6:	b086      	sub	sp, #24
 80073a8:	af02      	add	r7, sp, #8
 80073aa:	60f8      	str	r0, [r7, #12]
 80073ac:	60b9      	str	r1, [r7, #8]
 80073ae:	607a      	str	r2, [r7, #4]
  /* Wait until TXE flag */
  if (SPI_WaitFlagStateUntilTimeout(hspi, SPI_FLAG_TXE, SET, Timeout, Tickstart) != HAL_OK)
 80073b0:	687b      	ldr	r3, [r7, #4]
 80073b2:	9300      	str	r3, [sp, #0]
 80073b4:	68bb      	ldr	r3, [r7, #8]
 80073b6:	2201      	movs	r2, #1
 80073b8:	2102      	movs	r1, #2
 80073ba:	68f8      	ldr	r0, [r7, #12]
 80073bc:	f7ff ff18 	bl	80071f0 <SPI_WaitFlagStateUntilTimeout>
 80073c0:	4603      	mov	r3, r0
 80073c2:	2b00      	cmp	r3, #0
 80073c4:	d007      	beq.n	80073d6 <SPI_EndRxTxTransaction+0x32>
  {
    SET_BIT(hspi->ErrorCode, HAL_SPI_ERROR_FLAG);
 80073c6:	68fb      	ldr	r3, [r7, #12]
 80073c8:	6d5b      	ldr	r3, [r3, #84]	@ 0x54
 80073ca:	f043 0220 	orr.w	r2, r3, #32
 80073ce:	68fb      	ldr	r3, [r7, #12]
 80073d0:	655a      	str	r2, [r3, #84]	@ 0x54
    return HAL_TIMEOUT;
 80073d2:	2303      	movs	r3, #3
 80073d4:	e013      	b.n	80073fe <SPI_EndRxTxTransaction+0x5a>
  }

  /* Control the BSY flag */
  if (SPI_WaitFlagStateUntilTimeout(hspi, SPI_FLAG_BSY, RESET, Timeout, Tickstart) != HAL_OK)
 80073d6:	687b      	ldr	r3, [r7, #4]
 80073d8:	9300      	str	r3, [sp, #0]
 80073da:	68bb      	ldr	r3, [r7, #8]
 80073dc:	2200      	movs	r2, #0
 80073de:	2180      	movs	r1, #128	@ 0x80
 80073e0:	68f8      	ldr	r0, [r7, #12]
 80073e2:	f7ff ff05 	bl	80071f0 <SPI_WaitFlagStateUntilTimeout>
 80073e6:	4603      	mov	r3, r0
 80073e8:	2b00      	cmp	r3, #0
 80073ea:	d007      	beq.n	80073fc <SPI_EndRxTxTransaction+0x58>
  {
    SET_BIT(hspi->ErrorCode, HAL_SPI_ERROR_FLAG);
 80073ec:	68fb      	ldr	r3, [r7, #12]
 80073ee:	6d5b      	ldr	r3, [r3, #84]	@ 0x54
 80073f0:	f043 0220 	orr.w	r2, r3, #32
 80073f4:	68fb      	ldr	r3, [r7, #12]
 80073f6:	655a      	str	r2, [r3, #84]	@ 0x54
    return HAL_TIMEOUT;
 80073f8:	2303      	movs	r3, #3
 80073fa:	e000      	b.n	80073fe <SPI_EndRxTxTransaction+0x5a>
  }
  return HAL_OK;
 80073fc:	2300      	movs	r3, #0
}
 80073fe:	4618      	mov	r0, r3
 8007400:	3710      	adds	r7, #16
 8007402:	46bd      	mov	sp, r7
 8007404:	bd80      	pop	{r7, pc}

08007406 <HAL_UART_Init>:
  * @param  huart  Pointer to a UART_HandleTypeDef structure that contains
  *                the configuration information for the specified UART module.
  * @retval HAL status
  */
HAL_StatusTypeDef HAL_UART_Init(UART_HandleTypeDef *huart)
{
 8007406:	b580      	push	{r7, lr}
 8007408:	b082      	sub	sp, #8
 800740a:	af00      	add	r7, sp, #0
 800740c:	6078      	str	r0, [r7, #4]
  /* Check the UART handle allocation */
  if (huart == NULL)
 800740e:	687b      	ldr	r3, [r7, #4]
 8007410:	2b00      	cmp	r3, #0
 8007412:	d101      	bne.n	8007418 <HAL_UART_Init+0x12>
  {
    return HAL_ERROR;
 8007414:	2301      	movs	r3, #1
 8007416:	e042      	b.n	800749e <HAL_UART_Init+0x98>
  assert_param(IS_UART_WORD_LENGTH(huart->Init.WordLength));
#if defined(USART_CR1_OVER8)
  assert_param(IS_UART_OVERSAMPLING(huart->Init.OverSampling));
#endif /* USART_CR1_OVER8 */

  if (huart->gState == HAL_UART_STATE_RESET)
 8007418:	687b      	ldr	r3, [r7, #4]
 800741a:	f893 3041 	ldrb.w	r3, [r3, #65]	@ 0x41
 800741e:	b2db      	uxtb	r3, r3
 8007420:	2b00      	cmp	r3, #0
 8007422:	d106      	bne.n	8007432 <HAL_UART_Init+0x2c>
  {
    /* Allocate lock resource and initialize it */
    huart->Lock = HAL_UNLOCKED;
 8007424:	687b      	ldr	r3, [r7, #4]
 8007426:	2200      	movs	r2, #0
 8007428:	f883 2040 	strb.w	r2, [r3, #64]	@ 0x40

    /* Init the low level hardware */
    huart->MspInitCallback(huart);
#else
    /* Init the low level hardware : GPIO, CLOCK */
    HAL_UART_MspInit(huart);
 800742c:	6878      	ldr	r0, [r7, #4]
 800742e:	f7fc fa4f 	bl	80038d0 <HAL_UART_MspInit>
#endif /* (USE_HAL_UART_REGISTER_CALLBACKS) */
  }

  huart->gState = HAL_UART_STATE_BUSY;
 8007432:	687b      	ldr	r3, [r7, #4]
 8007434:	2224      	movs	r2, #36	@ 0x24
 8007436:	f883 2041 	strb.w	r2, [r3, #65]	@ 0x41

  /* Disable the peripheral */
  __HAL_UART_DISABLE(huart);
 800743a:	687b      	ldr	r3, [r7, #4]
 800743c:	681b      	ldr	r3, [r3, #0]
 800743e:	68da      	ldr	r2, [r3, #12]
 8007440:	687b      	ldr	r3, [r7, #4]
 8007442:	681b      	ldr	r3, [r3, #0]
 8007444:	f422 5200 	bic.w	r2, r2, #8192	@ 0x2000
 8007448:	60da      	str	r2, [r3, #12]

  /* Set the UART Communication parameters */
  UART_SetConfig(huart);
 800744a:	6878      	ldr	r0, [r7, #4]
 800744c:	f000 f9d0 	bl	80077f0 <UART_SetConfig>

  /* In asynchronous mode, the following bits must be kept cleared:
     - LINEN and CLKEN bits in the USART_CR2 register,
     - SCEN, HDSEL and IREN  bits in the USART_CR3 register.*/
  CLEAR_BIT(huart->Instance->CR2, (USART_CR2_LINEN | USART_CR2_CLKEN));
 8007450:	687b      	ldr	r3, [r7, #4]
 8007452:	681b      	ldr	r3, [r3, #0]
 8007454:	691a      	ldr	r2, [r3, #16]
 8007456:	687b      	ldr	r3, [r7, #4]
 8007458:	681b      	ldr	r3, [r3, #0]
 800745a:	f422 4290 	bic.w	r2, r2, #18432	@ 0x4800
 800745e:	611a      	str	r2, [r3, #16]
  CLEAR_BIT(huart->Instance->CR3, (USART_CR3_SCEN | USART_CR3_HDSEL | USART_CR3_IREN));
 8007460:	687b      	ldr	r3, [r7, #4]
 8007462:	681b      	ldr	r3, [r3, #0]
 8007464:	695a      	ldr	r2, [r3, #20]
 8007466:	687b      	ldr	r3, [r7, #4]
 8007468:	681b      	ldr	r3, [r3, #0]
 800746a:	f022 022a 	bic.w	r2, r2, #42	@ 0x2a
 800746e:	615a      	str	r2, [r3, #20]

  /* Enable the peripheral */
  __HAL_UART_ENABLE(huart);
 8007470:	687b      	ldr	r3, [r7, #4]
 8007472:	681b      	ldr	r3, [r3, #0]
 8007474:	68da      	ldr	r2, [r3, #12]
 8007476:	687b      	ldr	r3, [r7, #4]
 8007478:	681b      	ldr	r3, [r3, #0]
 800747a:	f442 5200 	orr.w	r2, r2, #8192	@ 0x2000
 800747e:	60da      	str	r2, [r3, #12]

  /* Initialize the UART state */
  huart->ErrorCode = HAL_UART_ERROR_NONE;
 8007480:	687b      	ldr	r3, [r7, #4]
 8007482:	2200      	movs	r2, #0
 8007484:	645a      	str	r2, [r3, #68]	@ 0x44
  huart->gState = HAL_UART_STATE_READY;
 8007486:	687b      	ldr	r3, [r7, #4]
 8007488:	2220      	movs	r2, #32
 800748a:	f883 2041 	strb.w	r2, [r3, #65]	@ 0x41
  huart->RxState = HAL_UART_STATE_READY;
 800748e:	687b      	ldr	r3, [r7, #4]
 8007490:	2220      	movs	r2, #32
 8007492:	f883 2042 	strb.w	r2, [r3, #66]	@ 0x42
  huart->RxEventType = HAL_UART_RXEVENT_TC;
 8007496:	687b      	ldr	r3, [r7, #4]
 8007498:	2200      	movs	r2, #0
 800749a:	635a      	str	r2, [r3, #52]	@ 0x34

  return HAL_OK;
 800749c:	2300      	movs	r3, #0
}
 800749e:	4618      	mov	r0, r3
 80074a0:	3708      	adds	r7, #8
 80074a2:	46bd      	mov	sp, r7
 80074a4:	bd80      	pop	{r7, pc}

080074a6 <HAL_UART_Transmit>:
  * @param  Size  Amount of data elements (u8 or u16) to be sent
  * @param  Timeout Timeout duration
  * @retval HAL status
  */
HAL_StatusTypeDef HAL_UART_Transmit(UART_HandleTypeDef *huart, const uint8_t *pData, uint16_t Size, uint32_t Timeout)
{
 80074a6:	b580      	push	{r7, lr}
 80074a8:	b08a      	sub	sp, #40	@ 0x28
 80074aa:	af02      	add	r7, sp, #8
 80074ac:	60f8      	str	r0, [r7, #12]
 80074ae:	60b9      	str	r1, [r7, #8]
 80074b0:	603b      	str	r3, [r7, #0]
 80074b2:	4613      	mov	r3, r2
 80074b4:	80fb      	strh	r3, [r7, #6]
  const uint8_t  *pdata8bits;
  const uint16_t *pdata16bits;
  uint32_t tickstart = 0U;
 80074b6:	2300      	movs	r3, #0
 80074b8:	617b      	str	r3, [r7, #20]

  /* Check that a Tx process is not already ongoing */
  if (huart->gState == HAL_UART_STATE_READY)
 80074ba:	68fb      	ldr	r3, [r7, #12]
 80074bc:	f893 3041 	ldrb.w	r3, [r3, #65]	@ 0x41
 80074c0:	b2db      	uxtb	r3, r3
 80074c2:	2b20      	cmp	r3, #32
 80074c4:	d175      	bne.n	80075b2 <HAL_UART_Transmit+0x10c>
  {
    if ((pData == NULL) || (Size == 0U))
 80074c6:	68bb      	ldr	r3, [r7, #8]
 80074c8:	2b00      	cmp	r3, #0
 80074ca:	d002      	beq.n	80074d2 <HAL_UART_Transmit+0x2c>
 80074cc:	88fb      	ldrh	r3, [r7, #6]
 80074ce:	2b00      	cmp	r3, #0
 80074d0:	d101      	bne.n	80074d6 <HAL_UART_Transmit+0x30>
    {
      return  HAL_ERROR;
 80074d2:	2301      	movs	r3, #1
 80074d4:	e06e      	b.n	80075b4 <HAL_UART_Transmit+0x10e>
    }

    huart->ErrorCode = HAL_UART_ERROR_NONE;
 80074d6:	68fb      	ldr	r3, [r7, #12]
 80074d8:	2200      	movs	r2, #0
 80074da:	645a      	str	r2, [r3, #68]	@ 0x44
    huart->gState = HAL_UART_STATE_BUSY_TX;
 80074dc:	68fb      	ldr	r3, [r7, #12]
 80074de:	2221      	movs	r2, #33	@ 0x21
 80074e0:	f883 2041 	strb.w	r2, [r3, #65]	@ 0x41

    /* Init tickstart for timeout management */
    tickstart = HAL_GetTick();
 80074e4:	f7fc fc04 	bl	8003cf0 <HAL_GetTick>
 80074e8:	6178      	str	r0, [r7, #20]

    huart->TxXferSize = Size;
 80074ea:	68fb      	ldr	r3, [r7, #12]
 80074ec:	88fa      	ldrh	r2, [r7, #6]
 80074ee:	849a      	strh	r2, [r3, #36]	@ 0x24
    huart->TxXferCount = Size;
 80074f0:	68fb      	ldr	r3, [r7, #12]
 80074f2:	88fa      	ldrh	r2, [r7, #6]
 80074f4:	84da      	strh	r2, [r3, #38]	@ 0x26

    /* In case of 9bits/No Parity transfer, pData needs to be handled as a uint16_t pointer */
    if ((huart->Init.WordLength == UART_WORDLENGTH_9B) && (huart->Init.Parity == UART_PARITY_NONE))
 80074f6:	68fb      	ldr	r3, [r7, #12]
 80074f8:	689b      	ldr	r3, [r3, #8]
 80074fa:	f5b3 5f80 	cmp.w	r3, #4096	@ 0x1000
 80074fe:	d108      	bne.n	8007512 <HAL_UART_Transmit+0x6c>
 8007500:	68fb      	ldr	r3, [r7, #12]
 8007502:	691b      	ldr	r3, [r3, #16]
 8007504:	2b00      	cmp	r3, #0
 8007506:	d104      	bne.n	8007512 <HAL_UART_Transmit+0x6c>
    {
      pdata8bits  = NULL;
 8007508:	2300      	movs	r3, #0
 800750a:	61fb      	str	r3, [r7, #28]
      pdata16bits = (const uint16_t *) pData;
 800750c:	68bb      	ldr	r3, [r7, #8]
 800750e:	61bb      	str	r3, [r7, #24]
 8007510:	e003      	b.n	800751a <HAL_UART_Transmit+0x74>
    }
    else
    {
      pdata8bits  = pData;
 8007512:	68bb      	ldr	r3, [r7, #8]
 8007514:	61fb      	str	r3, [r7, #28]
      pdata16bits = NULL;
 8007516:	2300      	movs	r3, #0
 8007518:	61bb      	str	r3, [r7, #24]
    }

    while (huart->TxXferCount > 0U)
 800751a:	e02e      	b.n	800757a <HAL_UART_Transmit+0xd4>
    {
      if (UART_WaitOnFlagUntilTimeout(huart, UART_FLAG_TXE, RESET, tickstart, Timeout) != HAL_OK)
 800751c:	683b      	ldr	r3, [r7, #0]
 800751e:	9300      	str	r3, [sp, #0]
 8007520:	697b      	ldr	r3, [r7, #20]
 8007522:	2200      	movs	r2, #0
 8007524:	2180      	movs	r1, #128	@ 0x80
 8007526:	68f8      	ldr	r0, [r7, #12]
 8007528:	f000 f86d 	bl	8007606 <UART_WaitOnFlagUntilTimeout>
 800752c:	4603      	mov	r3, r0
 800752e:	2b00      	cmp	r3, #0
 8007530:	d005      	beq.n	800753e <HAL_UART_Transmit+0x98>
      {
        huart->gState = HAL_UART_STATE_READY;
 8007532:	68fb      	ldr	r3, [r7, #12]
 8007534:	2220      	movs	r2, #32
 8007536:	f883 2041 	strb.w	r2, [r3, #65]	@ 0x41

        return HAL_TIMEOUT;
 800753a:	2303      	movs	r3, #3
 800753c:	e03a      	b.n	80075b4 <HAL_UART_Transmit+0x10e>
      }
      if (pdata8bits == NULL)
 800753e:	69fb      	ldr	r3, [r7, #28]
 8007540:	2b00      	cmp	r3, #0
 8007542:	d10b      	bne.n	800755c <HAL_UART_Transmit+0xb6>
      {
        huart->Instance->DR = (uint16_t)(*pdata16bits & 0x01FFU);
 8007544:	69bb      	ldr	r3, [r7, #24]
 8007546:	881b      	ldrh	r3, [r3, #0]
 8007548:	461a      	mov	r2, r3
 800754a:	68fb      	ldr	r3, [r7, #12]
 800754c:	681b      	ldr	r3, [r3, #0]
 800754e:	f3c2 0208 	ubfx	r2, r2, #0, #9
 8007552:	605a      	str	r2, [r3, #4]
        pdata16bits++;
 8007554:	69bb      	ldr	r3, [r7, #24]
 8007556:	3302      	adds	r3, #2
 8007558:	61bb      	str	r3, [r7, #24]
 800755a:	e007      	b.n	800756c <HAL_UART_Transmit+0xc6>
      }
      else
      {
        huart->Instance->DR = (uint8_t)(*pdata8bits & 0xFFU);
 800755c:	69fb      	ldr	r3, [r7, #28]
 800755e:	781a      	ldrb	r2, [r3, #0]
 8007560:	68fb      	ldr	r3, [r7, #12]
 8007562:	681b      	ldr	r3, [r3, #0]
 8007564:	605a      	str	r2, [r3, #4]
        pdata8bits++;
 8007566:	69fb      	ldr	r3, [r7, #28]
 8007568:	3301      	adds	r3, #1
 800756a:	61fb      	str	r3, [r7, #28]
      }
      huart->TxXferCount--;
 800756c:	68fb      	ldr	r3, [r7, #12]
 800756e:	8cdb      	ldrh	r3, [r3, #38]	@ 0x26
 8007570:	b29b      	uxth	r3, r3
 8007572:	3b01      	subs	r3, #1
 8007574:	b29a      	uxth	r2, r3
 8007576:	68fb      	ldr	r3, [r7, #12]
 8007578:	84da      	strh	r2, [r3, #38]	@ 0x26
    while (huart->TxXferCount > 0U)
 800757a:	68fb      	ldr	r3, [r7, #12]
 800757c:	8cdb      	ldrh	r3, [r3, #38]	@ 0x26
 800757e:	b29b      	uxth	r3, r3
 8007580:	2b00      	cmp	r3, #0
 8007582:	d1cb      	bne.n	800751c <HAL_UART_Transmit+0x76>
    }

    if (UART_WaitOnFlagUntilTimeout(huart, UART_FLAG_TC, RESET, tickstart, Timeout) != HAL_OK)
 8007584:	683b      	ldr	r3, [r7, #0]
 8007586:	9300      	str	r3, [sp, #0]
 8007588:	697b      	ldr	r3, [r7, #20]
 800758a:	2200      	movs	r2, #0
 800758c:	2140      	movs	r1, #64	@ 0x40
 800758e:	68f8      	ldr	r0, [r7, #12]
 8007590:	f000 f839 	bl	8007606 <UART_WaitOnFlagUntilTimeout>
 8007594:	4603      	mov	r3, r0
 8007596:	2b00      	cmp	r3, #0
 8007598:	d005      	beq.n	80075a6 <HAL_UART_Transmit+0x100>
    {
      huart->gState = HAL_UART_STATE_READY;
 800759a:	68fb      	ldr	r3, [r7, #12]
 800759c:	2220      	movs	r2, #32
 800759e:	f883 2041 	strb.w	r2, [r3, #65]	@ 0x41

      return HAL_TIMEOUT;
 80075a2:	2303      	movs	r3, #3
 80075a4:	e006      	b.n	80075b4 <HAL_UART_Transmit+0x10e>
    }

    /* At end of Tx process, restore huart->gState to Ready */
    huart->gState = HAL_UART_STATE_READY;
 80075a6:	68fb      	ldr	r3, [r7, #12]
 80075a8:	2220      	movs	r2, #32
 80075aa:	f883 2041 	strb.w	r2, [r3, #65]	@ 0x41

    return HAL_OK;
 80075ae:	2300      	movs	r3, #0
 80075b0:	e000      	b.n	80075b4 <HAL_UART_Transmit+0x10e>
  }
  else
  {
    return HAL_BUSY;
 80075b2:	2302      	movs	r3, #2
  }
}
 80075b4:	4618      	mov	r0, r3
 80075b6:	3720      	adds	r7, #32
 80075b8:	46bd      	mov	sp, r7
 80075ba:	bd80      	pop	{r7, pc}

080075bc <HAL_UART_Receive_IT>:
  * @param  pData Pointer to data buffer (u8 or u16 data elements).
  * @param  Size  Amount of data elements (u8 or u16) to be received.
  * @retval HAL status
  */
HAL_StatusTypeDef HAL_UART_Receive_IT(UART_HandleTypeDef *huart, uint8_t *pData, uint16_t Size)
{
 80075bc:	b580      	push	{r7, lr}
 80075be:	b084      	sub	sp, #16
 80075c0:	af00      	add	r7, sp, #0
 80075c2:	60f8      	str	r0, [r7, #12]
 80075c4:	60b9      	str	r1, [r7, #8]
 80075c6:	4613      	mov	r3, r2
 80075c8:	80fb      	strh	r3, [r7, #6]
  /* Check that a Rx process is not already ongoing */
  if (huart->RxState == HAL_UART_STATE_READY)
 80075ca:	68fb      	ldr	r3, [r7, #12]
 80075cc:	f893 3042 	ldrb.w	r3, [r3, #66]	@ 0x42
 80075d0:	b2db      	uxtb	r3, r3
 80075d2:	2b20      	cmp	r3, #32
 80075d4:	d112      	bne.n	80075fc <HAL_UART_Receive_IT+0x40>
  {
    if ((pData == NULL) || (Size == 0U))
 80075d6:	68bb      	ldr	r3, [r7, #8]
 80075d8:	2b00      	cmp	r3, #0
 80075da:	d002      	beq.n	80075e2 <HAL_UART_Receive_IT+0x26>
 80075dc:	88fb      	ldrh	r3, [r7, #6]
 80075de:	2b00      	cmp	r3, #0
 80075e0:	d101      	bne.n	80075e6 <HAL_UART_Receive_IT+0x2a>
    {
      return HAL_ERROR;
 80075e2:	2301      	movs	r3, #1
 80075e4:	e00b      	b.n	80075fe <HAL_UART_Receive_IT+0x42>
    }

    /* Set Reception type to Standard reception */
    huart->ReceptionType = HAL_UART_RECEPTION_STANDARD;
 80075e6:	68fb      	ldr	r3, [r7, #12]
 80075e8:	2200      	movs	r2, #0
 80075ea:	631a      	str	r2, [r3, #48]	@ 0x30

    return (UART_Start_Receive_IT(huart, pData, Size));
 80075ec:	88fb      	ldrh	r3, [r7, #6]
 80075ee:	461a      	mov	r2, r3
 80075f0:	68b9      	ldr	r1, [r7, #8]
 80075f2:	68f8      	ldr	r0, [r7, #12]
 80075f4:	f000 f860 	bl	80076b8 <UART_Start_Receive_IT>
 80075f8:	4603      	mov	r3, r0
 80075fa:	e000      	b.n	80075fe <HAL_UART_Receive_IT+0x42>
  }
  else
  {
    return HAL_BUSY;
 80075fc:	2302      	movs	r3, #2
  }
}
 80075fe:	4618      	mov	r0, r3
 8007600:	3710      	adds	r7, #16
 8007602:	46bd      	mov	sp, r7
 8007604:	bd80      	pop	{r7, pc}

08007606 <UART_WaitOnFlagUntilTimeout>:
  * @param  Timeout Timeout duration
  * @retval HAL status
  */
static HAL_StatusTypeDef UART_WaitOnFlagUntilTimeout(UART_HandleTypeDef *huart, uint32_t Flag, FlagStatus Status,
                                                     uint32_t Tickstart, uint32_t Timeout)
{
 8007606:	b580      	push	{r7, lr}
 8007608:	b086      	sub	sp, #24
 800760a:	af00      	add	r7, sp, #0
 800760c:	60f8      	str	r0, [r7, #12]
 800760e:	60b9      	str	r1, [r7, #8]
 8007610:	603b      	str	r3, [r7, #0]
 8007612:	4613      	mov	r3, r2
 8007614:	71fb      	strb	r3, [r7, #7]
  /* Wait until flag is set */
  while ((__HAL_UART_GET_FLAG(huart, Flag) ? SET : RESET) == Status)
 8007616:	e03b      	b.n	8007690 <UART_WaitOnFlagUntilTimeout+0x8a>
  {
    /* Check for the Timeout */
    if (Timeout != HAL_MAX_DELAY)
 8007618:	6a3b      	ldr	r3, [r7, #32]
 800761a:	f1b3 3fff 	cmp.w	r3, #4294967295
 800761e:	d037      	beq.n	8007690 <UART_WaitOnFlagUntilTimeout+0x8a>
    {
      if (((HAL_GetTick() - Tickstart) > Timeout) || (Timeout == 0U))
 8007620:	f7fc fb66 	bl	8003cf0 <HAL_GetTick>
 8007624:	4602      	mov	r2, r0
 8007626:	683b      	ldr	r3, [r7, #0]
 8007628:	1ad3      	subs	r3, r2, r3
 800762a:	6a3a      	ldr	r2, [r7, #32]
 800762c:	429a      	cmp	r2, r3
 800762e:	d302      	bcc.n	8007636 <UART_WaitOnFlagUntilTimeout+0x30>
 8007630:	6a3b      	ldr	r3, [r7, #32]
 8007632:	2b00      	cmp	r3, #0
 8007634:	d101      	bne.n	800763a <UART_WaitOnFlagUntilTimeout+0x34>
      {

        return HAL_TIMEOUT;
 8007636:	2303      	movs	r3, #3
 8007638:	e03a      	b.n	80076b0 <UART_WaitOnFlagUntilTimeout+0xaa>
      }

      if ((READ_BIT(huart->Instance->CR1, USART_CR1_RE) != 0U) && (Flag != UART_FLAG_TXE) && (Flag != UART_FLAG_TC))
 800763a:	68fb      	ldr	r3, [r7, #12]
 800763c:	681b      	ldr	r3, [r3, #0]
 800763e:	68db      	ldr	r3, [r3, #12]
 8007640:	f003 0304 	and.w	r3, r3, #4
 8007644:	2b00      	cmp	r3, #0
 8007646:	d023      	beq.n	8007690 <UART_WaitOnFlagUntilTimeout+0x8a>
 8007648:	68bb      	ldr	r3, [r7, #8]
 800764a:	2b80      	cmp	r3, #128	@ 0x80
 800764c:	d020      	beq.n	8007690 <UART_WaitOnFlagUntilTimeout+0x8a>
 800764e:	68bb      	ldr	r3, [r7, #8]
 8007650:	2b40      	cmp	r3, #64	@ 0x40
 8007652:	d01d      	beq.n	8007690 <UART_WaitOnFlagUntilTimeout+0x8a>
      {
        if (__HAL_UART_GET_FLAG(huart, UART_FLAG_ORE) == SET)
 8007654:	68fb      	ldr	r3, [r7, #12]
 8007656:	681b      	ldr	r3, [r3, #0]
 8007658:	681b      	ldr	r3, [r3, #0]
 800765a:	f003 0308 	and.w	r3, r3, #8
 800765e:	2b08      	cmp	r3, #8
 8007660:	d116      	bne.n	8007690 <UART_WaitOnFlagUntilTimeout+0x8a>
        {
          /* Clear Overrun Error flag*/
          __HAL_UART_CLEAR_OREFLAG(huart);
 8007662:	2300      	movs	r3, #0
 8007664:	617b      	str	r3, [r7, #20]
 8007666:	68fb      	ldr	r3, [r7, #12]
 8007668:	681b      	ldr	r3, [r3, #0]
 800766a:	681b      	ldr	r3, [r3, #0]
 800766c:	617b      	str	r3, [r7, #20]
 800766e:	68fb      	ldr	r3, [r7, #12]
 8007670:	681b      	ldr	r3, [r3, #0]
 8007672:	685b      	ldr	r3, [r3, #4]
 8007674:	617b      	str	r3, [r7, #20]
 8007676:	697b      	ldr	r3, [r7, #20]

          /* Blocking error : transfer is aborted
          Set the UART state ready to be able to start again the process,
          Disable Rx Interrupts if ongoing */
          UART_EndRxTransfer(huart);
 8007678:	68f8      	ldr	r0, [r7, #12]
 800767a:	f000 f856 	bl	800772a <UART_EndRxTransfer>

          huart->ErrorCode = HAL_UART_ERROR_ORE;
 800767e:	68fb      	ldr	r3, [r7, #12]
 8007680:	2208      	movs	r2, #8
 8007682:	645a      	str	r2, [r3, #68]	@ 0x44

          /* Process Unlocked */
          __HAL_UNLOCK(huart);
 8007684:	68fb      	ldr	r3, [r7, #12]
 8007686:	2200      	movs	r2, #0
 8007688:	f883 2040 	strb.w	r2, [r3, #64]	@ 0x40

          return HAL_ERROR;
 800768c:	2301      	movs	r3, #1
 800768e:	e00f      	b.n	80076b0 <UART_WaitOnFlagUntilTimeout+0xaa>
  while ((__HAL_UART_GET_FLAG(huart, Flag) ? SET : RESET) == Status)
 8007690:	68fb      	ldr	r3, [r7, #12]
 8007692:	681b      	ldr	r3, [r3, #0]
 8007694:	681a      	ldr	r2, [r3, #0]
 8007696:	68bb      	ldr	r3, [r7, #8]
 8007698:	4013      	ands	r3, r2
 800769a:	68ba      	ldr	r2, [r7, #8]
 800769c:	429a      	cmp	r2, r3
 800769e:	bf0c      	ite	eq
 80076a0:	2301      	moveq	r3, #1
 80076a2:	2300      	movne	r3, #0
 80076a4:	b2db      	uxtb	r3, r3
 80076a6:	461a      	mov	r2, r3
 80076a8:	79fb      	ldrb	r3, [r7, #7]
 80076aa:	429a      	cmp	r2, r3
 80076ac:	d0b4      	beq.n	8007618 <UART_WaitOnFlagUntilTimeout+0x12>
        }
      }
    }
  }
  return HAL_OK;
 80076ae:	2300      	movs	r3, #0
}
 80076b0:	4618      	mov	r0, r3
 80076b2:	3718      	adds	r7, #24
 80076b4:	46bd      	mov	sp, r7
 80076b6:	bd80      	pop	{r7, pc}

080076b8 <UART_Start_Receive_IT>:
  * @param  pData Pointer to data buffer (u8 or u16 data elements).
  * @param  Size  Amount of data elements (u8 or u16) to be received.
  * @retval HAL status
  */
HAL_StatusTypeDef UART_Start_Receive_IT(UART_HandleTypeDef *huart, uint8_t *pData, uint16_t Size)
{
 80076b8:	b480      	push	{r7}
 80076ba:	b085      	sub	sp, #20
 80076bc:	af00      	add	r7, sp, #0
 80076be:	60f8      	str	r0, [r7, #12]
 80076c0:	60b9      	str	r1, [r7, #8]
 80076c2:	4613      	mov	r3, r2
 80076c4:	80fb      	strh	r3, [r7, #6]
  huart->pRxBuffPtr = pData;
 80076c6:	68fb      	ldr	r3, [r7, #12]
 80076c8:	68ba      	ldr	r2, [r7, #8]
 80076ca:	629a      	str	r2, [r3, #40]	@ 0x28
  huart->RxXferSize = Size;
 80076cc:	68fb      	ldr	r3, [r7, #12]
 80076ce:	88fa      	ldrh	r2, [r7, #6]
 80076d0:	859a      	strh	r2, [r3, #44]	@ 0x2c
  huart->RxXferCount = Size;
 80076d2:	68fb      	ldr	r3, [r7, #12]
 80076d4:	88fa      	ldrh	r2, [r7, #6]
 80076d6:	85da      	strh	r2, [r3, #46]	@ 0x2e

  huart->ErrorCode = HAL_UART_ERROR_NONE;
 80076d8:	68fb      	ldr	r3, [r7, #12]
 80076da:	2200      	movs	r2, #0
 80076dc:	645a      	str	r2, [r3, #68]	@ 0x44
  huart->RxState = HAL_UART_STATE_BUSY_RX;
 80076de:	68fb      	ldr	r3, [r7, #12]
 80076e0:	2222      	movs	r2, #34	@ 0x22
 80076e2:	f883 2042 	strb.w	r2, [r3, #66]	@ 0x42

  if (huart->Init.Parity != UART_PARITY_NONE)
 80076e6:	68fb      	ldr	r3, [r7, #12]
 80076e8:	691b      	ldr	r3, [r3, #16]
 80076ea:	2b00      	cmp	r3, #0
 80076ec:	d007      	beq.n	80076fe <UART_Start_Receive_IT+0x46>
  {
    /* Enable the UART Parity Error Interrupt */
    __HAL_UART_ENABLE_IT(huart, UART_IT_PE);
 80076ee:	68fb      	ldr	r3, [r7, #12]
 80076f0:	681b      	ldr	r3, [r3, #0]
 80076f2:	68da      	ldr	r2, [r3, #12]
 80076f4:	68fb      	ldr	r3, [r7, #12]
 80076f6:	681b      	ldr	r3, [r3, #0]
 80076f8:	f442 7280 	orr.w	r2, r2, #256	@ 0x100
 80076fc:	60da      	str	r2, [r3, #12]
  }

  /* Enable the UART Error Interrupt: (Frame error, noise error, overrun error) */
  __HAL_UART_ENABLE_IT(huart, UART_IT_ERR);
 80076fe:	68fb      	ldr	r3, [r7, #12]
 8007700:	681b      	ldr	r3, [r3, #0]
 8007702:	695a      	ldr	r2, [r3, #20]
 8007704:	68fb      	ldr	r3, [r7, #12]
 8007706:	681b      	ldr	r3, [r3, #0]
 8007708:	f042 0201 	orr.w	r2, r2, #1
 800770c:	615a      	str	r2, [r3, #20]

  /* Enable the UART Data Register not empty Interrupt */
  __HAL_UART_ENABLE_IT(huart, UART_IT_RXNE);
 800770e:	68fb      	ldr	r3, [r7, #12]
 8007710:	681b      	ldr	r3, [r3, #0]
 8007712:	68da      	ldr	r2, [r3, #12]
 8007714:	68fb      	ldr	r3, [r7, #12]
 8007716:	681b      	ldr	r3, [r3, #0]
 8007718:	f042 0220 	orr.w	r2, r2, #32
 800771c:	60da      	str	r2, [r3, #12]

  return HAL_OK;
 800771e:	2300      	movs	r3, #0
}
 8007720:	4618      	mov	r0, r3
 8007722:	3714      	adds	r7, #20
 8007724:	46bd      	mov	sp, r7
 8007726:	bc80      	pop	{r7}
 8007728:	4770      	bx	lr

0800772a <UART_EndRxTransfer>:
  * @brief  End ongoing Rx transfer on UART peripheral (following error detection or Reception completion).
  * @param  huart UART handle.
  * @retval None
  */
static void UART_EndRxTransfer(UART_HandleTypeDef *huart)
{
 800772a:	b480      	push	{r7}
 800772c:	b095      	sub	sp, #84	@ 0x54
 800772e:	af00      	add	r7, sp, #0
 8007730:	6078      	str	r0, [r7, #4]
  /* Disable RXNE, PE and ERR (Frame error, noise error, overrun error) interrupts */
  ATOMIC_CLEAR_BIT(huart->Instance->CR1, (USART_CR1_RXNEIE | USART_CR1_PEIE));
 8007732:	687b      	ldr	r3, [r7, #4]
 8007734:	681b      	ldr	r3, [r3, #0]
 8007736:	330c      	adds	r3, #12
 8007738:	637b      	str	r3, [r7, #52]	@ 0x34
 */
__STATIC_FORCEINLINE uint32_t __LDREXW(volatile uint32_t *addr)
{
    uint32_t result;

   __ASM volatile ("ldrex %0, %1" : "=r" (result) : "Q" (*addr) );
 800773a:	6b7b      	ldr	r3, [r7, #52]	@ 0x34
 800773c:	e853 3f00 	ldrex	r3, [r3]
 8007740:	633b      	str	r3, [r7, #48]	@ 0x30
   return(result);
 8007742:	6b3b      	ldr	r3, [r7, #48]	@ 0x30
 8007744:	f423 7390 	bic.w	r3, r3, #288	@ 0x120
 8007748:	64fb      	str	r3, [r7, #76]	@ 0x4c
 800774a:	687b      	ldr	r3, [r7, #4]
 800774c:	681b      	ldr	r3, [r3, #0]
 800774e:	330c      	adds	r3, #12
 8007750:	6cfa      	ldr	r2, [r7, #76]	@ 0x4c
 8007752:	643a      	str	r2, [r7, #64]	@ 0x40
 8007754:	63fb      	str	r3, [r7, #60]	@ 0x3c
 */
__STATIC_FORCEINLINE uint32_t __STREXW(uint32_t value, volatile uint32_t *addr)
{
   uint32_t result;

   __ASM volatile ("strex %0, %2, %1" : "=&r" (result), "=Q" (*addr) : "r" (value) );
 8007756:	6bf9      	ldr	r1, [r7, #60]	@ 0x3c
 8007758:	6c3a      	ldr	r2, [r7, #64]	@ 0x40
 800775a:	e841 2300 	strex	r3, r2, [r1]
 800775e:	63bb      	str	r3, [r7, #56]	@ 0x38
   return(result);
 8007760:	6bbb      	ldr	r3, [r7, #56]	@ 0x38
 8007762:	2b00      	cmp	r3, #0
 8007764:	d1e5      	bne.n	8007732 <UART_EndRxTransfer+0x8>
  ATOMIC_CLEAR_BIT(huart->Instance->CR3, USART_CR3_EIE);
 8007766:	687b      	ldr	r3, [r7, #4]
 8007768:	681b      	ldr	r3, [r3, #0]
 800776a:	3314      	adds	r3, #20
 800776c:	623b      	str	r3, [r7, #32]
   __ASM volatile ("ldrex %0, %1" : "=r" (result) : "Q" (*addr) );
 800776e:	6a3b      	ldr	r3, [r7, #32]
 8007770:	e853 3f00 	ldrex	r3, [r3]
 8007774:	61fb      	str	r3, [r7, #28]
   return(result);
 8007776:	69fb      	ldr	r3, [r7, #28]
 8007778:	f023 0301 	bic.w	r3, r3, #1
 800777c:	64bb      	str	r3, [r7, #72]	@ 0x48
 800777e:	687b      	ldr	r3, [r7, #4]
 8007780:	681b      	ldr	r3, [r3, #0]
 8007782:	3314      	adds	r3, #20
 8007784:	6cba      	ldr	r2, [r7, #72]	@ 0x48
 8007786:	62fa      	str	r2, [r7, #44]	@ 0x2c
 8007788:	62bb      	str	r3, [r7, #40]	@ 0x28
   __ASM volatile ("strex %0, %2, %1" : "=&r" (result), "=Q" (*addr) : "r" (value) );
 800778a:	6ab9      	ldr	r1, [r7, #40]	@ 0x28
 800778c:	6afa      	ldr	r2, [r7, #44]	@ 0x2c
 800778e:	e841 2300 	strex	r3, r2, [r1]
 8007792:	627b      	str	r3, [r7, #36]	@ 0x24
   return(result);
 8007794:	6a7b      	ldr	r3, [r7, #36]	@ 0x24
 8007796:	2b00      	cmp	r3, #0
 8007798:	d1e5      	bne.n	8007766 <UART_EndRxTransfer+0x3c>

  /* In case of reception waiting for IDLE event, disable also the IDLE IE interrupt source */
  if (huart->ReceptionType == HAL_UART_RECEPTION_TOIDLE)
 800779a:	687b      	ldr	r3, [r7, #4]
 800779c:	6b1b      	ldr	r3, [r3, #48]	@ 0x30
 800779e:	2b01      	cmp	r3, #1
 80077a0:	d119      	bne.n	80077d6 <UART_EndRxTransfer+0xac>
  {
    ATOMIC_CLEAR_BIT(huart->Instance->CR1, USART_CR1_IDLEIE);
 80077a2:	687b      	ldr	r3, [r7, #4]
 80077a4:	681b      	ldr	r3, [r3, #0]
 80077a6:	330c      	adds	r3, #12
 80077a8:	60fb      	str	r3, [r7, #12]
   __ASM volatile ("ldrex %0, %1" : "=r" (result) : "Q" (*addr) );
 80077aa:	68fb      	ldr	r3, [r7, #12]
 80077ac:	e853 3f00 	ldrex	r3, [r3]
 80077b0:	60bb      	str	r3, [r7, #8]
   return(result);
 80077b2:	68bb      	ldr	r3, [r7, #8]
 80077b4:	f023 0310 	bic.w	r3, r3, #16
 80077b8:	647b      	str	r3, [r7, #68]	@ 0x44
 80077ba:	687b      	ldr	r3, [r7, #4]
 80077bc:	681b      	ldr	r3, [r3, #0]
 80077be:	330c      	adds	r3, #12
 80077c0:	6c7a      	ldr	r2, [r7, #68]	@ 0x44
 80077c2:	61ba      	str	r2, [r7, #24]
 80077c4:	617b      	str	r3, [r7, #20]
   __ASM volatile ("strex %0, %2, %1" : "=&r" (result), "=Q" (*addr) : "r" (value) );
 80077c6:	6979      	ldr	r1, [r7, #20]
 80077c8:	69ba      	ldr	r2, [r7, #24]
 80077ca:	e841 2300 	strex	r3, r2, [r1]
 80077ce:	613b      	str	r3, [r7, #16]
   return(result);
 80077d0:	693b      	ldr	r3, [r7, #16]
 80077d2:	2b00      	cmp	r3, #0
 80077d4:	d1e5      	bne.n	80077a2 <UART_EndRxTransfer+0x78>
  }

  /* At end of Rx process, restore huart->RxState to Ready */
  huart->RxState = HAL_UART_STATE_READY;
 80077d6:	687b      	ldr	r3, [r7, #4]
 80077d8:	2220      	movs	r2, #32
 80077da:	f883 2042 	strb.w	r2, [r3, #66]	@ 0x42
  huart->ReceptionType = HAL_UART_RECEPTION_STANDARD;
 80077de:	687b      	ldr	r3, [r7, #4]
 80077e0:	2200      	movs	r2, #0
 80077e2:	631a      	str	r2, [r3, #48]	@ 0x30
}
 80077e4:	bf00      	nop
 80077e6:	3754      	adds	r7, #84	@ 0x54
 80077e8:	46bd      	mov	sp, r7
 80077ea:	bc80      	pop	{r7}
 80077ec:	4770      	bx	lr
	...

080077f0 <UART_SetConfig>:
  * @param  huart  Pointer to a UART_HandleTypeDef structure that contains
  *                the configuration information for the specified UART module.
  * @retval None
  */
static void UART_SetConfig(UART_HandleTypeDef *huart)
{
 80077f0:	b580      	push	{r7, lr}
 80077f2:	b084      	sub	sp, #16
 80077f4:	af00      	add	r7, sp, #0
 80077f6:	6078      	str	r0, [r7, #4]
  assert_param(IS_UART_MODE(huart->Init.Mode));

  /*-------------------------- USART CR2 Configuration -----------------------*/
  /* Configure the UART Stop Bits: Set STOP[13:12] bits
     according to huart->Init.StopBits value */
  MODIFY_REG(huart->Instance->CR2, USART_CR2_STOP, huart->Init.StopBits);
 80077f8:	687b      	ldr	r3, [r7, #4]
 80077fa:	681b      	ldr	r3, [r3, #0]
 80077fc:	691b      	ldr	r3, [r3, #16]
 80077fe:	f423 5140 	bic.w	r1, r3, #12288	@ 0x3000
 8007802:	687b      	ldr	r3, [r7, #4]
 8007804:	68da      	ldr	r2, [r3, #12]
 8007806:	687b      	ldr	r3, [r7, #4]
 8007808:	681b      	ldr	r3, [r3, #0]
 800780a:	430a      	orrs	r2, r1
 800780c:	611a      	str	r2, [r3, #16]
  tmpreg = (uint32_t)huart->Init.WordLength | huart->Init.Parity | huart->Init.Mode | huart->Init.OverSampling;
  MODIFY_REG(huart->Instance->CR1,
             (uint32_t)(USART_CR1_M | USART_CR1_PCE | USART_CR1_PS | USART_CR1_TE | USART_CR1_RE | USART_CR1_OVER8),
             tmpreg);
#else
  tmpreg = (uint32_t)huart->Init.WordLength | huart->Init.Parity | huart->Init.Mode;
 800780e:	687b      	ldr	r3, [r7, #4]
 8007810:	689a      	ldr	r2, [r3, #8]
 8007812:	687b      	ldr	r3, [r7, #4]
 8007814:	691b      	ldr	r3, [r3, #16]
 8007816:	431a      	orrs	r2, r3
 8007818:	687b      	ldr	r3, [r7, #4]
 800781a:	695b      	ldr	r3, [r3, #20]
 800781c:	4313      	orrs	r3, r2
 800781e:	60bb      	str	r3, [r7, #8]
  MODIFY_REG(huart->Instance->CR1,
 8007820:	687b      	ldr	r3, [r7, #4]
 8007822:	681b      	ldr	r3, [r3, #0]
 8007824:	68db      	ldr	r3, [r3, #12]
 8007826:	f423 53b0 	bic.w	r3, r3, #5632	@ 0x1600
 800782a:	f023 030c 	bic.w	r3, r3, #12
 800782e:	687a      	ldr	r2, [r7, #4]
 8007830:	6812      	ldr	r2, [r2, #0]
 8007832:	68b9      	ldr	r1, [r7, #8]
 8007834:	430b      	orrs	r3, r1
 8007836:	60d3      	str	r3, [r2, #12]
             tmpreg);
#endif /* USART_CR1_OVER8 */

  /*-------------------------- USART CR3 Configuration -----------------------*/
  /* Configure the UART HFC: Set CTSE and RTSE bits according to huart->Init.HwFlowCtl value */
  MODIFY_REG(huart->Instance->CR3, (USART_CR3_RTSE | USART_CR3_CTSE), huart->Init.HwFlowCtl);
 8007838:	687b      	ldr	r3, [r7, #4]
 800783a:	681b      	ldr	r3, [r3, #0]
 800783c:	695b      	ldr	r3, [r3, #20]
 800783e:	f423 7140 	bic.w	r1, r3, #768	@ 0x300
 8007842:	687b      	ldr	r3, [r7, #4]
 8007844:	699a      	ldr	r2, [r3, #24]
 8007846:	687b      	ldr	r3, [r7, #4]
 8007848:	681b      	ldr	r3, [r3, #0]
 800784a:	430a      	orrs	r2, r1
 800784c:	615a      	str	r2, [r3, #20]


  if(huart->Instance == USART1)
 800784e:	687b      	ldr	r3, [r7, #4]
 8007850:	681b      	ldr	r3, [r3, #0]
 8007852:	4a2c      	ldr	r2, [pc, #176]	@ (8007904 <UART_SetConfig+0x114>)
 8007854:	4293      	cmp	r3, r2
 8007856:	d103      	bne.n	8007860 <UART_SetConfig+0x70>
  {
    pclk = HAL_RCC_GetPCLK2Freq();
 8007858:	f7fe fe6e 	bl	8006538 <HAL_RCC_GetPCLK2Freq>
 800785c:	60f8      	str	r0, [r7, #12]
 800785e:	e002      	b.n	8007866 <UART_SetConfig+0x76>
  }
  else
  {
    pclk = HAL_RCC_GetPCLK1Freq();
 8007860:	f7fe fe56 	bl	8006510 <HAL_RCC_GetPCLK1Freq>
 8007864:	60f8      	str	r0, [r7, #12]
  else
  {
    huart->Instance->BRR = UART_BRR_SAMPLING16(pclk, huart->Init.BaudRate);
  }
#else
  huart->Instance->BRR = UART_BRR_SAMPLING16(pclk, huart->Init.BaudRate);
 8007866:	68fa      	ldr	r2, [r7, #12]
 8007868:	4613      	mov	r3, r2
 800786a:	009b      	lsls	r3, r3, #2
 800786c:	4413      	add	r3, r2
 800786e:	009a      	lsls	r2, r3, #2
 8007870:	441a      	add	r2, r3
 8007872:	687b      	ldr	r3, [r7, #4]
 8007874:	685b      	ldr	r3, [r3, #4]
 8007876:	009b      	lsls	r3, r3, #2
 8007878:	fbb2 f3f3 	udiv	r3, r2, r3
 800787c:	4a22      	ldr	r2, [pc, #136]	@ (8007908 <UART_SetConfig+0x118>)
 800787e:	fba2 2303 	umull	r2, r3, r2, r3
 8007882:	095b      	lsrs	r3, r3, #5
 8007884:	0119      	lsls	r1, r3, #4
 8007886:	68fa      	ldr	r2, [r7, #12]
 8007888:	4613      	mov	r3, r2
 800788a:	009b      	lsls	r3, r3, #2
 800788c:	4413      	add	r3, r2
 800788e:	009a      	lsls	r2, r3, #2
 8007890:	441a      	add	r2, r3
 8007892:	687b      	ldr	r3, [r7, #4]
 8007894:	685b      	ldr	r3, [r3, #4]
 8007896:	009b      	lsls	r3, r3, #2
 8007898:	fbb2 f2f3 	udiv	r2, r2, r3
 800789c:	4b1a      	ldr	r3, [pc, #104]	@ (8007908 <UART_SetConfig+0x118>)
 800789e:	fba3 0302 	umull	r0, r3, r3, r2
 80078a2:	095b      	lsrs	r3, r3, #5
 80078a4:	2064      	movs	r0, #100	@ 0x64
 80078a6:	fb00 f303 	mul.w	r3, r0, r3
 80078aa:	1ad3      	subs	r3, r2, r3
 80078ac:	011b      	lsls	r3, r3, #4
 80078ae:	3332      	adds	r3, #50	@ 0x32
 80078b0:	4a15      	ldr	r2, [pc, #84]	@ (8007908 <UART_SetConfig+0x118>)
 80078b2:	fba2 2303 	umull	r2, r3, r2, r3
 80078b6:	095b      	lsrs	r3, r3, #5
 80078b8:	f003 03f0 	and.w	r3, r3, #240	@ 0xf0
 80078bc:	4419      	add	r1, r3
 80078be:	68fa      	ldr	r2, [r7, #12]
 80078c0:	4613      	mov	r3, r2
 80078c2:	009b      	lsls	r3, r3, #2
 80078c4:	4413      	add	r3, r2
 80078c6:	009a      	lsls	r2, r3, #2
 80078c8:	441a      	add	r2, r3
 80078ca:	687b      	ldr	r3, [r7, #4]
 80078cc:	685b      	ldr	r3, [r3, #4]
 80078ce:	009b      	lsls	r3, r3, #2
 80078d0:	fbb2 f2f3 	udiv	r2, r2, r3
 80078d4:	4b0c      	ldr	r3, [pc, #48]	@ (8007908 <UART_SetConfig+0x118>)
 80078d6:	fba3 0302 	umull	r0, r3, r3, r2
 80078da:	095b      	lsrs	r3, r3, #5
 80078dc:	2064      	movs	r0, #100	@ 0x64
 80078de:	fb00 f303 	mul.w	r3, r0, r3
 80078e2:	1ad3      	subs	r3, r2, r3
 80078e4:	011b      	lsls	r3, r3, #4
 80078e6:	3332      	adds	r3, #50	@ 0x32
 80078e8:	4a07      	ldr	r2, [pc, #28]	@ (8007908 <UART_SetConfig+0x118>)
 80078ea:	fba2 2303 	umull	r2, r3, r2, r3
 80078ee:	095b      	lsrs	r3, r3, #5
 80078f0:	f003 020f 	and.w	r2, r3, #15
 80078f4:	687b      	ldr	r3, [r7, #4]
 80078f6:	681b      	ldr	r3, [r3, #0]
 80078f8:	440a      	add	r2, r1
 80078fa:	609a      	str	r2, [r3, #8]
#endif /* USART_CR1_OVER8 */
}
 80078fc:	bf00      	nop
 80078fe:	3710      	adds	r7, #16
 8007900:	46bd      	mov	sp, r7
 8007902:	bd80      	pop	{r7, pc}
 8007904:	40013800 	.word	0x40013800
 8007908:	51eb851f 	.word	0x51eb851f

0800790c <sniprintf>:
 800790c:	b40c      	push	{r2, r3}
 800790e:	b530      	push	{r4, r5, lr}
 8007910:	4b18      	ldr	r3, [pc, #96]	@ (8007974 <sniprintf+0x68>)
 8007912:	1e0c      	subs	r4, r1, #0
 8007914:	681d      	ldr	r5, [r3, #0]
 8007916:	b09d      	sub	sp, #116	@ 0x74
 8007918:	da08      	bge.n	800792c <sniprintf+0x20>
 800791a:	238b      	movs	r3, #139	@ 0x8b
 800791c:	f04f 30ff 	mov.w	r0, #4294967295
 8007920:	602b      	str	r3, [r5, #0]
 8007922:	b01d      	add	sp, #116	@ 0x74
 8007924:	e8bd 4030 	ldmia.w	sp!, {r4, r5, lr}
 8007928:	b002      	add	sp, #8
 800792a:	4770      	bx	lr
 800792c:	f44f 7302 	mov.w	r3, #520	@ 0x208
 8007930:	f8ad 3014 	strh.w	r3, [sp, #20]
 8007934:	f04f 0300 	mov.w	r3, #0
 8007938:	931b      	str	r3, [sp, #108]	@ 0x6c
 800793a:	bf0c      	ite	eq
 800793c:	4623      	moveq	r3, r4
 800793e:	f104 33ff 	addne.w	r3, r4, #4294967295
 8007942:	9304      	str	r3, [sp, #16]
 8007944:	9307      	str	r3, [sp, #28]
 8007946:	f64f 73ff 	movw	r3, #65535	@ 0xffff
 800794a:	9002      	str	r0, [sp, #8]
 800794c:	9006      	str	r0, [sp, #24]
 800794e:	f8ad 3016 	strh.w	r3, [sp, #22]
 8007952:	4628      	mov	r0, r5
 8007954:	ab21      	add	r3, sp, #132	@ 0x84
 8007956:	9a20      	ldr	r2, [sp, #128]	@ 0x80
 8007958:	a902      	add	r1, sp, #8
 800795a:	9301      	str	r3, [sp, #4]
 800795c:	f000 f9c8 	bl	8007cf0 <_svfiprintf_r>
 8007960:	1c43      	adds	r3, r0, #1
 8007962:	bfbc      	itt	lt
 8007964:	238b      	movlt	r3, #139	@ 0x8b
 8007966:	602b      	strlt	r3, [r5, #0]
 8007968:	2c00      	cmp	r4, #0
 800796a:	d0da      	beq.n	8007922 <sniprintf+0x16>
 800796c:	2200      	movs	r2, #0
 800796e:	9b02      	ldr	r3, [sp, #8]
 8007970:	701a      	strb	r2, [r3, #0]
 8007972:	e7d6      	b.n	8007922 <sniprintf+0x16>
 8007974:	20000074 	.word	0x20000074

08007978 <siprintf>:
 8007978:	b40e      	push	{r1, r2, r3}
 800797a:	f06f 4100 	mvn.w	r1, #2147483648	@ 0x80000000
 800797e:	b510      	push	{r4, lr}
 8007980:	2400      	movs	r4, #0
 8007982:	b09d      	sub	sp, #116	@ 0x74
 8007984:	ab1f      	add	r3, sp, #124	@ 0x7c
 8007986:	9002      	str	r0, [sp, #8]
 8007988:	9006      	str	r0, [sp, #24]
 800798a:	9107      	str	r1, [sp, #28]
 800798c:	9104      	str	r1, [sp, #16]
 800798e:	4809      	ldr	r0, [pc, #36]	@ (80079b4 <siprintf+0x3c>)
 8007990:	4909      	ldr	r1, [pc, #36]	@ (80079b8 <siprintf+0x40>)
 8007992:	f853 2b04 	ldr.w	r2, [r3], #4
 8007996:	9105      	str	r1, [sp, #20]
 8007998:	6800      	ldr	r0, [r0, #0]
 800799a:	a902      	add	r1, sp, #8
 800799c:	9301      	str	r3, [sp, #4]
 800799e:	941b      	str	r4, [sp, #108]	@ 0x6c
 80079a0:	f000 f9a6 	bl	8007cf0 <_svfiprintf_r>
 80079a4:	9b02      	ldr	r3, [sp, #8]
 80079a6:	701c      	strb	r4, [r3, #0]
 80079a8:	b01d      	add	sp, #116	@ 0x74
 80079aa:	e8bd 4010 	ldmia.w	sp!, {r4, lr}
 80079ae:	b003      	add	sp, #12
 80079b0:	4770      	bx	lr
 80079b2:	bf00      	nop
 80079b4:	20000074 	.word	0x20000074
 80079b8:	ffff0208 	.word	0xffff0208

080079bc <memset>:
 80079bc:	4603      	mov	r3, r0
 80079be:	4402      	add	r2, r0
 80079c0:	4293      	cmp	r3, r2
 80079c2:	d100      	bne.n	80079c6 <memset+0xa>
 80079c4:	4770      	bx	lr
 80079c6:	f803 1b01 	strb.w	r1, [r3], #1
 80079ca:	e7f9      	b.n	80079c0 <memset+0x4>

080079cc <strncpy>:
 80079cc:	4603      	mov	r3, r0
 80079ce:	b510      	push	{r4, lr}
 80079d0:	3901      	subs	r1, #1
 80079d2:	b132      	cbz	r2, 80079e2 <strncpy+0x16>
 80079d4:	f811 4f01 	ldrb.w	r4, [r1, #1]!
 80079d8:	3a01      	subs	r2, #1
 80079da:	f803 4b01 	strb.w	r4, [r3], #1
 80079de:	2c00      	cmp	r4, #0
 80079e0:	d1f7      	bne.n	80079d2 <strncpy+0x6>
 80079e2:	2100      	movs	r1, #0
 80079e4:	441a      	add	r2, r3
 80079e6:	4293      	cmp	r3, r2
 80079e8:	d100      	bne.n	80079ec <strncpy+0x20>
 80079ea:	bd10      	pop	{r4, pc}
 80079ec:	f803 1b01 	strb.w	r1, [r3], #1
 80079f0:	e7f9      	b.n	80079e6 <strncpy+0x1a>
	...

080079f4 <__errno>:
 80079f4:	4b01      	ldr	r3, [pc, #4]	@ (80079fc <__errno+0x8>)
 80079f6:	6818      	ldr	r0, [r3, #0]
 80079f8:	4770      	bx	lr
 80079fa:	bf00      	nop
 80079fc:	20000074 	.word	0x20000074

08007a00 <__libc_init_array>:
 8007a00:	b570      	push	{r4, r5, r6, lr}
 8007a02:	2600      	movs	r6, #0
 8007a04:	4d0c      	ldr	r5, [pc, #48]	@ (8007a38 <__libc_init_array+0x38>)
 8007a06:	4c0d      	ldr	r4, [pc, #52]	@ (8007a3c <__libc_init_array+0x3c>)
 8007a08:	1b64      	subs	r4, r4, r5
 8007a0a:	10a4      	asrs	r4, r4, #2
 8007a0c:	42a6      	cmp	r6, r4
 8007a0e:	d109      	bne.n	8007a24 <__libc_init_array+0x24>
 8007a10:	f000 fc76 	bl	8008300 <_init>
 8007a14:	2600      	movs	r6, #0
 8007a16:	4d0a      	ldr	r5, [pc, #40]	@ (8007a40 <__libc_init_array+0x40>)
 8007a18:	4c0a      	ldr	r4, [pc, #40]	@ (8007a44 <__libc_init_array+0x44>)
 8007a1a:	1b64      	subs	r4, r4, r5
 8007a1c:	10a4      	asrs	r4, r4, #2
 8007a1e:	42a6      	cmp	r6, r4
 8007a20:	d105      	bne.n	8007a2e <__libc_init_array+0x2e>
 8007a22:	bd70      	pop	{r4, r5, r6, pc}
 8007a24:	f855 3b04 	ldr.w	r3, [r5], #4
 8007a28:	4798      	blx	r3
 8007a2a:	3601      	adds	r6, #1
 8007a2c:	e7ee      	b.n	8007a0c <__libc_init_array+0xc>
 8007a2e:	f855 3b04 	ldr.w	r3, [r5], #4
 8007a32:	4798      	blx	r3
 8007a34:	3601      	adds	r6, #1
 8007a36:	e7f2      	b.n	8007a1e <__libc_init_array+0x1e>
 8007a38:	0800888c 	.word	0x0800888c
 8007a3c:	0800888c 	.word	0x0800888c
 8007a40:	0800888c 	.word	0x0800888c
 8007a44:	08008890 	.word	0x08008890

08007a48 <__retarget_lock_acquire_recursive>:
 8007a48:	4770      	bx	lr

08007a4a <__retarget_lock_release_recursive>:
 8007a4a:	4770      	bx	lr

08007a4c <_free_r>:
 8007a4c:	b538      	push	{r3, r4, r5, lr}
 8007a4e:	4605      	mov	r5, r0
 8007a50:	2900      	cmp	r1, #0
 8007a52:	d040      	beq.n	8007ad6 <_free_r+0x8a>
 8007a54:	f851 3c04 	ldr.w	r3, [r1, #-4]
 8007a58:	1f0c      	subs	r4, r1, #4
 8007a5a:	2b00      	cmp	r3, #0
 8007a5c:	bfb8      	it	lt
 8007a5e:	18e4      	addlt	r4, r4, r3
 8007a60:	f000 f8de 	bl	8007c20 <__malloc_lock>
 8007a64:	4a1c      	ldr	r2, [pc, #112]	@ (8007ad8 <_free_r+0x8c>)
 8007a66:	6813      	ldr	r3, [r2, #0]
 8007a68:	b933      	cbnz	r3, 8007a78 <_free_r+0x2c>
 8007a6a:	6063      	str	r3, [r4, #4]
 8007a6c:	6014      	str	r4, [r2, #0]
 8007a6e:	4628      	mov	r0, r5
 8007a70:	e8bd 4038 	ldmia.w	sp!, {r3, r4, r5, lr}
 8007a74:	f000 b8da 	b.w	8007c2c <__malloc_unlock>
 8007a78:	42a3      	cmp	r3, r4
 8007a7a:	d908      	bls.n	8007a8e <_free_r+0x42>
 8007a7c:	6820      	ldr	r0, [r4, #0]
 8007a7e:	1821      	adds	r1, r4, r0
 8007a80:	428b      	cmp	r3, r1
 8007a82:	bf01      	itttt	eq
 8007a84:	6819      	ldreq	r1, [r3, #0]
 8007a86:	685b      	ldreq	r3, [r3, #4]
 8007a88:	1809      	addeq	r1, r1, r0
 8007a8a:	6021      	streq	r1, [r4, #0]
 8007a8c:	e7ed      	b.n	8007a6a <_free_r+0x1e>
 8007a8e:	461a      	mov	r2, r3
 8007a90:	685b      	ldr	r3, [r3, #4]
 8007a92:	b10b      	cbz	r3, 8007a98 <_free_r+0x4c>
 8007a94:	42a3      	cmp	r3, r4
 8007a96:	d9fa      	bls.n	8007a8e <_free_r+0x42>
 8007a98:	6811      	ldr	r1, [r2, #0]
 8007a9a:	1850      	adds	r0, r2, r1
 8007a9c:	42a0      	cmp	r0, r4
 8007a9e:	d10b      	bne.n	8007ab8 <_free_r+0x6c>
 8007aa0:	6820      	ldr	r0, [r4, #0]
 8007aa2:	4401      	add	r1, r0
 8007aa4:	1850      	adds	r0, r2, r1
 8007aa6:	4283      	cmp	r3, r0
 8007aa8:	6011      	str	r1, [r2, #0]
 8007aaa:	d1e0      	bne.n	8007a6e <_free_r+0x22>
 8007aac:	6818      	ldr	r0, [r3, #0]
 8007aae:	685b      	ldr	r3, [r3, #4]
 8007ab0:	4408      	add	r0, r1
 8007ab2:	6010      	str	r0, [r2, #0]
 8007ab4:	6053      	str	r3, [r2, #4]
 8007ab6:	e7da      	b.n	8007a6e <_free_r+0x22>
 8007ab8:	d902      	bls.n	8007ac0 <_free_r+0x74>
 8007aba:	230c      	movs	r3, #12
 8007abc:	602b      	str	r3, [r5, #0]
 8007abe:	e7d6      	b.n	8007a6e <_free_r+0x22>
 8007ac0:	6820      	ldr	r0, [r4, #0]
 8007ac2:	1821      	adds	r1, r4, r0
 8007ac4:	428b      	cmp	r3, r1
 8007ac6:	bf01      	itttt	eq
 8007ac8:	6819      	ldreq	r1, [r3, #0]
 8007aca:	685b      	ldreq	r3, [r3, #4]
 8007acc:	1809      	addeq	r1, r1, r0
 8007ace:	6021      	streq	r1, [r4, #0]
 8007ad0:	6063      	str	r3, [r4, #4]
 8007ad2:	6054      	str	r4, [r2, #4]
 8007ad4:	e7cb      	b.n	8007a6e <_free_r+0x22>
 8007ad6:	bd38      	pop	{r3, r4, r5, pc}
 8007ad8:	200005b4 	.word	0x200005b4

08007adc <sbrk_aligned>:
 8007adc:	b570      	push	{r4, r5, r6, lr}
 8007ade:	4e0f      	ldr	r6, [pc, #60]	@ (8007b1c <sbrk_aligned+0x40>)
 8007ae0:	460c      	mov	r4, r1
 8007ae2:	6831      	ldr	r1, [r6, #0]
 8007ae4:	4605      	mov	r5, r0
 8007ae6:	b911      	cbnz	r1, 8007aee <sbrk_aligned+0x12>
 8007ae8:	f000 fba8 	bl	800823c <_sbrk_r>
 8007aec:	6030      	str	r0, [r6, #0]
 8007aee:	4621      	mov	r1, r4
 8007af0:	4628      	mov	r0, r5
 8007af2:	f000 fba3 	bl	800823c <_sbrk_r>
 8007af6:	1c43      	adds	r3, r0, #1
 8007af8:	d103      	bne.n	8007b02 <sbrk_aligned+0x26>
 8007afa:	f04f 34ff 	mov.w	r4, #4294967295
 8007afe:	4620      	mov	r0, r4
 8007b00:	bd70      	pop	{r4, r5, r6, pc}
 8007b02:	1cc4      	adds	r4, r0, #3
 8007b04:	f024 0403 	bic.w	r4, r4, #3
 8007b08:	42a0      	cmp	r0, r4
 8007b0a:	d0f8      	beq.n	8007afe <sbrk_aligned+0x22>
 8007b0c:	1a21      	subs	r1, r4, r0
 8007b0e:	4628      	mov	r0, r5
 8007b10:	f000 fb94 	bl	800823c <_sbrk_r>
 8007b14:	3001      	adds	r0, #1
 8007b16:	d1f2      	bne.n	8007afe <sbrk_aligned+0x22>
 8007b18:	e7ef      	b.n	8007afa <sbrk_aligned+0x1e>
 8007b1a:	bf00      	nop
 8007b1c:	200005b0 	.word	0x200005b0

08007b20 <_malloc_r>:
 8007b20:	e92d 43f8 	stmdb	sp!, {r3, r4, r5, r6, r7, r8, r9, lr}
 8007b24:	1ccd      	adds	r5, r1, #3
 8007b26:	f025 0503 	bic.w	r5, r5, #3
 8007b2a:	3508      	adds	r5, #8
 8007b2c:	2d0c      	cmp	r5, #12
 8007b2e:	bf38      	it	cc
 8007b30:	250c      	movcc	r5, #12
 8007b32:	2d00      	cmp	r5, #0
 8007b34:	4606      	mov	r6, r0
 8007b36:	db01      	blt.n	8007b3c <_malloc_r+0x1c>
 8007b38:	42a9      	cmp	r1, r5
 8007b3a:	d904      	bls.n	8007b46 <_malloc_r+0x26>
 8007b3c:	230c      	movs	r3, #12
 8007b3e:	6033      	str	r3, [r6, #0]
 8007b40:	2000      	movs	r0, #0
 8007b42:	e8bd 83f8 	ldmia.w	sp!, {r3, r4, r5, r6, r7, r8, r9, pc}
 8007b46:	f8df 80d4 	ldr.w	r8, [pc, #212]	@ 8007c1c <_malloc_r+0xfc>
 8007b4a:	f000 f869 	bl	8007c20 <__malloc_lock>
 8007b4e:	f8d8 3000 	ldr.w	r3, [r8]
 8007b52:	461c      	mov	r4, r3
 8007b54:	bb44      	cbnz	r4, 8007ba8 <_malloc_r+0x88>
 8007b56:	4629      	mov	r1, r5
 8007b58:	4630      	mov	r0, r6
 8007b5a:	f7ff ffbf 	bl	8007adc <sbrk_aligned>
 8007b5e:	1c43      	adds	r3, r0, #1
 8007b60:	4604      	mov	r4, r0
 8007b62:	d158      	bne.n	8007c16 <_malloc_r+0xf6>
 8007b64:	f8d8 4000 	ldr.w	r4, [r8]
 8007b68:	4627      	mov	r7, r4
 8007b6a:	2f00      	cmp	r7, #0
 8007b6c:	d143      	bne.n	8007bf6 <_malloc_r+0xd6>
 8007b6e:	2c00      	cmp	r4, #0
 8007b70:	d04b      	beq.n	8007c0a <_malloc_r+0xea>
 8007b72:	6823      	ldr	r3, [r4, #0]
 8007b74:	4639      	mov	r1, r7
 8007b76:	4630      	mov	r0, r6
 8007b78:	eb04 0903 	add.w	r9, r4, r3
 8007b7c:	f000 fb5e 	bl	800823c <_sbrk_r>
 8007b80:	4581      	cmp	r9, r0
 8007b82:	d142      	bne.n	8007c0a <_malloc_r+0xea>
 8007b84:	6821      	ldr	r1, [r4, #0]
 8007b86:	4630      	mov	r0, r6
 8007b88:	1a6d      	subs	r5, r5, r1
 8007b8a:	4629      	mov	r1, r5
 8007b8c:	f7ff ffa6 	bl	8007adc <sbrk_aligned>
 8007b90:	3001      	adds	r0, #1
 8007b92:	d03a      	beq.n	8007c0a <_malloc_r+0xea>
 8007b94:	6823      	ldr	r3, [r4, #0]
 8007b96:	442b      	add	r3, r5
 8007b98:	6023      	str	r3, [r4, #0]
 8007b9a:	f8d8 3000 	ldr.w	r3, [r8]
 8007b9e:	685a      	ldr	r2, [r3, #4]
 8007ba0:	bb62      	cbnz	r2, 8007bfc <_malloc_r+0xdc>
 8007ba2:	f8c8 7000 	str.w	r7, [r8]
 8007ba6:	e00f      	b.n	8007bc8 <_malloc_r+0xa8>
 8007ba8:	6822      	ldr	r2, [r4, #0]
 8007baa:	1b52      	subs	r2, r2, r5
 8007bac:	d420      	bmi.n	8007bf0 <_malloc_r+0xd0>
 8007bae:	2a0b      	cmp	r2, #11
 8007bb0:	d917      	bls.n	8007be2 <_malloc_r+0xc2>
 8007bb2:	1961      	adds	r1, r4, r5
 8007bb4:	42a3      	cmp	r3, r4
 8007bb6:	6025      	str	r5, [r4, #0]
 8007bb8:	bf18      	it	ne
 8007bba:	6059      	strne	r1, [r3, #4]
 8007bbc:	6863      	ldr	r3, [r4, #4]
 8007bbe:	bf08      	it	eq
 8007bc0:	f8c8 1000 	streq.w	r1, [r8]
 8007bc4:	5162      	str	r2, [r4, r5]
 8007bc6:	604b      	str	r3, [r1, #4]
 8007bc8:	4630      	mov	r0, r6
 8007bca:	f000 f82f 	bl	8007c2c <__malloc_unlock>
 8007bce:	f104 000b 	add.w	r0, r4, #11
 8007bd2:	1d23      	adds	r3, r4, #4
 8007bd4:	f020 0007 	bic.w	r0, r0, #7
 8007bd8:	1ac2      	subs	r2, r0, r3
 8007bda:	bf1c      	itt	ne
 8007bdc:	1a1b      	subne	r3, r3, r0
 8007bde:	50a3      	strne	r3, [r4, r2]
 8007be0:	e7af      	b.n	8007b42 <_malloc_r+0x22>
 8007be2:	6862      	ldr	r2, [r4, #4]
 8007be4:	42a3      	cmp	r3, r4
 8007be6:	bf0c      	ite	eq
 8007be8:	f8c8 2000 	streq.w	r2, [r8]
 8007bec:	605a      	strne	r2, [r3, #4]
 8007bee:	e7eb      	b.n	8007bc8 <_malloc_r+0xa8>
 8007bf0:	4623      	mov	r3, r4
 8007bf2:	6864      	ldr	r4, [r4, #4]
 8007bf4:	e7ae      	b.n	8007b54 <_malloc_r+0x34>
 8007bf6:	463c      	mov	r4, r7
 8007bf8:	687f      	ldr	r7, [r7, #4]
 8007bfa:	e7b6      	b.n	8007b6a <_malloc_r+0x4a>
 8007bfc:	461a      	mov	r2, r3
 8007bfe:	685b      	ldr	r3, [r3, #4]
 8007c00:	42a3      	cmp	r3, r4
 8007c02:	d1fb      	bne.n	8007bfc <_malloc_r+0xdc>
 8007c04:	2300      	movs	r3, #0
 8007c06:	6053      	str	r3, [r2, #4]
 8007c08:	e7de      	b.n	8007bc8 <_malloc_r+0xa8>
 8007c0a:	230c      	movs	r3, #12
 8007c0c:	4630      	mov	r0, r6
 8007c0e:	6033      	str	r3, [r6, #0]
 8007c10:	f000 f80c 	bl	8007c2c <__malloc_unlock>
 8007c14:	e794      	b.n	8007b40 <_malloc_r+0x20>
 8007c16:	6005      	str	r5, [r0, #0]
 8007c18:	e7d6      	b.n	8007bc8 <_malloc_r+0xa8>
 8007c1a:	bf00      	nop
 8007c1c:	200005b4 	.word	0x200005b4

08007c20 <__malloc_lock>:
 8007c20:	4801      	ldr	r0, [pc, #4]	@ (8007c28 <__malloc_lock+0x8>)
 8007c22:	f7ff bf11 	b.w	8007a48 <__retarget_lock_acquire_recursive>
 8007c26:	bf00      	nop
 8007c28:	200005ac 	.word	0x200005ac

08007c2c <__malloc_unlock>:
 8007c2c:	4801      	ldr	r0, [pc, #4]	@ (8007c34 <__malloc_unlock+0x8>)
 8007c2e:	f7ff bf0c 	b.w	8007a4a <__retarget_lock_release_recursive>
 8007c32:	bf00      	nop
 8007c34:	200005ac 	.word	0x200005ac

08007c38 <__ssputs_r>:
 8007c38:	e92d 47f0 	stmdb	sp!, {r4, r5, r6, r7, r8, r9, sl, lr}
 8007c3c:	461f      	mov	r7, r3
 8007c3e:	688e      	ldr	r6, [r1, #8]
 8007c40:	4682      	mov	sl, r0
 8007c42:	42be      	cmp	r6, r7
 8007c44:	460c      	mov	r4, r1
 8007c46:	4690      	mov	r8, r2
 8007c48:	680b      	ldr	r3, [r1, #0]
 8007c4a:	d82d      	bhi.n	8007ca8 <__ssputs_r+0x70>
 8007c4c:	f9b1 200c 	ldrsh.w	r2, [r1, #12]
 8007c50:	f412 6f90 	tst.w	r2, #1152	@ 0x480
 8007c54:	d026      	beq.n	8007ca4 <__ssputs_r+0x6c>
 8007c56:	6965      	ldr	r5, [r4, #20]
 8007c58:	6909      	ldr	r1, [r1, #16]
 8007c5a:	eb05 0545 	add.w	r5, r5, r5, lsl #1
 8007c5e:	eba3 0901 	sub.w	r9, r3, r1
 8007c62:	eb05 75d5 	add.w	r5, r5, r5, lsr #31
 8007c66:	1c7b      	adds	r3, r7, #1
 8007c68:	444b      	add	r3, r9
 8007c6a:	106d      	asrs	r5, r5, #1
 8007c6c:	429d      	cmp	r5, r3
 8007c6e:	bf38      	it	cc
 8007c70:	461d      	movcc	r5, r3
 8007c72:	0553      	lsls	r3, r2, #21
 8007c74:	d527      	bpl.n	8007cc6 <__ssputs_r+0x8e>
 8007c76:	4629      	mov	r1, r5
 8007c78:	f7ff ff52 	bl	8007b20 <_malloc_r>
 8007c7c:	4606      	mov	r6, r0
 8007c7e:	b360      	cbz	r0, 8007cda <__ssputs_r+0xa2>
 8007c80:	464a      	mov	r2, r9
 8007c82:	6921      	ldr	r1, [r4, #16]
 8007c84:	f000 faf8 	bl	8008278 <memcpy>
 8007c88:	89a3      	ldrh	r3, [r4, #12]
 8007c8a:	f423 6390 	bic.w	r3, r3, #1152	@ 0x480
 8007c8e:	f043 0380 	orr.w	r3, r3, #128	@ 0x80
 8007c92:	81a3      	strh	r3, [r4, #12]
 8007c94:	6126      	str	r6, [r4, #16]
 8007c96:	444e      	add	r6, r9
 8007c98:	6026      	str	r6, [r4, #0]
 8007c9a:	463e      	mov	r6, r7
 8007c9c:	6165      	str	r5, [r4, #20]
 8007c9e:	eba5 0509 	sub.w	r5, r5, r9
 8007ca2:	60a5      	str	r5, [r4, #8]
 8007ca4:	42be      	cmp	r6, r7
 8007ca6:	d900      	bls.n	8007caa <__ssputs_r+0x72>
 8007ca8:	463e      	mov	r6, r7
 8007caa:	4632      	mov	r2, r6
 8007cac:	4641      	mov	r1, r8
 8007cae:	6820      	ldr	r0, [r4, #0]
 8007cb0:	f000 faaa 	bl	8008208 <memmove>
 8007cb4:	2000      	movs	r0, #0
 8007cb6:	68a3      	ldr	r3, [r4, #8]
 8007cb8:	1b9b      	subs	r3, r3, r6
 8007cba:	60a3      	str	r3, [r4, #8]
 8007cbc:	6823      	ldr	r3, [r4, #0]
 8007cbe:	4433      	add	r3, r6
 8007cc0:	6023      	str	r3, [r4, #0]
 8007cc2:	e8bd 87f0 	ldmia.w	sp!, {r4, r5, r6, r7, r8, r9, sl, pc}
 8007cc6:	462a      	mov	r2, r5
 8007cc8:	f000 fae4 	bl	8008294 <_realloc_r>
 8007ccc:	4606      	mov	r6, r0
 8007cce:	2800      	cmp	r0, #0
 8007cd0:	d1e0      	bne.n	8007c94 <__ssputs_r+0x5c>
 8007cd2:	4650      	mov	r0, sl
 8007cd4:	6921      	ldr	r1, [r4, #16]
 8007cd6:	f7ff feb9 	bl	8007a4c <_free_r>
 8007cda:	230c      	movs	r3, #12
 8007cdc:	f8ca 3000 	str.w	r3, [sl]
 8007ce0:	89a3      	ldrh	r3, [r4, #12]
 8007ce2:	f04f 30ff 	mov.w	r0, #4294967295
 8007ce6:	f043 0340 	orr.w	r3, r3, #64	@ 0x40
 8007cea:	81a3      	strh	r3, [r4, #12]
 8007cec:	e7e9      	b.n	8007cc2 <__ssputs_r+0x8a>
	...

08007cf0 <_svfiprintf_r>:
 8007cf0:	e92d 4ff0 	stmdb	sp!, {r4, r5, r6, r7, r8, r9, sl, fp, lr}
 8007cf4:	4698      	mov	r8, r3
 8007cf6:	898b      	ldrh	r3, [r1, #12]
 8007cf8:	4607      	mov	r7, r0
 8007cfa:	061b      	lsls	r3, r3, #24
 8007cfc:	460d      	mov	r5, r1
 8007cfe:	4614      	mov	r4, r2
 8007d00:	b09d      	sub	sp, #116	@ 0x74
 8007d02:	d510      	bpl.n	8007d26 <_svfiprintf_r+0x36>
 8007d04:	690b      	ldr	r3, [r1, #16]
 8007d06:	b973      	cbnz	r3, 8007d26 <_svfiprintf_r+0x36>
 8007d08:	2140      	movs	r1, #64	@ 0x40
 8007d0a:	f7ff ff09 	bl	8007b20 <_malloc_r>
 8007d0e:	6028      	str	r0, [r5, #0]
 8007d10:	6128      	str	r0, [r5, #16]
 8007d12:	b930      	cbnz	r0, 8007d22 <_svfiprintf_r+0x32>
 8007d14:	230c      	movs	r3, #12
 8007d16:	603b      	str	r3, [r7, #0]
 8007d18:	f04f 30ff 	mov.w	r0, #4294967295
 8007d1c:	b01d      	add	sp, #116	@ 0x74
 8007d1e:	e8bd 8ff0 	ldmia.w	sp!, {r4, r5, r6, r7, r8, r9, sl, fp, pc}
 8007d22:	2340      	movs	r3, #64	@ 0x40
 8007d24:	616b      	str	r3, [r5, #20]
 8007d26:	2300      	movs	r3, #0
 8007d28:	9309      	str	r3, [sp, #36]	@ 0x24
 8007d2a:	2320      	movs	r3, #32
 8007d2c:	f88d 3029 	strb.w	r3, [sp, #41]	@ 0x29
 8007d30:	2330      	movs	r3, #48	@ 0x30
 8007d32:	f04f 0901 	mov.w	r9, #1
 8007d36:	f8cd 800c 	str.w	r8, [sp, #12]
 8007d3a:	f8df 8198 	ldr.w	r8, [pc, #408]	@ 8007ed4 <_svfiprintf_r+0x1e4>
 8007d3e:	f88d 302a 	strb.w	r3, [sp, #42]	@ 0x2a
 8007d42:	4623      	mov	r3, r4
 8007d44:	469a      	mov	sl, r3
 8007d46:	f813 2b01 	ldrb.w	r2, [r3], #1
 8007d4a:	b10a      	cbz	r2, 8007d50 <_svfiprintf_r+0x60>
 8007d4c:	2a25      	cmp	r2, #37	@ 0x25
 8007d4e:	d1f9      	bne.n	8007d44 <_svfiprintf_r+0x54>
 8007d50:	ebba 0b04 	subs.w	fp, sl, r4
 8007d54:	d00b      	beq.n	8007d6e <_svfiprintf_r+0x7e>
 8007d56:	465b      	mov	r3, fp
 8007d58:	4622      	mov	r2, r4
 8007d5a:	4629      	mov	r1, r5
 8007d5c:	4638      	mov	r0, r7
 8007d5e:	f7ff ff6b 	bl	8007c38 <__ssputs_r>
 8007d62:	3001      	adds	r0, #1
 8007d64:	f000 80a7 	beq.w	8007eb6 <_svfiprintf_r+0x1c6>
 8007d68:	9a09      	ldr	r2, [sp, #36]	@ 0x24
 8007d6a:	445a      	add	r2, fp
 8007d6c:	9209      	str	r2, [sp, #36]	@ 0x24
 8007d6e:	f89a 3000 	ldrb.w	r3, [sl]
 8007d72:	2b00      	cmp	r3, #0
 8007d74:	f000 809f 	beq.w	8007eb6 <_svfiprintf_r+0x1c6>
 8007d78:	2300      	movs	r3, #0
 8007d7a:	f04f 32ff 	mov.w	r2, #4294967295
 8007d7e:	e9cd 2305 	strd	r2, r3, [sp, #20]
 8007d82:	f10a 0a01 	add.w	sl, sl, #1
 8007d86:	9304      	str	r3, [sp, #16]
 8007d88:	9307      	str	r3, [sp, #28]
 8007d8a:	f88d 3053 	strb.w	r3, [sp, #83]	@ 0x53
 8007d8e:	931a      	str	r3, [sp, #104]	@ 0x68
 8007d90:	4654      	mov	r4, sl
 8007d92:	2205      	movs	r2, #5
 8007d94:	f814 1b01 	ldrb.w	r1, [r4], #1
 8007d98:	484e      	ldr	r0, [pc, #312]	@ (8007ed4 <_svfiprintf_r+0x1e4>)
 8007d9a:	f000 fa5f 	bl	800825c <memchr>
 8007d9e:	9a04      	ldr	r2, [sp, #16]
 8007da0:	b9d8      	cbnz	r0, 8007dda <_svfiprintf_r+0xea>
 8007da2:	06d0      	lsls	r0, r2, #27
 8007da4:	bf44      	itt	mi
 8007da6:	2320      	movmi	r3, #32
 8007da8:	f88d 3053 	strbmi.w	r3, [sp, #83]	@ 0x53
 8007dac:	0711      	lsls	r1, r2, #28
 8007dae:	bf44      	itt	mi
 8007db0:	232b      	movmi	r3, #43	@ 0x2b
 8007db2:	f88d 3053 	strbmi.w	r3, [sp, #83]	@ 0x53
 8007db6:	f89a 3000 	ldrb.w	r3, [sl]
 8007dba:	2b2a      	cmp	r3, #42	@ 0x2a
 8007dbc:	d015      	beq.n	8007dea <_svfiprintf_r+0xfa>
 8007dbe:	4654      	mov	r4, sl
 8007dc0:	2000      	movs	r0, #0
 8007dc2:	f04f 0c0a 	mov.w	ip, #10
 8007dc6:	9a07      	ldr	r2, [sp, #28]
 8007dc8:	4621      	mov	r1, r4
 8007dca:	f811 3b01 	ldrb.w	r3, [r1], #1
 8007dce:	3b30      	subs	r3, #48	@ 0x30
 8007dd0:	2b09      	cmp	r3, #9
 8007dd2:	d94b      	bls.n	8007e6c <_svfiprintf_r+0x17c>
 8007dd4:	b1b0      	cbz	r0, 8007e04 <_svfiprintf_r+0x114>
 8007dd6:	9207      	str	r2, [sp, #28]
 8007dd8:	e014      	b.n	8007e04 <_svfiprintf_r+0x114>
 8007dda:	eba0 0308 	sub.w	r3, r0, r8
 8007dde:	fa09 f303 	lsl.w	r3, r9, r3
 8007de2:	4313      	orrs	r3, r2
 8007de4:	46a2      	mov	sl, r4
 8007de6:	9304      	str	r3, [sp, #16]
 8007de8:	e7d2      	b.n	8007d90 <_svfiprintf_r+0xa0>
 8007dea:	9b03      	ldr	r3, [sp, #12]
 8007dec:	1d19      	adds	r1, r3, #4
 8007dee:	681b      	ldr	r3, [r3, #0]
 8007df0:	9103      	str	r1, [sp, #12]
 8007df2:	2b00      	cmp	r3, #0
 8007df4:	bfbb      	ittet	lt
 8007df6:	425b      	neglt	r3, r3
 8007df8:	f042 0202 	orrlt.w	r2, r2, #2
 8007dfc:	9307      	strge	r3, [sp, #28]
 8007dfe:	9307      	strlt	r3, [sp, #28]
 8007e00:	bfb8      	it	lt
 8007e02:	9204      	strlt	r2, [sp, #16]
 8007e04:	7823      	ldrb	r3, [r4, #0]
 8007e06:	2b2e      	cmp	r3, #46	@ 0x2e
 8007e08:	d10a      	bne.n	8007e20 <_svfiprintf_r+0x130>
 8007e0a:	7863      	ldrb	r3, [r4, #1]
 8007e0c:	2b2a      	cmp	r3, #42	@ 0x2a
 8007e0e:	d132      	bne.n	8007e76 <_svfiprintf_r+0x186>
 8007e10:	9b03      	ldr	r3, [sp, #12]
 8007e12:	3402      	adds	r4, #2
 8007e14:	1d1a      	adds	r2, r3, #4
 8007e16:	681b      	ldr	r3, [r3, #0]
 8007e18:	9203      	str	r2, [sp, #12]
 8007e1a:	ea43 73e3 	orr.w	r3, r3, r3, asr #31
 8007e1e:	9305      	str	r3, [sp, #20]
 8007e20:	f8df a0b4 	ldr.w	sl, [pc, #180]	@ 8007ed8 <_svfiprintf_r+0x1e8>
 8007e24:	2203      	movs	r2, #3
 8007e26:	4650      	mov	r0, sl
 8007e28:	7821      	ldrb	r1, [r4, #0]
 8007e2a:	f000 fa17 	bl	800825c <memchr>
 8007e2e:	b138      	cbz	r0, 8007e40 <_svfiprintf_r+0x150>
 8007e30:	2240      	movs	r2, #64	@ 0x40
 8007e32:	9b04      	ldr	r3, [sp, #16]
 8007e34:	eba0 000a 	sub.w	r0, r0, sl
 8007e38:	4082      	lsls	r2, r0
 8007e3a:	4313      	orrs	r3, r2
 8007e3c:	3401      	adds	r4, #1
 8007e3e:	9304      	str	r3, [sp, #16]
 8007e40:	f814 1b01 	ldrb.w	r1, [r4], #1
 8007e44:	2206      	movs	r2, #6
 8007e46:	4825      	ldr	r0, [pc, #148]	@ (8007edc <_svfiprintf_r+0x1ec>)
 8007e48:	f88d 1028 	strb.w	r1, [sp, #40]	@ 0x28
 8007e4c:	f000 fa06 	bl	800825c <memchr>
 8007e50:	2800      	cmp	r0, #0
 8007e52:	d036      	beq.n	8007ec2 <_svfiprintf_r+0x1d2>
 8007e54:	4b22      	ldr	r3, [pc, #136]	@ (8007ee0 <_svfiprintf_r+0x1f0>)
 8007e56:	bb1b      	cbnz	r3, 8007ea0 <_svfiprintf_r+0x1b0>
 8007e58:	9b03      	ldr	r3, [sp, #12]
 8007e5a:	3307      	adds	r3, #7
 8007e5c:	f023 0307 	bic.w	r3, r3, #7
 8007e60:	3308      	adds	r3, #8
 8007e62:	9303      	str	r3, [sp, #12]
 8007e64:	9b09      	ldr	r3, [sp, #36]	@ 0x24
 8007e66:	4433      	add	r3, r6
 8007e68:	9309      	str	r3, [sp, #36]	@ 0x24
 8007e6a:	e76a      	b.n	8007d42 <_svfiprintf_r+0x52>
 8007e6c:	460c      	mov	r4, r1
 8007e6e:	2001      	movs	r0, #1
 8007e70:	fb0c 3202 	mla	r2, ip, r2, r3
 8007e74:	e7a8      	b.n	8007dc8 <_svfiprintf_r+0xd8>
 8007e76:	2300      	movs	r3, #0
 8007e78:	f04f 0c0a 	mov.w	ip, #10
 8007e7c:	4619      	mov	r1, r3
 8007e7e:	3401      	adds	r4, #1
 8007e80:	9305      	str	r3, [sp, #20]
 8007e82:	4620      	mov	r0, r4
 8007e84:	f810 2b01 	ldrb.w	r2, [r0], #1
 8007e88:	3a30      	subs	r2, #48	@ 0x30
 8007e8a:	2a09      	cmp	r2, #9
 8007e8c:	d903      	bls.n	8007e96 <_svfiprintf_r+0x1a6>
 8007e8e:	2b00      	cmp	r3, #0
 8007e90:	d0c6      	beq.n	8007e20 <_svfiprintf_r+0x130>
 8007e92:	9105      	str	r1, [sp, #20]
 8007e94:	e7c4      	b.n	8007e20 <_svfiprintf_r+0x130>
 8007e96:	4604      	mov	r4, r0
 8007e98:	2301      	movs	r3, #1
 8007e9a:	fb0c 2101 	mla	r1, ip, r1, r2
 8007e9e:	e7f0      	b.n	8007e82 <_svfiprintf_r+0x192>
 8007ea0:	ab03      	add	r3, sp, #12
 8007ea2:	9300      	str	r3, [sp, #0]
 8007ea4:	462a      	mov	r2, r5
 8007ea6:	4638      	mov	r0, r7
 8007ea8:	4b0e      	ldr	r3, [pc, #56]	@ (8007ee4 <_svfiprintf_r+0x1f4>)
 8007eaa:	a904      	add	r1, sp, #16
 8007eac:	f3af 8000 	nop.w
 8007eb0:	1c42      	adds	r2, r0, #1
 8007eb2:	4606      	mov	r6, r0
 8007eb4:	d1d6      	bne.n	8007e64 <_svfiprintf_r+0x174>
 8007eb6:	89ab      	ldrh	r3, [r5, #12]
 8007eb8:	065b      	lsls	r3, r3, #25
 8007eba:	f53f af2d 	bmi.w	8007d18 <_svfiprintf_r+0x28>
 8007ebe:	9809      	ldr	r0, [sp, #36]	@ 0x24
 8007ec0:	e72c      	b.n	8007d1c <_svfiprintf_r+0x2c>
 8007ec2:	ab03      	add	r3, sp, #12
 8007ec4:	9300      	str	r3, [sp, #0]
 8007ec6:	462a      	mov	r2, r5
 8007ec8:	4638      	mov	r0, r7
 8007eca:	4b06      	ldr	r3, [pc, #24]	@ (8007ee4 <_svfiprintf_r+0x1f4>)
 8007ecc:	a904      	add	r1, sp, #16
 8007ece:	f000 f87d 	bl	8007fcc <_printf_i>
 8007ed2:	e7ed      	b.n	8007eb0 <_svfiprintf_r+0x1c0>
 8007ed4:	0800884e 	.word	0x0800884e
 8007ed8:	08008854 	.word	0x08008854
 8007edc:	08008858 	.word	0x08008858
 8007ee0:	00000000 	.word	0x00000000
 8007ee4:	08007c39 	.word	0x08007c39

08007ee8 <_printf_common>:
 8007ee8:	e92d 47f0 	stmdb	sp!, {r4, r5, r6, r7, r8, r9, sl, lr}
 8007eec:	4616      	mov	r6, r2
 8007eee:	4698      	mov	r8, r3
 8007ef0:	688a      	ldr	r2, [r1, #8]
 8007ef2:	690b      	ldr	r3, [r1, #16]
 8007ef4:	4607      	mov	r7, r0
 8007ef6:	4293      	cmp	r3, r2
 8007ef8:	bfb8      	it	lt
 8007efa:	4613      	movlt	r3, r2
 8007efc:	6033      	str	r3, [r6, #0]
 8007efe:	f891 2043 	ldrb.w	r2, [r1, #67]	@ 0x43
 8007f02:	460c      	mov	r4, r1
 8007f04:	f8dd 9020 	ldr.w	r9, [sp, #32]
 8007f08:	b10a      	cbz	r2, 8007f0e <_printf_common+0x26>
 8007f0a:	3301      	adds	r3, #1
 8007f0c:	6033      	str	r3, [r6, #0]
 8007f0e:	6823      	ldr	r3, [r4, #0]
 8007f10:	0699      	lsls	r1, r3, #26
 8007f12:	bf42      	ittt	mi
 8007f14:	6833      	ldrmi	r3, [r6, #0]
 8007f16:	3302      	addmi	r3, #2
 8007f18:	6033      	strmi	r3, [r6, #0]
 8007f1a:	6825      	ldr	r5, [r4, #0]
 8007f1c:	f015 0506 	ands.w	r5, r5, #6
 8007f20:	d106      	bne.n	8007f30 <_printf_common+0x48>
 8007f22:	f104 0a19 	add.w	sl, r4, #25
 8007f26:	68e3      	ldr	r3, [r4, #12]
 8007f28:	6832      	ldr	r2, [r6, #0]
 8007f2a:	1a9b      	subs	r3, r3, r2
 8007f2c:	42ab      	cmp	r3, r5
 8007f2e:	dc2b      	bgt.n	8007f88 <_printf_common+0xa0>
 8007f30:	f894 3043 	ldrb.w	r3, [r4, #67]	@ 0x43
 8007f34:	6822      	ldr	r2, [r4, #0]
 8007f36:	3b00      	subs	r3, #0
 8007f38:	bf18      	it	ne
 8007f3a:	2301      	movne	r3, #1
 8007f3c:	0692      	lsls	r2, r2, #26
 8007f3e:	d430      	bmi.n	8007fa2 <_printf_common+0xba>
 8007f40:	4641      	mov	r1, r8
 8007f42:	4638      	mov	r0, r7
 8007f44:	f104 0243 	add.w	r2, r4, #67	@ 0x43
 8007f48:	47c8      	blx	r9
 8007f4a:	3001      	adds	r0, #1
 8007f4c:	d023      	beq.n	8007f96 <_printf_common+0xae>
 8007f4e:	6823      	ldr	r3, [r4, #0]
 8007f50:	6922      	ldr	r2, [r4, #16]
 8007f52:	f003 0306 	and.w	r3, r3, #6
 8007f56:	2b04      	cmp	r3, #4
 8007f58:	bf14      	ite	ne
 8007f5a:	2500      	movne	r5, #0
 8007f5c:	6833      	ldreq	r3, [r6, #0]
 8007f5e:	f04f 0600 	mov.w	r6, #0
 8007f62:	bf08      	it	eq
 8007f64:	68e5      	ldreq	r5, [r4, #12]
 8007f66:	f104 041a 	add.w	r4, r4, #26
 8007f6a:	bf08      	it	eq
 8007f6c:	1aed      	subeq	r5, r5, r3
 8007f6e:	f854 3c12 	ldr.w	r3, [r4, #-18]
 8007f72:	bf08      	it	eq
 8007f74:	ea25 75e5 	biceq.w	r5, r5, r5, asr #31
 8007f78:	4293      	cmp	r3, r2
 8007f7a:	bfc4      	itt	gt
 8007f7c:	1a9b      	subgt	r3, r3, r2
 8007f7e:	18ed      	addgt	r5, r5, r3
 8007f80:	42b5      	cmp	r5, r6
 8007f82:	d11a      	bne.n	8007fba <_printf_common+0xd2>
 8007f84:	2000      	movs	r0, #0
 8007f86:	e008      	b.n	8007f9a <_printf_common+0xb2>
 8007f88:	2301      	movs	r3, #1
 8007f8a:	4652      	mov	r2, sl
 8007f8c:	4641      	mov	r1, r8
 8007f8e:	4638      	mov	r0, r7
 8007f90:	47c8      	blx	r9
 8007f92:	3001      	adds	r0, #1
 8007f94:	d103      	bne.n	8007f9e <_printf_common+0xb6>
 8007f96:	f04f 30ff 	mov.w	r0, #4294967295
 8007f9a:	e8bd 87f0 	ldmia.w	sp!, {r4, r5, r6, r7, r8, r9, sl, pc}
 8007f9e:	3501      	adds	r5, #1
 8007fa0:	e7c1      	b.n	8007f26 <_printf_common+0x3e>
 8007fa2:	2030      	movs	r0, #48	@ 0x30
 8007fa4:	18e1      	adds	r1, r4, r3
 8007fa6:	f881 0043 	strb.w	r0, [r1, #67]	@ 0x43
 8007faa:	1c5a      	adds	r2, r3, #1
 8007fac:	f894 1045 	ldrb.w	r1, [r4, #69]	@ 0x45
 8007fb0:	4422      	add	r2, r4
 8007fb2:	3302      	adds	r3, #2
 8007fb4:	f882 1043 	strb.w	r1, [r2, #67]	@ 0x43
 8007fb8:	e7c2      	b.n	8007f40 <_printf_common+0x58>
 8007fba:	2301      	movs	r3, #1
 8007fbc:	4622      	mov	r2, r4
 8007fbe:	4641      	mov	r1, r8
 8007fc0:	4638      	mov	r0, r7
 8007fc2:	47c8      	blx	r9
 8007fc4:	3001      	adds	r0, #1
 8007fc6:	d0e6      	beq.n	8007f96 <_printf_common+0xae>
 8007fc8:	3601      	adds	r6, #1
 8007fca:	e7d9      	b.n	8007f80 <_printf_common+0x98>

08007fcc <_printf_i>:
 8007fcc:	e92d 47ff 	stmdb	sp!, {r0, r1, r2, r3, r4, r5, r6, r7, r8, r9, sl, lr}
 8007fd0:	7e0f      	ldrb	r7, [r1, #24]
 8007fd2:	4691      	mov	r9, r2
 8007fd4:	2f78      	cmp	r7, #120	@ 0x78
 8007fd6:	4680      	mov	r8, r0
 8007fd8:	460c      	mov	r4, r1
 8007fda:	469a      	mov	sl, r3
 8007fdc:	9e0c      	ldr	r6, [sp, #48]	@ 0x30
 8007fde:	f101 0243 	add.w	r2, r1, #67	@ 0x43
 8007fe2:	d807      	bhi.n	8007ff4 <_printf_i+0x28>
 8007fe4:	2f62      	cmp	r7, #98	@ 0x62
 8007fe6:	d80a      	bhi.n	8007ffe <_printf_i+0x32>
 8007fe8:	2f00      	cmp	r7, #0
 8007fea:	f000 80d1 	beq.w	8008190 <_printf_i+0x1c4>
 8007fee:	2f58      	cmp	r7, #88	@ 0x58
 8007ff0:	f000 80b8 	beq.w	8008164 <_printf_i+0x198>
 8007ff4:	f104 0642 	add.w	r6, r4, #66	@ 0x42
 8007ff8:	f884 7042 	strb.w	r7, [r4, #66]	@ 0x42
 8007ffc:	e03a      	b.n	8008074 <_printf_i+0xa8>
 8007ffe:	f1a7 0363 	sub.w	r3, r7, #99	@ 0x63
 8008002:	2b15      	cmp	r3, #21
 8008004:	d8f6      	bhi.n	8007ff4 <_printf_i+0x28>
 8008006:	a101      	add	r1, pc, #4	@ (adr r1, 800800c <_printf_i+0x40>)
 8008008:	f851 f023 	ldr.w	pc, [r1, r3, lsl #2]
 800800c:	08008065 	.word	0x08008065
 8008010:	08008079 	.word	0x08008079
 8008014:	08007ff5 	.word	0x08007ff5
 8008018:	08007ff5 	.word	0x08007ff5
 800801c:	08007ff5 	.word	0x08007ff5
 8008020:	08007ff5 	.word	0x08007ff5
 8008024:	08008079 	.word	0x08008079
 8008028:	08007ff5 	.word	0x08007ff5
 800802c:	08007ff5 	.word	0x08007ff5
 8008030:	08007ff5 	.word	0x08007ff5
 8008034:	08007ff5 	.word	0x08007ff5
 8008038:	08008177 	.word	0x08008177
 800803c:	080080a3 	.word	0x080080a3
 8008040:	08008131 	.word	0x08008131
 8008044:	08007ff5 	.word	0x08007ff5
 8008048:	08007ff5 	.word	0x08007ff5
 800804c:	08008199 	.word	0x08008199
 8008050:	08007ff5 	.word	0x08007ff5
 8008054:	080080a3 	.word	0x080080a3
 8008058:	08007ff5 	.word	0x08007ff5
 800805c:	08007ff5 	.word	0x08007ff5
 8008060:	08008139 	.word	0x08008139
 8008064:	6833      	ldr	r3, [r6, #0]
 8008066:	1d1a      	adds	r2, r3, #4
 8008068:	681b      	ldr	r3, [r3, #0]
 800806a:	6032      	str	r2, [r6, #0]
 800806c:	f104 0642 	add.w	r6, r4, #66	@ 0x42
 8008070:	f884 3042 	strb.w	r3, [r4, #66]	@ 0x42
 8008074:	2301      	movs	r3, #1
 8008076:	e09c      	b.n	80081b2 <_printf_i+0x1e6>
 8008078:	6833      	ldr	r3, [r6, #0]
 800807a:	6820      	ldr	r0, [r4, #0]
 800807c:	1d19      	adds	r1, r3, #4
 800807e:	6031      	str	r1, [r6, #0]
 8008080:	0606      	lsls	r6, r0, #24
 8008082:	d501      	bpl.n	8008088 <_printf_i+0xbc>
 8008084:	681d      	ldr	r5, [r3, #0]
 8008086:	e003      	b.n	8008090 <_printf_i+0xc4>
 8008088:	0645      	lsls	r5, r0, #25
 800808a:	d5fb      	bpl.n	8008084 <_printf_i+0xb8>
 800808c:	f9b3 5000 	ldrsh.w	r5, [r3]
 8008090:	2d00      	cmp	r5, #0
 8008092:	da03      	bge.n	800809c <_printf_i+0xd0>
 8008094:	232d      	movs	r3, #45	@ 0x2d
 8008096:	426d      	negs	r5, r5
 8008098:	f884 3043 	strb.w	r3, [r4, #67]	@ 0x43
 800809c:	230a      	movs	r3, #10
 800809e:	4858      	ldr	r0, [pc, #352]	@ (8008200 <_printf_i+0x234>)
 80080a0:	e011      	b.n	80080c6 <_printf_i+0xfa>
 80080a2:	6821      	ldr	r1, [r4, #0]
 80080a4:	6833      	ldr	r3, [r6, #0]
 80080a6:	0608      	lsls	r0, r1, #24
 80080a8:	f853 5b04 	ldr.w	r5, [r3], #4
 80080ac:	d402      	bmi.n	80080b4 <_printf_i+0xe8>
 80080ae:	0649      	lsls	r1, r1, #25
 80080b0:	bf48      	it	mi
 80080b2:	b2ad      	uxthmi	r5, r5
 80080b4:	2f6f      	cmp	r7, #111	@ 0x6f
 80080b6:	6033      	str	r3, [r6, #0]
 80080b8:	bf14      	ite	ne
 80080ba:	230a      	movne	r3, #10
 80080bc:	2308      	moveq	r3, #8
 80080be:	4850      	ldr	r0, [pc, #320]	@ (8008200 <_printf_i+0x234>)
 80080c0:	2100      	movs	r1, #0
 80080c2:	f884 1043 	strb.w	r1, [r4, #67]	@ 0x43
 80080c6:	6866      	ldr	r6, [r4, #4]
 80080c8:	2e00      	cmp	r6, #0
 80080ca:	60a6      	str	r6, [r4, #8]
 80080cc:	db05      	blt.n	80080da <_printf_i+0x10e>
 80080ce:	6821      	ldr	r1, [r4, #0]
 80080d0:	432e      	orrs	r6, r5
 80080d2:	f021 0104 	bic.w	r1, r1, #4
 80080d6:	6021      	str	r1, [r4, #0]
 80080d8:	d04b      	beq.n	8008172 <_printf_i+0x1a6>
 80080da:	4616      	mov	r6, r2
 80080dc:	fbb5 f1f3 	udiv	r1, r5, r3
 80080e0:	fb03 5711 	mls	r7, r3, r1, r5
 80080e4:	5dc7      	ldrb	r7, [r0, r7]
 80080e6:	f806 7d01 	strb.w	r7, [r6, #-1]!
 80080ea:	462f      	mov	r7, r5
 80080ec:	42bb      	cmp	r3, r7
 80080ee:	460d      	mov	r5, r1
 80080f0:	d9f4      	bls.n	80080dc <_printf_i+0x110>
 80080f2:	2b08      	cmp	r3, #8
 80080f4:	d10b      	bne.n	800810e <_printf_i+0x142>
 80080f6:	6823      	ldr	r3, [r4, #0]
 80080f8:	07df      	lsls	r7, r3, #31
 80080fa:	d508      	bpl.n	800810e <_printf_i+0x142>
 80080fc:	6923      	ldr	r3, [r4, #16]
 80080fe:	6861      	ldr	r1, [r4, #4]
 8008100:	4299      	cmp	r1, r3
 8008102:	bfde      	ittt	le
 8008104:	2330      	movle	r3, #48	@ 0x30
 8008106:	f806 3c01 	strble.w	r3, [r6, #-1]
 800810a:	f106 36ff 	addle.w	r6, r6, #4294967295
 800810e:	1b92      	subs	r2, r2, r6
 8008110:	6122      	str	r2, [r4, #16]
 8008112:	464b      	mov	r3, r9
 8008114:	4621      	mov	r1, r4
 8008116:	4640      	mov	r0, r8
 8008118:	f8cd a000 	str.w	sl, [sp]
 800811c:	aa03      	add	r2, sp, #12
 800811e:	f7ff fee3 	bl	8007ee8 <_printf_common>
 8008122:	3001      	adds	r0, #1
 8008124:	d14a      	bne.n	80081bc <_printf_i+0x1f0>
 8008126:	f04f 30ff 	mov.w	r0, #4294967295
 800812a:	b004      	add	sp, #16
 800812c:	e8bd 87f0 	ldmia.w	sp!, {r4, r5, r6, r7, r8, r9, sl, pc}
 8008130:	6823      	ldr	r3, [r4, #0]
 8008132:	f043 0320 	orr.w	r3, r3, #32
 8008136:	6023      	str	r3, [r4, #0]
 8008138:	2778      	movs	r7, #120	@ 0x78
 800813a:	4832      	ldr	r0, [pc, #200]	@ (8008204 <_printf_i+0x238>)
 800813c:	f884 7045 	strb.w	r7, [r4, #69]	@ 0x45
 8008140:	6823      	ldr	r3, [r4, #0]
 8008142:	6831      	ldr	r1, [r6, #0]
 8008144:	061f      	lsls	r7, r3, #24
 8008146:	f851 5b04 	ldr.w	r5, [r1], #4
 800814a:	d402      	bmi.n	8008152 <_printf_i+0x186>
 800814c:	065f      	lsls	r7, r3, #25
 800814e:	bf48      	it	mi
 8008150:	b2ad      	uxthmi	r5, r5
 8008152:	6031      	str	r1, [r6, #0]
 8008154:	07d9      	lsls	r1, r3, #31
 8008156:	bf44      	itt	mi
 8008158:	f043 0320 	orrmi.w	r3, r3, #32
 800815c:	6023      	strmi	r3, [r4, #0]
 800815e:	b11d      	cbz	r5, 8008168 <_printf_i+0x19c>
 8008160:	2310      	movs	r3, #16
 8008162:	e7ad      	b.n	80080c0 <_printf_i+0xf4>
 8008164:	4826      	ldr	r0, [pc, #152]	@ (8008200 <_printf_i+0x234>)
 8008166:	e7e9      	b.n	800813c <_printf_i+0x170>
 8008168:	6823      	ldr	r3, [r4, #0]
 800816a:	f023 0320 	bic.w	r3, r3, #32
 800816e:	6023      	str	r3, [r4, #0]
 8008170:	e7f6      	b.n	8008160 <_printf_i+0x194>
 8008172:	4616      	mov	r6, r2
 8008174:	e7bd      	b.n	80080f2 <_printf_i+0x126>
 8008176:	6833      	ldr	r3, [r6, #0]
 8008178:	6825      	ldr	r5, [r4, #0]
 800817a:	1d18      	adds	r0, r3, #4
 800817c:	6961      	ldr	r1, [r4, #20]
 800817e:	6030      	str	r0, [r6, #0]
 8008180:	062e      	lsls	r6, r5, #24
 8008182:	681b      	ldr	r3, [r3, #0]
 8008184:	d501      	bpl.n	800818a <_printf_i+0x1be>
 8008186:	6019      	str	r1, [r3, #0]
 8008188:	e002      	b.n	8008190 <_printf_i+0x1c4>
 800818a:	0668      	lsls	r0, r5, #25
 800818c:	d5fb      	bpl.n	8008186 <_printf_i+0x1ba>
 800818e:	8019      	strh	r1, [r3, #0]
 8008190:	2300      	movs	r3, #0
 8008192:	4616      	mov	r6, r2
 8008194:	6123      	str	r3, [r4, #16]
 8008196:	e7bc      	b.n	8008112 <_printf_i+0x146>
 8008198:	6833      	ldr	r3, [r6, #0]
 800819a:	2100      	movs	r1, #0
 800819c:	1d1a      	adds	r2, r3, #4
 800819e:	6032      	str	r2, [r6, #0]
 80081a0:	681e      	ldr	r6, [r3, #0]
 80081a2:	6862      	ldr	r2, [r4, #4]
 80081a4:	4630      	mov	r0, r6
 80081a6:	f000 f859 	bl	800825c <memchr>
 80081aa:	b108      	cbz	r0, 80081b0 <_printf_i+0x1e4>
 80081ac:	1b80      	subs	r0, r0, r6
 80081ae:	6060      	str	r0, [r4, #4]
 80081b0:	6863      	ldr	r3, [r4, #4]
 80081b2:	6123      	str	r3, [r4, #16]
 80081b4:	2300      	movs	r3, #0
 80081b6:	f884 3043 	strb.w	r3, [r4, #67]	@ 0x43
 80081ba:	e7aa      	b.n	8008112 <_printf_i+0x146>
 80081bc:	4632      	mov	r2, r6
 80081be:	4649      	mov	r1, r9
 80081c0:	4640      	mov	r0, r8
 80081c2:	6923      	ldr	r3, [r4, #16]
 80081c4:	47d0      	blx	sl
 80081c6:	3001      	adds	r0, #1
 80081c8:	d0ad      	beq.n	8008126 <_printf_i+0x15a>
 80081ca:	6823      	ldr	r3, [r4, #0]
 80081cc:	079b      	lsls	r3, r3, #30
 80081ce:	d413      	bmi.n	80081f8 <_printf_i+0x22c>
 80081d0:	68e0      	ldr	r0, [r4, #12]
 80081d2:	9b03      	ldr	r3, [sp, #12]
 80081d4:	4298      	cmp	r0, r3
 80081d6:	bfb8      	it	lt
 80081d8:	4618      	movlt	r0, r3
 80081da:	e7a6      	b.n	800812a <_printf_i+0x15e>
 80081dc:	2301      	movs	r3, #1
 80081de:	4632      	mov	r2, r6
 80081e0:	4649      	mov	r1, r9
 80081e2:	4640      	mov	r0, r8
 80081e4:	47d0      	blx	sl
 80081e6:	3001      	adds	r0, #1
 80081e8:	d09d      	beq.n	8008126 <_printf_i+0x15a>
 80081ea:	3501      	adds	r5, #1
 80081ec:	68e3      	ldr	r3, [r4, #12]
 80081ee:	9903      	ldr	r1, [sp, #12]
 80081f0:	1a5b      	subs	r3, r3, r1
 80081f2:	42ab      	cmp	r3, r5
 80081f4:	dcf2      	bgt.n	80081dc <_printf_i+0x210>
 80081f6:	e7eb      	b.n	80081d0 <_printf_i+0x204>
 80081f8:	2500      	movs	r5, #0
 80081fa:	f104 0619 	add.w	r6, r4, #25
 80081fe:	e7f5      	b.n	80081ec <_printf_i+0x220>
 8008200:	0800885f 	.word	0x0800885f
 8008204:	08008870 	.word	0x08008870

08008208 <memmove>:
 8008208:	4288      	cmp	r0, r1
 800820a:	b510      	push	{r4, lr}
 800820c:	eb01 0402 	add.w	r4, r1, r2
 8008210:	d902      	bls.n	8008218 <memmove+0x10>
 8008212:	4284      	cmp	r4, r0
 8008214:	4623      	mov	r3, r4
 8008216:	d807      	bhi.n	8008228 <memmove+0x20>
 8008218:	1e43      	subs	r3, r0, #1
 800821a:	42a1      	cmp	r1, r4
 800821c:	d008      	beq.n	8008230 <memmove+0x28>
 800821e:	f811 2b01 	ldrb.w	r2, [r1], #1
 8008222:	f803 2f01 	strb.w	r2, [r3, #1]!
 8008226:	e7f8      	b.n	800821a <memmove+0x12>
 8008228:	4601      	mov	r1, r0
 800822a:	4402      	add	r2, r0
 800822c:	428a      	cmp	r2, r1
 800822e:	d100      	bne.n	8008232 <memmove+0x2a>
 8008230:	bd10      	pop	{r4, pc}
 8008232:	f813 4d01 	ldrb.w	r4, [r3, #-1]!
 8008236:	f802 4d01 	strb.w	r4, [r2, #-1]!
 800823a:	e7f7      	b.n	800822c <memmove+0x24>

0800823c <_sbrk_r>:
 800823c:	b538      	push	{r3, r4, r5, lr}
 800823e:	2300      	movs	r3, #0
 8008240:	4d05      	ldr	r5, [pc, #20]	@ (8008258 <_sbrk_r+0x1c>)
 8008242:	4604      	mov	r4, r0
 8008244:	4608      	mov	r0, r1
 8008246:	602b      	str	r3, [r5, #0]
 8008248:	f7fb fc24 	bl	8003a94 <_sbrk>
 800824c:	1c43      	adds	r3, r0, #1
 800824e:	d102      	bne.n	8008256 <_sbrk_r+0x1a>
 8008250:	682b      	ldr	r3, [r5, #0]
 8008252:	b103      	cbz	r3, 8008256 <_sbrk_r+0x1a>
 8008254:	6023      	str	r3, [r4, #0]
 8008256:	bd38      	pop	{r3, r4, r5, pc}
 8008258:	200005a8 	.word	0x200005a8

0800825c <memchr>:
 800825c:	4603      	mov	r3, r0
 800825e:	b510      	push	{r4, lr}
 8008260:	b2c9      	uxtb	r1, r1
 8008262:	4402      	add	r2, r0
 8008264:	4293      	cmp	r3, r2
 8008266:	4618      	mov	r0, r3
 8008268:	d101      	bne.n	800826e <memchr+0x12>
 800826a:	2000      	movs	r0, #0
 800826c:	e003      	b.n	8008276 <memchr+0x1a>
 800826e:	7804      	ldrb	r4, [r0, #0]
 8008270:	3301      	adds	r3, #1
 8008272:	428c      	cmp	r4, r1
 8008274:	d1f6      	bne.n	8008264 <memchr+0x8>
 8008276:	bd10      	pop	{r4, pc}

08008278 <memcpy>:
 8008278:	440a      	add	r2, r1
 800827a:	4291      	cmp	r1, r2
 800827c:	f100 33ff 	add.w	r3, r0, #4294967295
 8008280:	d100      	bne.n	8008284 <memcpy+0xc>
 8008282:	4770      	bx	lr
 8008284:	b510      	push	{r4, lr}
 8008286:	f811 4b01 	ldrb.w	r4, [r1], #1
 800828a:	4291      	cmp	r1, r2
 800828c:	f803 4f01 	strb.w	r4, [r3, #1]!
 8008290:	d1f9      	bne.n	8008286 <memcpy+0xe>
 8008292:	bd10      	pop	{r4, pc}

08008294 <_realloc_r>:
 8008294:	e92d 41f0 	stmdb	sp!, {r4, r5, r6, r7, r8, lr}
 8008298:	4607      	mov	r7, r0
 800829a:	4614      	mov	r4, r2
 800829c:	460d      	mov	r5, r1
 800829e:	b921      	cbnz	r1, 80082aa <_realloc_r+0x16>
 80082a0:	4611      	mov	r1, r2
 80082a2:	e8bd 41f0 	ldmia.w	sp!, {r4, r5, r6, r7, r8, lr}
 80082a6:	f7ff bc3b 	b.w	8007b20 <_malloc_r>
 80082aa:	b92a      	cbnz	r2, 80082b8 <_realloc_r+0x24>
 80082ac:	f7ff fbce 	bl	8007a4c <_free_r>
 80082b0:	4625      	mov	r5, r4
 80082b2:	4628      	mov	r0, r5
 80082b4:	e8bd 81f0 	ldmia.w	sp!, {r4, r5, r6, r7, r8, pc}
 80082b8:	f000 f81a 	bl	80082f0 <_malloc_usable_size_r>
 80082bc:	4284      	cmp	r4, r0
 80082be:	4606      	mov	r6, r0
 80082c0:	d802      	bhi.n	80082c8 <_realloc_r+0x34>
 80082c2:	ebb4 0f50 	cmp.w	r4, r0, lsr #1
 80082c6:	d8f4      	bhi.n	80082b2 <_realloc_r+0x1e>
 80082c8:	4621      	mov	r1, r4
 80082ca:	4638      	mov	r0, r7
 80082cc:	f7ff fc28 	bl	8007b20 <_malloc_r>
 80082d0:	4680      	mov	r8, r0
 80082d2:	b908      	cbnz	r0, 80082d8 <_realloc_r+0x44>
 80082d4:	4645      	mov	r5, r8
 80082d6:	e7ec      	b.n	80082b2 <_realloc_r+0x1e>
 80082d8:	42b4      	cmp	r4, r6
 80082da:	4622      	mov	r2, r4
 80082dc:	4629      	mov	r1, r5
 80082de:	bf28      	it	cs
 80082e0:	4632      	movcs	r2, r6
 80082e2:	f7ff ffc9 	bl	8008278 <memcpy>
 80082e6:	4629      	mov	r1, r5
 80082e8:	4638      	mov	r0, r7
 80082ea:	f7ff fbaf 	bl	8007a4c <_free_r>
 80082ee:	e7f1      	b.n	80082d4 <_realloc_r+0x40>

080082f0 <_malloc_usable_size_r>:
 80082f0:	f851 3c04 	ldr.w	r3, [r1, #-4]
 80082f4:	1f18      	subs	r0, r3, #4
 80082f6:	2b00      	cmp	r3, #0
 80082f8:	bfbc      	itt	lt
 80082fa:	580b      	ldrlt	r3, [r1, r0]
 80082fc:	18c0      	addlt	r0, r0, r3
 80082fe:	4770      	bx	lr

08008300 <_init>:
 8008300:	b5f8      	push	{r3, r4, r5, r6, r7, lr}
 8008302:	bf00      	nop
 8008304:	bcf8      	pop	{r3, r4, r5, r6, r7}
 8008306:	bc08      	pop	{r3}
 8008308:	469e      	mov	lr, r3
 800830a:	4770      	bx	lr

0800830c <_fini>:
 800830c:	b5f8      	push	{r3, r4, r5, r6, r7, lr}
 800830e:	bf00      	nop
 8008310:	bcf8      	pop	{r3, r4, r5, r6, r7}
 8008312:	bc08      	pop	{r3}
 8008314:	469e      	mov	lr, r3
 8008316:	4770      	bx	lr
